
out.elf:     file format elf32-tradlittlemips


Disassembly of section .config_BFC02FF0:

bfc02ff0 <__config_BFC02FF0>:
bfc02ff0:	ff ff fe fa                                         ....

Disassembly of section .config_BFC02FF4:

bfc02ff4 <__config_BFC02FF4>:
bfc02ff4:	d9 79 f8 ff                                         .y..

Disassembly of section .config_BFC02FF8:

bfc02ff8 <__config_BFC02FF8>:
bfc02ff8:	db ce 6c ff                                         ..l.

Disassembly of section .config_BFC02FFC:

bfc02ffc <__config_BFC02FFC>:
bfc02ffc:	ff ff ff 7e                                         ...~

Disassembly of section .reset:

bd001970 <_reset>:
bd001970:	0f40065e 	jal	bd001978 <_startup>
bd001974:	00000000 	nop

bd001978 <_startup>:
bd001978:	401a6000 	mfc0	k0,c0_status
bd00197c:	7f5a04c0 	ext	k0,k0,0x13,0x1
bd001980:	13400005 	beqz	k0,bd001998 <_no_nmi>
bd001984:	00000000 	nop
bd001988:	3c1a9d01 	lui	k0,0x9d01
bd00198c:	275ab6e8 	addiu	k0,k0,-18712
bd001990:	03400008 	jr	k0
bd001994:	00000000 	nop

bd001998 <_no_nmi>:
bd001998:	3c1da002 	lui	sp,0xa002
bd00199c:	27bdfff8 	addiu	sp,sp,-8
bd0019a0:	3c1ca000 	lui	gp,0xa000
bd0019a4:	279c7ff0 	addiu	gp,gp,32752
bd0019a8:	40096002 	mfc0	t1,c0_srsctl
bd0019ac:	01205820 	add	t3,t1,zero
bd0019b0:	7d2a1e80 	ext	t2,t1,0x1a,0x4
bd0019b4:	7d494984 	ins	t1,t2,0x6,0x4
bd0019b8:	40896002 	mtc0	t1,c0_srsctl
bd0019bc:	000000c0 	ehb
bd0019c0:	41dce000 	wrpgpr	gp,gp
bd0019c4:	408b6002 	mtc0	t3,c0_srsctl
bd0019c8:	000000c0 	ehb
bd0019cc:	3c089d01 	lui	t0,0x9d01
bd0019d0:	2508b788 	addiu	t0,t0,-18552
bd0019d4:	0100f809 	jalr	t0
bd0019d8:	00000000 	nop

bd0019dc <_start_bss_init>:
bd0019dc:	3c08a000 	lui	t0,0xa000
bd0019e0:	25080010 	addiu	t0,t0,16
bd0019e4:	3c09a000 	lui	t1,0xa000
bd0019e8:	25290034 	addiu	t1,t1,52
bd0019ec:	10000003 	b	bd0019fc <_bss_check>
bd0019f0:	00000000 	nop

bd0019f4 <_bss_init>:
bd0019f4:	ad000000 	sw	zero,0(t0)
bd0019f8:	25080004 	addiu	t0,t0,4

bd0019fc <_bss_check>:
bd0019fc:	0109082b 	sltu	at,t0,t1
bd001a00:	1420fffc 	bnez	at,bd0019f4 <_bss_init>
bd001a04:	00000000 	nop
bd001a08:	3c089d01 	lui	t0,0x9d01
bd001a0c:	2508aa24 	addiu	t0,t0,-21980
bd001a10:	0100f809 	jalr	t0
bd001a14:	00000000 	nop
bd001a18:	3c090000 	lui	t1,0x0
bd001a1c:	25290000 	addiu	t1,t1,0
bd001a20:	11200010 	beqz	t1,bd001a64 <_ramfunc_done>
bd001a24:	00000000 	nop
bd001a28:	3c090002 	lui	t1,0x2
bd001a2c:	25290000 	addiu	t1,t1,0
bd001a30:	3c0abf88 	lui	t2,0xbf88
bd001a34:	254a2010 	addiu	t2,t2,8208
bd001a38:	ad490000 	sw	t1,0(t2)
bd001a3c:	3c090002 	lui	t1,0x2
bd001a40:	25290000 	addiu	t1,t1,0
bd001a44:	3c0abf88 	lui	t2,0xbf88
bd001a48:	254a2020 	addiu	t2,t2,8224
bd001a4c:	ad490000 	sw	t1,0(t2)
bd001a50:	3c090002 	lui	t1,0x2
bd001a54:	25290000 	addiu	t1,t1,0
bd001a58:	3c0abf88 	lui	t2,0xbf88
bd001a5c:	254a2030 	addiu	t2,t2,8240
bd001a60:	ad490000 	sw	t1,0(t2)

bd001a64 <_ramfunc_done>:
bd001a64:	40804800 	mtc0	zero,c0_count
bd001a68:	240affff 	li	t2,-1
bd001a6c:	408a5800 	mtc0	t2,c0_compare
bd001a70:	3c080040 	lui	t0,0x40
bd001a74:	400a6000 	mfc0	t2,c0_status
bd001a78:	010a5025 	or	t2,t0,t2
bd001a7c:	408a6000 	mtc0	t2,c0_status
bd001a80:	3c099d00 	lui	t1,0x9d00
bd001a84:	25290000 	addiu	t1,t1,0
bd001a88:	000000c0 	ehb
bd001a8c:	40897801 	mtc0	t1,c0_ebase
bd001a90:	3c090000 	lui	t1,0x0
bd001a94:	25290001 	addiu	t1,t1,1
bd001a98:	240a0000 	li	t2,0
bd001a9c:	7d2a4944 	ins	t2,t1,0x5,0x5
bd001aa0:	408a6001 	mtc0	t2,c0_intctl
bd001aa4:	3c090080 	lui	t1,0x80
bd001aa8:	40896800 	mtc0	t1,c0_cause
bd001aac:	40088000 	mfc0	t0,c0_config
bd001ab0:	7d090580 	ext	t1,t0,0x16,0x1
bd001ab4:	00094c40 	sll	t1,t1,0x11
bd001ab8:	40086000 	mfc0	t0,c0_status
bd001abc:	3c010058 	lui	at,0x58
bd001ac0:	01014024 	and	t0,t0,at
bd001ac4:	01284025 	or	t0,t1,t0
bd001ac8:	40886000 	mtc0	t0,c0_status
bd001acc:	000000c0 	ehb
bd001ad0:	3c089d01 	lui	t0,0x9d01
bd001ad4:	2508b790 	addiu	t0,t0,-18544
bd001ad8:	0100f809 	jalr	t0
bd001adc:	00000000 	nop
bd001ae0:	40086000 	mfc0	t0,c0_status
bd001ae4:	3c01ffbf 	lui	at,0xffbf
bd001ae8:	3421ffff 	ori	at,at,0xffff
bd001aec:	01014024 	and	t0,t0,at
bd001af0:	40886000 	mtc0	t0,c0_status
bd001af4:	30840000 	andi	a0,a0,0x0
bd001af8:	30a50000 	andi	a1,a1,0x0
bd001afc:	3c089d01 	lui	t0,0x9d01
bd001b00:	2508b0d0 	addiu	t0,t0,-20272
bd001b04:	01000008 	jr	t0
bd001b08:	00000000 	nop

Disassembly of section .bev_excpt:

bd001cf0 <_bev_exception>:
bd001cf0:	3c1a9d01 	lui	k0,0x9d01
bd001cf4:	275ab1c0 	addiu	k0,k0,-20032
bd001cf8:	03400008 	jr	k0
bd001cfc:	00000000 	nop

Disassembly of section .app_excpt:

9d000180 <_gen_exception>:
9d000180:	3c1a9d01 	lui	k0,0x9d01
9d000184:	275aa188 	addiu	k0,k0,-24184
9d000188:	03400008 	jr	k0
9d00018c:	00000000 	nop

Disassembly of section .vector_0:

9d000200 <__vector_dispatch_0>:
9d000200:	0b402c94 	j	9d00b250 <.LFE0>
9d000204:	00000000 	nop

Disassembly of section .vector_1:

9d000220 <__vector_dispatch_1>:
9d000220:	0b402c94 	j	9d00b250 <.LFE0>
9d000224:	00000000 	nop

Disassembly of section .vector_2:

9d000240 <__vector_dispatch_2>:
9d000240:	0b402c94 	j	9d00b250 <.LFE0>
9d000244:	00000000 	nop

Disassembly of section .vector_3:

9d000260 <__vector_dispatch_3>:
9d000260:	0b402c94 	j	9d00b250 <.LFE0>
9d000264:	00000000 	nop

Disassembly of section .vector_4:

9d000280 <__vector_dispatch_4>:
9d000280:	0b402c94 	j	9d00b250 <.LFE0>
9d000284:	00000000 	nop

Disassembly of section .vector_5:

9d0002a0 <__vector_dispatch_5>:
9d0002a0:	0b402c94 	j	9d00b250 <.LFE0>
9d0002a4:	00000000 	nop

Disassembly of section .vector_6:

9d0002c0 <__vector_dispatch_6>:
9d0002c0:	0b402c94 	j	9d00b250 <.LFE0>
9d0002c4:	00000000 	nop

Disassembly of section .vector_7:

9d0002e0 <__vector_dispatch_7>:
9d0002e0:	0b402c94 	j	9d00b250 <.LFE0>
9d0002e4:	00000000 	nop

Disassembly of section .vector_8:

9d000300 <__vector_dispatch_8>:
9d000300:	0b4011c0 	j	9d004700 <Timer2ISR>
9d000304:	00000000 	nop

Disassembly of section .vector_9:

9d000320 <__vector_dispatch_9>:
9d000320:	0b402c94 	j	9d00b250 <.LFE0>
9d000324:	00000000 	nop

Disassembly of section .vector_10:

9d000340 <__vector_dispatch_10>:
9d000340:	0b402c94 	j	9d00b250 <.LFE0>
9d000344:	00000000 	nop

Disassembly of section .vector_11:

9d000360 <__vector_dispatch_11>:
9d000360:	0b402c94 	j	9d00b250 <.LFE0>
9d000364:	00000000 	nop

Disassembly of section .vector_12:

9d000380 <__vector_dispatch_12>:
9d000380:	0b402c94 	j	9d00b250 <.LFE0>
9d000384:	00000000 	nop

Disassembly of section .vector_13:

9d0003a0 <__vector_dispatch_13>:
9d0003a0:	0b402c94 	j	9d00b250 <.LFE0>
9d0003a4:	00000000 	nop

Disassembly of section .vector_14:

9d0003c0 <__vector_dispatch_14>:
9d0003c0:	0b402c94 	j	9d00b250 <.LFE0>
9d0003c4:	00000000 	nop

Disassembly of section .vector_15:

9d0003e0 <__vector_dispatch_15>:
9d0003e0:	0b402c94 	j	9d00b250 <.LFE0>
9d0003e4:	00000000 	nop

Disassembly of section .vector_16:

9d000400 <__vector_dispatch_16>:
9d000400:	0b402c94 	j	9d00b250 <.LFE0>
9d000404:	00000000 	nop

Disassembly of section .vector_17:

9d000420 <__vector_dispatch_17>:
9d000420:	0b402c94 	j	9d00b250 <.LFE0>
9d000424:	00000000 	nop

Disassembly of section .vector_18:

9d000440 <__vector_dispatch_18>:
9d000440:	0b402c94 	j	9d00b250 <.LFE0>
9d000444:	00000000 	nop

Disassembly of section .vector_19:

9d000460 <__vector_dispatch_19>:
9d000460:	0b402c94 	j	9d00b250 <.LFE0>
9d000464:	00000000 	nop

Disassembly of section .vector_20:

9d000480 <__vector_dispatch_20>:
9d000480:	0b402c94 	j	9d00b250 <.LFE0>
9d000484:	00000000 	nop

Disassembly of section .vector_21:

9d0004a0 <__vector_dispatch_21>:
9d0004a0:	0b402c94 	j	9d00b250 <.LFE0>
9d0004a4:	00000000 	nop

Disassembly of section .vector_22:

9d0004c0 <__vector_dispatch_22>:
9d0004c0:	0b402c94 	j	9d00b250 <.LFE0>
9d0004c4:	00000000 	nop

Disassembly of section .vector_23:

9d0004e0 <__vector_dispatch_23>:
9d0004e0:	0b402c94 	j	9d00b250 <.LFE0>
9d0004e4:	00000000 	nop

Disassembly of section .vector_24:

9d000500 <__vector_dispatch_24>:
9d000500:	0b402c94 	j	9d00b250 <.LFE0>
9d000504:	00000000 	nop

Disassembly of section .vector_25:

9d000520 <__vector_dispatch_25>:
9d000520:	0b402c94 	j	9d00b250 <.LFE0>
9d000524:	00000000 	nop

Disassembly of section .vector_26:

9d000540 <__vector_dispatch_26>:
9d000540:	0b402c94 	j	9d00b250 <.LFE0>
9d000544:	00000000 	nop

Disassembly of section .vector_27:

9d000560 <__vector_dispatch_27>:
9d000560:	0b402c94 	j	9d00b250 <.LFE0>
9d000564:	00000000 	nop

Disassembly of section .vector_28:

9d000580 <__vector_dispatch_28>:
9d000580:	0b402c94 	j	9d00b250 <.LFE0>
9d000584:	00000000 	nop

Disassembly of section .vector_29:

9d0005a0 <__vector_dispatch_29>:
9d0005a0:	0b402c94 	j	9d00b250 <.LFE0>
9d0005a4:	00000000 	nop

Disassembly of section .vector_30:

9d0005c0 <__vector_dispatch_30>:
9d0005c0:	0b402c94 	j	9d00b250 <.LFE0>
9d0005c4:	00000000 	nop

Disassembly of section .vector_31:

9d0005e0 <__vector_dispatch_31>:
9d0005e0:	0b402c94 	j	9d00b250 <.LFE0>
9d0005e4:	00000000 	nop

Disassembly of section .vector_32:

9d000600 <__vector_dispatch_32>:
9d000600:	0b402c94 	j	9d00b250 <.LFE0>
9d000604:	00000000 	nop

Disassembly of section .vector_33:

9d000620 <__vector_dispatch_33>:
9d000620:	0b402c94 	j	9d00b250 <.LFE0>
9d000624:	00000000 	nop

Disassembly of section .vector_34:

9d000640 <__vector_dispatch_34>:
9d000640:	0b402c94 	j	9d00b250 <.LFE0>
9d000644:	00000000 	nop

Disassembly of section .vector_35:

9d000660 <__vector_dispatch_35>:
9d000660:	0b402c94 	j	9d00b250 <.LFE0>
9d000664:	00000000 	nop

Disassembly of section .vector_36:

9d000680 <__vector_dispatch_36>:
9d000680:	0b402c94 	j	9d00b250 <.LFE0>
9d000684:	00000000 	nop

Disassembly of section .vector_37:

9d0006a0 <__vector_dispatch_37>:
9d0006a0:	0b402c94 	j	9d00b250 <.LFE0>
9d0006a4:	00000000 	nop

Disassembly of section .vector_38:

9d0006c0 <__vector_dispatch_38>:
9d0006c0:	0b402c94 	j	9d00b250 <.LFE0>
9d0006c4:	00000000 	nop

Disassembly of section .vector_39:

9d0006e0 <__vector_dispatch_39>:
9d0006e0:	0b402c94 	j	9d00b250 <.LFE0>
9d0006e4:	00000000 	nop

Disassembly of section .vector_40:

9d000700 <__vector_dispatch_40>:
9d000700:	0b402c94 	j	9d00b250 <.LFE0>
9d000704:	00000000 	nop

Disassembly of section .vector_41:

9d000720 <__vector_dispatch_41>:
9d000720:	0b402c94 	j	9d00b250 <.LFE0>
9d000724:	00000000 	nop

Disassembly of section .vector_42:

9d000740 <__vector_dispatch_42>:
9d000740:	0b402c94 	j	9d00b250 <.LFE0>
9d000744:	00000000 	nop

Disassembly of section .vector_43:

9d000760 <__vector_dispatch_43>:
9d000760:	0b402c94 	j	9d00b250 <.LFE0>
9d000764:	00000000 	nop

Disassembly of section .vector_44:

9d000780 <__vector_dispatch_44>:
9d000780:	0b402c94 	j	9d00b250 <.LFE0>
9d000784:	00000000 	nop

Disassembly of section .vector_45:

9d0007a0 <__vector_dispatch_45>:
9d0007a0:	0b402c94 	j	9d00b250 <.LFE0>
9d0007a4:	00000000 	nop

Disassembly of section .vector_46:

9d0007c0 <__vector_dispatch_46>:
9d0007c0:	0b402c94 	j	9d00b250 <.LFE0>
9d0007c4:	00000000 	nop

Disassembly of section .vector_47:

9d0007e0 <__vector_dispatch_47>:
9d0007e0:	0b402c94 	j	9d00b250 <.LFE0>
9d0007e4:	00000000 	nop

Disassembly of section .vector_48:

9d000800 <__vector_dispatch_48>:
9d000800:	0b402c94 	j	9d00b250 <.LFE0>
9d000804:	00000000 	nop

Disassembly of section .vector_49:

9d000820 <__vector_dispatch_49>:
9d000820:	0b402c94 	j	9d00b250 <.LFE0>
9d000824:	00000000 	nop

Disassembly of section .vector_50:

9d000840 <__vector_dispatch_50>:
9d000840:	0b402c94 	j	9d00b250 <.LFE0>
9d000844:	00000000 	nop

Disassembly of section .vector_51:

9d000860 <__vector_dispatch_51>:
9d000860:	0b402c94 	j	9d00b250 <.LFE0>
9d000864:	00000000 	nop

Disassembly of section ._debug_exception:

bfc00480 <__DbgExecReturn>:
bfc00480:	409bf800 	mtc0	k1,c0_desave
bfc00484:	000000c0 	ehb
bfc00488:	3c1b9d01 	lui	k1,0x9d01
bfc0048c:	277bb2e0 	addiu	k1,k1,-19744
bfc00490:	13600002 	beqz	k1,bfc0049c <__DbgExecReturn+0x1c>
bfc00494:	00000000 	nop
bfc00498:	409bc000 	mtc0	k1,c0_depc
bfc0049c:	401bf800 	mfc0	k1,c0_desave
bfc004a0:	000000c0 	ehb
bfc004a4:	4200001f 	deret
bfc004a8:	00000000 	nop

Disassembly of section .text.do_scan:

9d001e00 <do_scan>:
9d001e00:	27bdff00 	addiu	sp,sp,-256
9d001e04:	afbf00fc 	sw	ra,252(sp)
9d001e08:	afbe00f8 	sw	s8,248(sp)
9d001e0c:	afb700f4 	sw	s7,244(sp)
9d001e10:	afb600f0 	sw	s6,240(sp)
9d001e14:	afb500ec 	sw	s5,236(sp)
9d001e18:	afb400e8 	sw	s4,232(sp)
9d001e1c:	afb300e4 	sw	s3,228(sp)
9d001e20:	afb200e0 	sw	s2,224(sp)
9d001e24:	afb100dc 	sw	s1,220(sp)
9d001e28:	afb000d8 	sw	s0,216(sp)
9d001e2c:	00809821 	move	s3,a0
9d001e30:	8c820018 	lw	v0,24(a0)
9d001e34:	00a08021 	move	s0,a1
9d001e38:	24050002 	li	a1,2
9d001e3c:	8c420010 	lw	v0,16(v0)
9d001e40:	0040f809 	jalr	v0
9d001e44:	00c08821 	move	s1,a2
9d001e48:	104000a2 	beqz	v0,9d0020d4 <do_scan+0x2d4>
9d001e4c:	2402ffff 	li	v0,-1
9d001e50:	afb30098 	sw	s3,152(sp)
9d001e54:	afa2009c 	sw	v0,156(sp)
9d001e58:	afb100a4 	sw	s1,164(sp)
9d001e5c:	afa000ac 	sw	zero,172(sp)
9d001e60:	afa000b0 	sw	zero,176(sp)
9d001e64:	afa000a8 	sw	zero,168(sp)
9d001e68:	02002821 	move	a1,s0
9d001e6c:	0000f021 	move	s8,zero
9d001e70:	3c109d01 	lui	s0,0x9d01
9d001e74:	26109b9d 	addiu	s0,s0,-25699
9d001e78:	3c159d00 	lui	s5,0x9d00
9d001e7c:	24a20001 	addiu	v0,a1,1
9d001e80:	afa200a0 	sw	v0,160(sp)
9d001e84:	80b10000 	lb	s1,0(a1)
9d001e88:	12200012 	beqz	s1,9d001ed4 <do_scan+0xd4>
9d001e8c:	26b51ff8 	addiu	s5,s5,8184
9d001e90:	17c00010 	bnez	s8,9d001ed4 <do_scan+0xd4>
9d001e94:	24020025 	li	v0,37
9d001e98:	12220033 	beq	s1,v0,9d001f68 <do_scan+0x168>
9d001e9c:	02301021 	addu	v0,s1,s0
9d001ea0:	80420000 	lb	v0,0(v0)
9d001ea4:	30420088 	andi	v0,v0,0x88
9d001ea8:	10400021 	beqz	v0,9d001f30 <do_scan+0x130>
9d001eac:	27a40098 	addiu	a0,sp,152
9d001eb0:	0f4029d0 	jal	9d00a740 <_eat_white>
9d001eb4:	00000000 	nop
9d001eb8:	0040f021 	move	s8,v0
9d001ebc:	8fa500a0 	lw	a1,160(sp)
9d001ec0:	24a20001 	addiu	v0,a1,1
9d001ec4:	afa200a0 	sw	v0,160(sp)
9d001ec8:	80b10000 	lb	s1,0(a1)
9d001ecc:	1620fff0 	bnez	s1,9d001e90 <do_scan+0x90>
9d001ed0:	00000000 	nop
9d001ed4:	8fa4009c 	lw	a0,156(sp)
9d001ed8:	2402ffff 	li	v0,-1
9d001edc:	10820005 	beq	a0,v0,9d001ef4 <do_scan+0xf4>
9d001ee0:	00000000 	nop
9d001ee4:	96620010 	lhu	v0,16(s3)
9d001ee8:	30420080 	andi	v0,v0,0x80
9d001eec:	1040008d 	beqz	v0,9d002124 <do_scan+0x324>
9d001ef0:	2402ffff 	li	v0,-1
9d001ef4:	13c20075 	beq	s8,v0,9d0020cc <do_scan+0x2cc>
9d001ef8:	8fa200ac 	lw	v0,172(sp)
9d001efc:	8fa200b0 	lw	v0,176(sp)
9d001f00:	8fbf00fc 	lw	ra,252(sp)
9d001f04:	8fbe00f8 	lw	s8,248(sp)
9d001f08:	8fb700f4 	lw	s7,244(sp)
9d001f0c:	8fb600f0 	lw	s6,240(sp)
9d001f10:	8fb500ec 	lw	s5,236(sp)
9d001f14:	8fb400e8 	lw	s4,232(sp)
9d001f18:	8fb300e4 	lw	s3,228(sp)
9d001f1c:	8fb200e0 	lw	s2,224(sp)
9d001f20:	8fb100dc 	lw	s1,220(sp)
9d001f24:	8fb000d8 	lw	s0,216(sp)
9d001f28:	03e00008 	jr	ra
9d001f2c:	27bd0100 	addiu	sp,sp,256
9d001f30:	0f402bea 	jal	9d00afa8 <gsgetc>
9d001f34:	00000000 	nop
9d001f38:	2403ffff 	li	v1,-1
9d001f3c:	504301cf 	beql	v0,v1,9d00267c <do_scan+0x87c>
9d001f40:	241effff 	li	s8,-1
9d001f44:	5222ffde 	beql	s1,v0,9d001ec0 <do_scan+0xc0>
9d001f48:	8fa500a0 	lw	a1,160(sp)
9d001f4c:	afa2009c 	sw	v0,156(sp)
9d001f50:	241e0001 	li	s8,1
9d001f54:	8fa200a8 	lw	v0,168(sp)
9d001f58:	2442ffff 	addiu	v0,v0,-1
9d001f5c:	afa200a8 	sw	v0,168(sp)
9d001f60:	0b4007b0 	j	9d001ec0 <do_scan+0xc0>
9d001f64:	8fa500a0 	lw	a1,160(sp)
9d001f68:	24a20002 	addiu	v0,a1,2
9d001f6c:	afa200a0 	sw	v0,160(sp)
9d001f70:	80b20001 	lb	s2,1(a1)
9d001f74:	125101a2 	beq	s2,s1,9d002600 <do_scan+0x800>
9d001f78:	2402002a 	li	v0,42
9d001f7c:	124200dd 	beq	s2,v0,9d0022f4 <do_scan+0x4f4>
9d001f80:	00008821 	move	s1,zero
9d001f84:	02121021 	addu	v0,s0,s2
9d001f88:	90420000 	lbu	v0,0(v0)
9d001f8c:	30420004 	andi	v0,v0,0x4
9d001f90:	144000c1 	bnez	v0,9d002298 <do_scan+0x498>
9d001f94:	3c167fff 	lui	s6,0x7fff
9d001f98:	36d6ffff 	ori	s6,s6,0xffff
9d001f9c:	24020068 	li	v0,104
9d001fa0:	124200cc 	beq	s2,v0,9d0022d4 <do_scan+0x4d4>
9d001fa4:	afb600d0 	sw	s6,208(sp)
9d001fa8:	2a420069 	slti	v0,s2,105
9d001fac:	144000b2 	bnez	v0,9d002278 <do_scan+0x478>
9d001fb0:	2402006c 	li	v0,108
9d001fb4:	12420054 	beq	s2,v0,9d002108 <do_scan+0x308>
9d001fb8:	8fa300a0 	lw	v1,160(sp)
9d001fbc:	24020071 	li	v0,113
9d001fc0:	16420005 	bne	s2,v0,9d001fd8 <do_scan+0x1d8>
9d001fc4:	8fa200a0 	lw	v0,160(sp)
9d001fc8:	36310800 	ori	s1,s1,0x800
9d001fcc:	24430001 	addiu	v1,v0,1
9d001fd0:	afa300a0 	sw	v1,160(sp)
9d001fd4:	80520000 	lb	s2,0(v0)
9d001fd8:	2652ffbc 	addiu	s2,s2,-68
9d001fdc:	2e420035 	sltiu	v0,s2,53
9d001fe0:	104001bf 	beqz	v0,9d0026e0 <do_scan+0x8e0>
9d001fe4:	00129080 	sll	s2,s2,0x2
9d001fe8:	02b29021 	addu	s2,s5,s2
9d001fec:	8e420000 	lw	v0,0(s2)
9d001ff0:	00400008 	jr	v0
9d001ff4:	00000000 	nop
9d001ff8:	9d002140 	0x9d002140
9d001ffc:	9d002410 	0x9d002410
9d002000:	9d002410 	0x9d002410
9d002004:	9d002410 	0x9d002410
9d002008:	9d0026e0 	0x9d0026e0
9d00200c:	9d0026e0 	0x9d0026e0
9d002010:	9d0026e0 	0x9d0026e0
9d002014:	9d0026e0 	0x9d0026e0
9d002018:	9d0026e0 	0x9d0026e0
9d00201c:	9d0026e0 	0x9d0026e0
9d002020:	9d0026e0 	0x9d0026e0
9d002024:	9d002400 	0x9d002400
9d002028:	9d0026e0 	0x9d0026e0
9d00202c:	9d0026e0 	0x9d0026e0
9d002030:	9d0026e0 	0x9d0026e0
9d002034:	9d0026e0 	0x9d0026e0
9d002038:	9d0026e0 	0x9d0026e0
9d00203c:	9d0023f0 	0x9d0023f0
9d002040:	9d0026e0 	0x9d0026e0
9d002044:	9d0026e0 	0x9d0026e0
9d002048:	9d0023e4 	0x9d0023e4
9d00204c:	9d0026e0 	0x9d0026e0
9d002050:	9d0026e0 	0x9d0026e0
9d002054:	9d002354 	0x9d002354
9d002058:	9d0026e0 	0x9d0026e0
9d00205c:	9d0026e0 	0x9d0026e0
9d002060:	9d0026e0 	0x9d0026e0
9d002064:	9d0026e0 	0x9d0026e0
9d002068:	9d0026e0 	0x9d0026e0
9d00206c:	9d0026e0 	0x9d0026e0
9d002070:	9d0026e0 	0x9d0026e0
9d002074:	9d002314 	0x9d002314
9d002078:	9d002144 	0x9d002144
9d00207c:	9d002410 	0x9d002410
9d002080:	9d002410 	0x9d002410
9d002084:	9d002410 	0x9d002410
9d002088:	9d0026e0 	0x9d0026e0
9d00208c:	9d00237c 	0x9d00237c
9d002090:	9d0026e0 	0x9d0026e0
9d002094:	9d0026e0 	0x9d0026e0
9d002098:	9d0026e0 	0x9d0026e0
9d00209c:	9d0026e0 	0x9d0026e0
9d0020a0:	9d002388 	0x9d002388
9d0020a4:	9d002308 	0x9d002308
9d0020a8:	9d0023e4 	0x9d0023e4
9d0020ac:	9d0026e0 	0x9d0026e0
9d0020b0:	9d0026e0 	0x9d0026e0
9d0020b4:	9d0023c4 	0x9d0023c4
9d0020b8:	9d0026e0 	0x9d0026e0
9d0020bc:	9d002148 	0x9d002148
9d0020c0:	9d0026e0 	0x9d0026e0
9d0020c4:	9d0026e0 	0x9d0026e0
9d0020c8:	9d0023e4 	0x9d0023e4
9d0020cc:	1440ff8c 	bnez	v0,9d001f00 <do_scan+0x100>
9d0020d0:	8fa200b0 	lw	v0,176(sp)
9d0020d4:	2402ffff 	li	v0,-1
9d0020d8:	8fbf00fc 	lw	ra,252(sp)
9d0020dc:	8fbe00f8 	lw	s8,248(sp)
9d0020e0:	8fb700f4 	lw	s7,244(sp)
9d0020e4:	8fb600f0 	lw	s6,240(sp)
9d0020e8:	8fb500ec 	lw	s5,236(sp)
9d0020ec:	8fb400e8 	lw	s4,232(sp)
9d0020f0:	8fb300e4 	lw	s3,228(sp)
9d0020f4:	8fb200e0 	lw	s2,224(sp)
9d0020f8:	8fb100dc 	lw	s1,220(sp)
9d0020fc:	8fb000d8 	lw	s0,216(sp)
9d002100:	03e00008 	jr	ra
9d002104:	27bd0100 	addiu	sp,sp,256
9d002108:	24640001 	addiu	a0,v1,1
9d00210c:	afa400a0 	sw	a0,160(sp)
9d002110:	80720000 	lb	s2,0(v1)
9d002114:	12420119 	beq	s2,v0,9d00257c <do_scan+0x77c>
9d002118:	24620002 	addiu	v0,v1,2
9d00211c:	0b4007f6 	j	9d001fd8 <do_scan+0x1d8>
9d002120:	36310200 	ori	s1,s1,0x200
9d002124:	0f4025c4 	jal	9d009710 <ungetc>
9d002128:	8fa50098 	lw	a1,152(sp)
9d00212c:	2402ffff 	li	v0,-1
9d002130:	57c2ff73 	bnel	s8,v0,9d001f00 <do_scan+0x100>
9d002134:	8fa200b0 	lw	v0,176(sp)
9d002138:	0b400833 	j	9d0020cc <do_scan+0x2cc>
9d00213c:	8fa200ac 	lw	v0,172(sp)
9d002140:	36310200 	ori	s1,s1,0x200
9d002144:	36311000 	ori	s1,s1,0x1000
9d002148:	2403000a 	li	v1,10
9d00214c:	afa300d4 	sw	v1,212(sp)
9d002150:	0f4029d0 	jal	9d00a740 <_eat_white>
9d002154:	27a40098 	addiu	a0,sp,152
9d002158:	1440ff58 	bnez	v0,9d001ebc <do_scan+0xbc>
9d00215c:	0040f021 	move	s8,v0
9d002160:	27a40018 	addiu	a0,sp,24
9d002164:	afa400cc 	sw	a0,204(sp)
9d002168:	8fa200d0 	lw	v0,208(sp)
9d00216c:	1440010b 	bnez	v0,9d00259c <do_scan+0x79c>
9d002170:	00009021 	move	s2,zero
9d002174:	27b60018 	addiu	s6,sp,24
9d002178:	8fa300d4 	lw	v1,212(sp)
9d00217c:	106000fa 	beqz	v1,9d002568 <do_scan+0x768>
9d002180:	2417ffff 	li	s7,-1
9d002184:	24020010 	li	v0,16
9d002188:	8fa300d4 	lw	v1,212(sp)
9d00218c:	1062015a 	beq	v1,v0,9d0026f8 <do_scan+0x8f8>
9d002190:	24020030 	li	v0,48
9d002194:	24020008 	li	v0,8
9d002198:	8fa300d4 	lw	v1,212(sp)
9d00219c:	146200f5 	bne	v1,v0,9d002574 <do_scan+0x774>
9d0021a0:	3c029d01 	lui	v0,0x9d01
9d0021a4:	24030008 	li	v1,8
9d0021a8:	afa300d4 	sw	v1,212(sp)
9d0021ac:	3c049d01 	lui	a0,0x9d01
9d0021b0:	2494b4fc 	addiu	s4,a0,-19204
9d0021b4:	2403ffff 	li	v1,-1
9d0021b8:	12e30009 	beq	s7,v1,9d0021e0 <do_scan+0x3e0>
9d0021bc:	02802021 	move	a0,s4
9d0021c0:	0f4027e9 	jal	9d009fa4 <strchr>
9d0021c4:	02e02821 	move	a1,s7
9d0021c8:	1040011d 	beqz	v0,9d002640 <do_scan+0x840>
9d0021cc:	26c20001 	addiu	v0,s6,1
9d0021d0:	afa200cc 	sw	v0,204(sp)
9d0021d4:	16400121 	bnez	s2,9d00265c <do_scan+0x85c>
9d0021d8:	a2d70000 	sb	s7,0(s6)
9d0021dc:	8fb600cc 	lw	s6,204(sp)
9d0021e0:	a2c00000 	sb	zero,0(s6)
9d0021e4:	2417ffff 	li	s7,-1
9d0021e8:	32340800 	andi	s4,s1,0x800
9d0021ec:	32361000 	andi	s6,s1,0x1000
9d0021f0:	27a40018 	addiu	a0,sp,24
9d0021f4:	27a500cc 	addiu	a1,sp,204
9d0021f8:	1280010a 	beqz	s4,9d002624 <do_scan+0x824>
9d0021fc:	8fa600d4 	lw	a2,212(sp)
9d002200:	12c00126 	beqz	s6,9d00269c <do_scan+0x89c>
9d002204:	00000000 	nop
9d002208:	0f401cd7 	jal	9d00735c <.LFE23>
9d00220c:	00000000 	nop
9d002210:	00402021 	move	a0,v0
9d002214:	00602821 	move	a1,v1
9d002218:	00001021 	move	v0,zero
9d00221c:	8fa300ac 	lw	v1,172(sp)
9d002220:	24630001 	addiu	v1,v1,1
9d002224:	afa300ac 	sw	v1,172(sp)
9d002228:	8fa300d0 	lw	v1,208(sp)
9d00222c:	10720115 	beq	v1,s2,9d002684 <do_scan+0x884>
9d002230:	32230001 	andi	v1,s1,0x1
9d002234:	5460ff22 	bnezl	v1,9d001ec0 <do_scan+0xc0>
9d002238:	8fa500a0 	lw	a1,160(sp)
9d00223c:	56800122 	bnezl	s4,9d0026c8 <do_scan+0x8c8>
9d002240:	8fa200a4 	lw	v0,164(sp)
9d002244:	32230200 	andi	v1,s1,0x200
9d002248:	10600171 	beqz	v1,9d002810 <do_scan+0xa10>
9d00224c:	32230100 	andi	v1,s1,0x100
9d002250:	8fa300a4 	lw	v1,164(sp)
9d002254:	24640004 	addiu	a0,v1,4
9d002258:	afa400a4 	sw	a0,164(sp)
9d00225c:	8c630000 	lw	v1,0(v1)
9d002260:	ac620000 	sw	v0,0(v1)
9d002264:	8fa200b0 	lw	v0,176(sp)
9d002268:	24420001 	addiu	v0,v0,1
9d00226c:	afa200b0 	sw	v0,176(sp)
9d002270:	0b4007b0 	j	9d001ec0 <do_scan+0xc0>
9d002274:	8fa500a0 	lw	a1,160(sp)
9d002278:	2402004c 	li	v0,76
9d00227c:	1642ff56 	bne	s2,v0,9d001fd8 <do_scan+0x1d8>
9d002280:	8fa200a0 	lw	v0,160(sp)
9d002284:	36310400 	ori	s1,s1,0x400
9d002288:	24430001 	addiu	v1,v0,1
9d00228c:	afa300a0 	sw	v1,160(sp)
9d002290:	0b4007f6 	j	9d001fd8 <do_scan+0x1d8>
9d002294:	80520000 	lb	s2,0(v0)
9d002298:	27a500a0 	addiu	a1,sp,160
9d00229c:	2406000a 	li	a2,10
9d0022a0:	8fa200a0 	lw	v0,160(sp)
9d0022a4:	2442ffff 	addiu	v0,v0,-1
9d0022a8:	00402021 	move	a0,v0
9d0022ac:	0f4020be 	jal	9d0082f8 <strtoul>
9d0022b0:	afa200a0 	sw	v0,160(sp)
9d0022b4:	afa200d0 	sw	v0,208(sp)
9d0022b8:	8fa200a0 	lw	v0,160(sp)
9d0022bc:	24430001 	addiu	v1,v0,1
9d0022c0:	afa300a0 	sw	v1,160(sp)
9d0022c4:	80520000 	lb	s2,0(v0)
9d0022c8:	24020068 	li	v0,104
9d0022cc:	5642ff37 	bnel	s2,v0,9d001fac <do_scan+0x1ac>
9d0022d0:	2a420069 	slti	v0,s2,105
9d0022d4:	8fa300a0 	lw	v1,160(sp)
9d0022d8:	24640001 	addiu	a0,v1,1
9d0022dc:	afa400a0 	sw	a0,160(sp)
9d0022e0:	80720000 	lb	s2,0(v1)
9d0022e4:	124200a9 	beq	s2,v0,9d00258c <do_scan+0x78c>
9d0022e8:	24620002 	addiu	v0,v1,2
9d0022ec:	0b4007f6 	j	9d001fd8 <do_scan+0x1d8>
9d0022f0:	36310100 	ori	s1,s1,0x100
9d0022f4:	24a20003 	addiu	v0,a1,3
9d0022f8:	afa200a0 	sw	v0,160(sp)
9d0022fc:	80b20002 	lb	s2,2(a1)
9d002300:	0b4007e1 	j	9d001f84 <do_scan+0x184>
9d002304:	24110001 	li	s1,1
9d002308:	24030008 	li	v1,8
9d00230c:	0b400854 	j	9d002150 <do_scan+0x350>
9d002310:	afa300d4 	sw	v1,212(sp)
9d002314:	3c077fff 	lui	a3,0x7fff
9d002318:	34e7ffff 	ori	a3,a3,0xffff
9d00231c:	8fa300d0 	lw	v1,208(sp)
9d002320:	00673826 	xor	a3,v1,a3
9d002324:	27a20098 	addiu	v0,sp,152
9d002328:	afa20010 	sw	v0,16(sp)
9d00232c:	00002021 	move	a0,zero
9d002330:	00002821 	move	a1,zero
9d002334:	02203021 	move	a2,s1
9d002338:	24020001 	li	v0,1
9d00233c:	0047180a 	movz	v1,v0,a3
9d002340:	0f40201d 	jal	9d008074 <_strtostr>
9d002344:	00603821 	move	a3,v1
9d002348:	0040f021 	move	s8,v0
9d00234c:	0b4007b0 	j	9d001ec0 <do_scan+0xc0>
9d002350:	8fa500a0 	lw	a1,160(sp)
9d002354:	27a20098 	addiu	v0,sp,152
9d002358:	afa20010 	sw	v0,16(sp)
9d00235c:	24040002 	li	a0,2
9d002360:	24050001 	li	a1,1
9d002364:	02203021 	move	a2,s1
9d002368:	0f40201d 	jal	9d008074 <_strtostr>
9d00236c:	8fa700d0 	lw	a3,208(sp)
9d002370:	0040f021 	move	s8,v0
9d002374:	0b4007b0 	j	9d001ec0 <do_scan+0xc0>
9d002378:	8fa500a0 	lw	a1,160(sp)
9d00237c:	36311000 	ori	s1,s1,0x1000
9d002380:	0b400854 	j	9d002150 <do_scan+0x350>
9d002384:	afa000d4 	sw	zero,212(sp)
9d002388:	32220001 	andi	v0,s1,0x1
9d00238c:	1440fecc 	bnez	v0,9d001ec0 <do_scan+0xc0>
9d002390:	8fa500a0 	lw	a1,160(sp)
9d002394:	32230800 	andi	v1,s1,0x800
9d002398:	10600113 	beqz	v1,9d0027e8 <do_scan+0x9e8>
9d00239c:	8fa200a8 	lw	v0,168(sp)
9d0023a0:	8fa300a4 	lw	v1,164(sp)
9d0023a4:	000227c3 	sra	a0,v0,0x1f
9d0023a8:	24650004 	addiu	a1,v1,4
9d0023ac:	afa500a4 	sw	a1,164(sp)
9d0023b0:	8c630000 	lw	v1,0(v1)
9d0023b4:	ac620000 	sw	v0,0(v1)
9d0023b8:	ac640004 	sw	a0,4(v1)
9d0023bc:	0b4007b0 	j	9d001ec0 <do_scan+0xc0>
9d0023c0:	8fa500a0 	lw	a1,160(sp)
9d0023c4:	0f4029d0 	jal	9d00a740 <_eat_white>
9d0023c8:	27a40098 	addiu	a0,sp,152
9d0023cc:	1440febb 	bnez	v0,9d001ebc <do_scan+0xbc>
9d0023d0:	0040f021 	move	s8,v0
9d0023d4:	27a20098 	addiu	v0,sp,152
9d0023d8:	afa20010 	sw	v0,16(sp)
9d0023dc:	0b4008d8 	j	9d002360 <do_scan+0x560>
9d0023e0:	24040001 	li	a0,1
9d0023e4:	24030010 	li	v1,16
9d0023e8:	0b400854 	j	9d002150 <do_scan+0x350>
9d0023ec:	afa300d4 	sw	v1,212(sp)
9d0023f0:	36310200 	ori	s1,s1,0x200
9d0023f4:	2403000a 	li	v1,10
9d0023f8:	0b400854 	j	9d002150 <do_scan+0x350>
9d0023fc:	afa300d4 	sw	v1,212(sp)
9d002400:	36310200 	ori	s1,s1,0x200
9d002404:	24030008 	li	v1,8
9d002408:	0b400854 	j	9d002150 <do_scan+0x350>
9d00240c:	afa300d4 	sw	v1,212(sp)
9d002410:	0f4029d0 	jal	9d00a740 <_eat_white>
9d002414:	27a40098 	addiu	a0,sp,152
9d002418:	1440fea8 	bnez	v0,9d001ebc <do_scan+0xbc>
9d00241c:	0040f021 	move	s8,v0
9d002420:	8fa400d0 	lw	a0,208(sp)
9d002424:	afa400b8 	sw	a0,184(sp)
9d002428:	27a20098 	addiu	v0,sp,152
9d00242c:	afa200b4 	sw	v0,180(sp)
9d002430:	27a20018 	addiu	v0,sp,24
9d002434:	afa200bc 	sw	v0,188(sp)
9d002438:	afa000c0 	sw	zero,192(sp)
9d00243c:	24020080 	li	v0,128
9d002440:	afa200c4 	sw	v0,196(sp)
9d002444:	1480010a 	bnez	a0,9d002870 <do_scan+0xa70>
9d002448:	afa000c8 	sw	zero,200(sp)
9d00244c:	3c049d01 	lui	a0,0x9d01
9d002450:	24829b9c 	addiu	v0,a0,-25700
9d002454:	2416ffff 	li	s6,-1
9d002458:	0000a021 	move	s4,zero
9d00245c:	0b40091d 	j	9d002474 <do_scan+0x674>
9d002460:	27b200b4 	addiu	s2,sp,180
9d002464:	0f4026a4 	jal	9d009a90 <putget.2782>
9d002468:	02c02021 	move	a0,s6
9d00246c:	0040b021 	move	s6,v0
9d002470:	02021021 	addu	v0,s0,v0
9d002474:	90420000 	lbu	v0,0(v0)
9d002478:	30420004 	andi	v0,v0,0x4
9d00247c:	1440fff9 	bnez	v0,9d002464 <do_scan+0x664>
9d002480:	02407821 	move	t7,s2
9d002484:	2402002e 	li	v0,46
9d002488:	12c20136 	beq	s6,v0,9d002964 <do_scan+0xb64>
9d00248c:	8fa200c8 	lw	v0,200(sp)
9d002490:	00541023 	subu	v0,v0,s4
9d002494:	18400005 	blez	v0,9d0024ac <do_scan+0x6ac>
9d002498:	2404ffdf 	li	a0,-33
9d00249c:	02c41824 	and	v1,s6,a0
9d0024a0:	24020045 	li	v0,69
9d0024a4:	1062010b 	beq	v1,v0,9d0028d4 <do_scan+0xad4>
9d0024a8:	02407821 	move	t7,s2
9d0024ac:	02407821 	move	t7,s2
9d0024b0:	0f4026a4 	jal	9d009a90 <putget.2782>
9d0024b4:	00002021 	move	a0,zero
9d0024b8:	2402ffff 	li	v0,-1
9d0024bc:	12c20008 	beq	s6,v0,9d0024e0 <do_scan+0x6e0>
9d0024c0:	8fa200b4 	lw	v0,180(sp)
9d0024c4:	8c430010 	lw	v1,16(v0)
9d0024c8:	8fa400b8 	lw	a0,184(sp)
9d0024cc:	24840001 	addiu	a0,a0,1
9d0024d0:	afa400b8 	sw	a0,184(sp)
9d0024d4:	2463ffff 	addiu	v1,v1,-1
9d0024d8:	ac560004 	sw	s6,4(v0)
9d0024dc:	ac430010 	sw	v1,16(v0)
9d0024e0:	8fa200c8 	lw	v0,200(sp)
9d0024e4:	0054a023 	subu	s4,v0,s4
9d0024e8:	1a8000f8 	blez	s4,9d0028cc <do_scan+0xacc>
9d0024ec:	8fa200b4 	lw	v0,180(sp)
9d0024f0:	32230001 	andi	v1,s1,0x1
9d0024f4:	8c440014 	lw	a0,20(v0)
9d0024f8:	24840001 	addiu	a0,a0,1
9d0024fc:	14600012 	bnez	v1,9d002548 <do_scan+0x748>
9d002500:	ac440014 	sw	a0,20(v0)
9d002504:	32230400 	andi	v1,s1,0x400
9d002508:	1460012a 	bnez	v1,9d0029b4 <do_scan+0xbb4>
9d00250c:	8fa400bc 	lw	a0,188(sp)
9d002510:	32310200 	andi	s1,s1,0x200
9d002514:	8c43000c 	lw	v1,12(v0)
9d002518:	00002821 	move	a1,zero
9d00251c:	24660004 	addiu	a2,v1,4
9d002520:	1220011d 	beqz	s1,9d002998 <do_scan+0xb98>
9d002524:	ac46000c 	sw	a2,12(v0)
9d002528:	0f402d9e 	jal	9d00b678 <strtod>
9d00252c:	8c710000 	lw	s1,0(v1)
9d002530:	ae220000 	sw	v0,0(s1)
9d002534:	ae230004 	sw	v1,4(s1)
9d002538:	8fa200b4 	lw	v0,180(sp)
9d00253c:	8c430018 	lw	v1,24(v0)
9d002540:	24630001 	addiu	v1,v1,1
9d002544:	ac430018 	sw	v1,24(v0)
9d002548:	8fa400c0 	lw	a0,192(sp)
9d00254c:	5080fe5c 	beqzl	a0,9d001ec0 <do_scan+0xc0>
9d002550:	8fa500a0 	lw	a1,160(sp)
9d002554:	0f40215e 	jal	9d008578 <free>
9d002558:	00000000 	nop
9d00255c:	0b4007b0 	j	9d001ec0 <do_scan+0xc0>
9d002560:	8fa500a0 	lw	a1,160(sp)
9d002564:	2417ffff 	li	s7,-1
9d002568:	2403000a 	li	v1,10
9d00256c:	afa300d4 	sw	v1,212(sp)
9d002570:	3c029d01 	lui	v0,0x9d01
9d002574:	0b40086d 	j	9d0021b4 <do_scan+0x3b4>
9d002578:	2454b520 	addiu	s4,v0,-19168
9d00257c:	afa200a0 	sw	v0,160(sp)
9d002580:	80720001 	lb	s2,1(v1)
9d002584:	0b4007f6 	j	9d001fd8 <do_scan+0x1d8>
9d002588:	36310800 	ori	s1,s1,0x800
9d00258c:	afa200a0 	sw	v0,160(sp)
9d002590:	80720001 	lb	s2,1(v1)
9d002594:	0b4007f6 	j	9d001fd8 <do_scan+0x1d8>
9d002598:	36310080 	ori	s1,s1,0x80
9d00259c:	0f402bea 	jal	9d00afa8 <gsgetc>
9d0025a0:	27a40098 	addiu	a0,sp,152
9d0025a4:	0040b821 	move	s7,v0
9d0025a8:	2402ffff 	li	v0,-1
9d0025ac:	12e2004f 	beq	s7,v0,9d0026ec <do_scan+0x8ec>
9d0025b0:	8fa300d0 	lw	v1,208(sp)
9d0025b4:	2402002b 	li	v0,43
9d0025b8:	16e2010a 	bne	s7,v0,9d0029e4 <do_scan+0xbe4>
9d0025bc:	2472ffff 	addiu	s2,v1,-1
9d0025c0:	8fa200cc 	lw	v0,204(sp)
9d0025c4:	24430001 	addiu	v1,v0,1
9d0025c8:	afa300cc 	sw	v1,204(sp)
9d0025cc:	16400063 	bnez	s2,9d00275c <do_scan+0x95c>
9d0025d0:	a0570000 	sb	s7,0(v0)
9d0025d4:	8fa300d4 	lw	v1,212(sp)
9d0025d8:	1060ffe2 	beqz	v1,9d002564 <do_scan+0x764>
9d0025dc:	8fb600cc 	lw	s6,204(sp)
9d0025e0:	24020010 	li	v0,16
9d0025e4:	1462feeb 	bne	v1,v0,9d002194 <do_scan+0x394>
9d0025e8:	2417ffff 	li	s7,-1
9d0025ec:	24030010 	li	v1,16
9d0025f0:	afa300d4 	sw	v1,212(sp)
9d0025f4:	3c049d01 	lui	a0,0x9d01
9d0025f8:	0b40086d 	j	9d0021b4 <do_scan+0x3b4>
9d0025fc:	2494b508 	addiu	s4,a0,-19192
9d002600:	0f402bea 	jal	9d00afa8 <gsgetc>
9d002604:	27a40098 	addiu	a0,sp,152
9d002608:	2403ffff 	li	v1,-1
9d00260c:	5043001b 	beql	v0,v1,9d00267c <do_scan+0x87c>
9d002610:	241effff 	li	s8,-1
9d002614:	5452fe4e 	bnel	v0,s2,9d001f50 <do_scan+0x150>
9d002618:	afa2009c 	sw	v0,156(sp)
9d00261c:	0b4007b0 	j	9d001ec0 <do_scan+0xc0>
9d002620:	8fa500a0 	lw	a1,160(sp)
9d002624:	12c00023 	beqz	s6,9d0026b4 <do_scan+0x8b4>
9d002628:	00000000 	nop
9d00262c:	0f4021fd 	jal	9d0087f4 <strtol>
9d002630:	00000000 	nop
9d002634:	00002021 	move	a0,zero
9d002638:	0b400887 	j	9d00221c <do_scan+0x41c>
9d00263c:	00002821 	move	a1,zero
9d002640:	a2c00000 	sb	zero,0(s6)
9d002644:	26520001 	addiu	s2,s2,1
9d002648:	afb7009c 	sw	s7,156(sp)
9d00264c:	8fa200a8 	lw	v0,168(sp)
9d002650:	2442ffff 	addiu	v0,v0,-1
9d002654:	0b40087a 	j	9d0021e8 <do_scan+0x3e8>
9d002658:	afa200a8 	sw	v0,168(sp)
9d00265c:	0f402bea 	jal	9d00afa8 <gsgetc>
9d002660:	27a40098 	addiu	a0,sp,152
9d002664:	0040b821 	move	s7,v0
9d002668:	00021027 	nor	v0,zero,v0
9d00266c:	8fb600cc 	lw	s6,204(sp)
9d002670:	0002102b 	sltu	v0,zero,v0
9d002674:	0b40086d 	j	9d0021b4 <do_scan+0x3b4>
9d002678:	02429023 	subu	s2,s2,v0
9d00267c:	0b4007b0 	j	9d001ec0 <do_scan+0xc0>
9d002680:	8fa500a0 	lw	a1,160(sp)
9d002684:	241effff 	li	s8,-1
9d002688:	00174027 	nor	t0,zero,s7
9d00268c:	24020001 	li	v0,1
9d002690:	0048f00b 	movn	s8,v0,t0
9d002694:	0b4007b0 	j	9d001ec0 <do_scan+0xc0>
9d002698:	8fa500a0 	lw	a1,160(sp)
9d00269c:	0f401f5a 	jal	9d007d68 <strtoull>
9d0026a0:	00000000 	nop
9d0026a4:	00402021 	move	a0,v0
9d0026a8:	00602821 	move	a1,v1
9d0026ac:	0b400887 	j	9d00221c <do_scan+0x41c>
9d0026b0:	00001021 	move	v0,zero
9d0026b4:	0f4020be 	jal	9d0082f8 <strtoul>
9d0026b8:	00000000 	nop
9d0026bc:	00002021 	move	a0,zero
9d0026c0:	0b400887 	j	9d00221c <do_scan+0x41c>
9d0026c4:	00002821 	move	a1,zero
9d0026c8:	24430004 	addiu	v1,v0,4
9d0026cc:	afa300a4 	sw	v1,164(sp)
9d0026d0:	8c420000 	lw	v0,0(v0)
9d0026d4:	ac440000 	sw	a0,0(v0)
9d0026d8:	0b400899 	j	9d002264 <do_scan+0x464>
9d0026dc:	ac450004 	sw	a1,4(v0)
9d0026e0:	241e0001 	li	s8,1
9d0026e4:	0b4007b0 	j	9d001ec0 <do_scan+0xc0>
9d0026e8:	8fa500a0 	lw	a1,160(sp)
9d0026ec:	8fb600cc 	lw	s6,204(sp)
9d0026f0:	0b40085e 	j	9d002178 <do_scan+0x378>
9d0026f4:	8fb200d0 	lw	s2,208(sp)
9d0026f8:	16e2ffbd 	bne	s7,v0,9d0025f0 <do_scan+0x7f0>
9d0026fc:	24030010 	li	v1,16
9d002700:	26c20001 	addiu	v0,s6,1
9d002704:	afa200cc 	sw	v0,204(sp)
9d002708:	16400004 	bnez	s2,9d00271c <do_scan+0x91c>
9d00270c:	a2d70000 	sb	s7,0(s6)
9d002710:	8fb600cc 	lw	s6,204(sp)
9d002714:	0b40097b 	j	9d0025ec <do_scan+0x7ec>
9d002718:	2417ffff 	li	s7,-1
9d00271c:	0f402bea 	jal	9d00afa8 <gsgetc>
9d002720:	27a40098 	addiu	a0,sp,152
9d002724:	2416ffff 	li	s6,-1
9d002728:	1056fff9 	beq	v0,s6,9d002710 <do_scan+0x910>
9d00272c:	0040b821 	move	s7,v0
9d002730:	2404ffdf 	li	a0,-33
9d002734:	00441824 	and	v1,v0,a0
9d002738:	24020058 	li	v0,88
9d00273c:	146200a6 	bne	v1,v0,9d0029d8 <do_scan+0xbd8>
9d002740:	2654ffff 	addiu	s4,s2,-1
9d002744:	16800080 	bnez	s4,9d002948 <do_scan+0xb48>
9d002748:	00000000 	nop
9d00274c:	8fb600cc 	lw	s6,204(sp)
9d002750:	00009021 	move	s2,zero
9d002754:	0b40097b 	j	9d0025ec <do_scan+0x7ec>
9d002758:	2417ffff 	li	s7,-1
9d00275c:	0f402bea 	jal	9d00afa8 <gsgetc>
9d002760:	27a40098 	addiu	a0,sp,152
9d002764:	0040b821 	move	s7,v0
9d002768:	2402ffff 	li	v0,-1
9d00276c:	12e2ff9a 	beq	s7,v0,9d0025d8 <do_scan+0x7d8>
9d002770:	8fa300d4 	lw	v1,212(sp)
9d002774:	8fb600cc 	lw	s6,204(sp)
9d002778:	8fa400d0 	lw	a0,208(sp)
9d00277c:	2492fffe 	addiu	s2,a0,-2
9d002780:	8fa300d4 	lw	v1,212(sp)
9d002784:	1460fe81 	bnez	v1,9d00218c <do_scan+0x38c>
9d002788:	24020010 	li	v0,16
9d00278c:	24020030 	li	v0,48
9d002790:	16e2ff76 	bne	s7,v0,9d00256c <do_scan+0x76c>
9d002794:	2403000a 	li	v1,10
9d002798:	26c20001 	addiu	v0,s6,1
9d00279c:	afa200cc 	sw	v0,204(sp)
9d0027a0:	16400004 	bnez	s2,9d0027b4 <do_scan+0x9b4>
9d0027a4:	a2d70000 	sb	s7,0(s6)
9d0027a8:	2417ffff 	li	s7,-1
9d0027ac:	0b400869 	j	9d0021a4 <do_scan+0x3a4>
9d0027b0:	8fb600cc 	lw	s6,204(sp)
9d0027b4:	0f402bea 	jal	9d00afa8 <gsgetc>
9d0027b8:	27a40098 	addiu	a0,sp,152
9d0027bc:	2416ffff 	li	s6,-1
9d0027c0:	1056fff9 	beq	v0,s6,9d0027a8 <do_scan+0x9a8>
9d0027c4:	0040b821 	move	s7,v0
9d0027c8:	2404ffdf 	li	a0,-33
9d0027cc:	00441824 	and	v1,v0,a0
9d0027d0:	24020058 	li	v0,88
9d0027d4:	1062ffdb 	beq	v1,v0,9d002744 <do_scan+0x944>
9d0027d8:	2654ffff 	addiu	s4,s2,-1
9d0027dc:	02809021 	move	s2,s4
9d0027e0:	0b400869 	j	9d0021a4 <do_scan+0x3a4>
9d0027e4:	8fb600cc 	lw	s6,204(sp)
9d0027e8:	32230200 	andi	v1,s1,0x200
9d0027ec:	10600010 	beqz	v1,9d002830 <do_scan+0xa30>
9d0027f0:	32230100 	andi	v1,s1,0x100
9d0027f4:	8fa300a4 	lw	v1,164(sp)
9d0027f8:	24640004 	addiu	a0,v1,4
9d0027fc:	afa400a4 	sw	a0,164(sp)
9d002800:	8c630000 	lw	v1,0(v1)
9d002804:	ac620000 	sw	v0,0(v1)
9d002808:	0b4007b0 	j	9d001ec0 <do_scan+0xc0>
9d00280c:	8fa500a0 	lw	a1,160(sp)
9d002810:	10600010 	beqz	v1,9d002854 <do_scan+0xa54>
9d002814:	32310080 	andi	s1,s1,0x80
9d002818:	8fa300a4 	lw	v1,164(sp)
9d00281c:	24640004 	addiu	a0,v1,4
9d002820:	afa400a4 	sw	a0,164(sp)
9d002824:	8c630000 	lw	v1,0(v1)
9d002828:	0b400899 	j	9d002264 <do_scan+0x464>
9d00282c:	a4620000 	sh	v0,0(v1)
9d002830:	1060003d 	beqz	v1,9d002928 <do_scan+0xb28>
9d002834:	32310080 	andi	s1,s1,0x80
9d002838:	8fa300a4 	lw	v1,164(sp)
9d00283c:	24640004 	addiu	a0,v1,4
9d002840:	afa400a4 	sw	a0,164(sp)
9d002844:	8c630000 	lw	v1,0(v1)
9d002848:	a4620000 	sh	v0,0(v1)
9d00284c:	0b4007b0 	j	9d001ec0 <do_scan+0xc0>
9d002850:	8fa500a0 	lw	a1,160(sp)
9d002854:	8fa300a4 	lw	v1,164(sp)
9d002858:	24640004 	addiu	a0,v1,4
9d00285c:	afa400a4 	sw	a0,164(sp)
9d002860:	1220002f 	beqz	s1,9d002920 <do_scan+0xb20>
9d002864:	8c630000 	lw	v1,0(v1)
9d002868:	0b400899 	j	9d002264 <do_scan+0x464>
9d00286c:	a0620000 	sb	v0,0(v1)
9d002870:	0f402bea 	jal	9d00afa8 <gsgetc>
9d002874:	27a40098 	addiu	a0,sp,152
9d002878:	0040b021 	move	s6,v0
9d00287c:	2402ffff 	li	v0,-1
9d002880:	52c2fef3 	beql	s6,v0,9d002450 <do_scan+0x650>
9d002884:	3c049d01 	lui	a0,0x9d01
9d002888:	8fa200b8 	lw	v0,184(sp)
9d00288c:	2442ffff 	addiu	v0,v0,-1
9d002890:	afa200b8 	sw	v0,184(sp)
9d002894:	2402002b 	li	v0,43
9d002898:	56c20057 	bnel	s6,v0,9d0029f8 <do_scan+0xbf8>
9d00289c:	2402002d 	li	v0,45
9d0028a0:	27b200b4 	addiu	s2,sp,180
9d0028a4:	02407821 	move	t7,s2
9d0028a8:	0f4026a4 	jal	9d009a90 <putget.2782>
9d0028ac:	02c02021 	move	a0,s6
9d0028b0:	0040b021 	move	s6,v0
9d0028b4:	24420001 	addiu	v0,v0,1
9d0028b8:	3c049d01 	lui	a0,0x9d01
9d0028bc:	24839b9c 	addiu	v1,a0,-25700
9d0028c0:	00621021 	addu	v0,v1,v0
9d0028c4:	0b40091d 	j	9d002474 <do_scan+0x674>
9d0028c8:	24140001 	li	s4,1
9d0028cc:	0b400952 	j	9d002548 <do_scan+0x748>
9d0028d0:	241e0001 	li	s8,1
9d0028d4:	0f4026a4 	jal	9d009a90 <putget.2782>
9d0028d8:	02c02021 	move	a0,s6
9d0028dc:	0040b021 	move	s6,v0
9d0028e0:	2402002d 	li	v0,45
9d0028e4:	12c20003 	beq	s6,v0,9d0028f4 <do_scan+0xaf4>
9d0028e8:	2402002b 	li	v0,43
9d0028ec:	16c20006 	bne	s6,v0,9d002908 <do_scan+0xb08>
9d0028f0:	02161021 	addu	v0,s0,s6
9d0028f4:	02407821 	move	t7,s2
9d0028f8:	0f4026a4 	jal	9d009a90 <putget.2782>
9d0028fc:	02c02021 	move	a0,s6
9d002900:	0040b021 	move	s6,v0
9d002904:	02161021 	addu	v0,s0,s6
9d002908:	90420000 	lbu	v0,0(v0)
9d00290c:	30420004 	andi	v0,v0,0x4
9d002910:	1440fff9 	bnez	v0,9d0028f8 <do_scan+0xaf8>
9d002914:	02407821 	move	t7,s2
9d002918:	0b40092c 	j	9d0024b0 <do_scan+0x6b0>
9d00291c:	00000000 	nop
9d002920:	0b400899 	j	9d002264 <do_scan+0x464>
9d002924:	ac620000 	sw	v0,0(v1)
9d002928:	8fa300a4 	lw	v1,164(sp)
9d00292c:	24640004 	addiu	a0,v1,4
9d002930:	afa400a4 	sw	a0,164(sp)
9d002934:	1220001c 	beqz	s1,9d0029a8 <do_scan+0xba8>
9d002938:	8c630000 	lw	v1,0(v1)
9d00293c:	a0620000 	sb	v0,0(v1)
9d002940:	0b4007b0 	j	9d001ec0 <do_scan+0xc0>
9d002944:	8fa500a0 	lw	a1,160(sp)
9d002948:	0f402bea 	jal	9d00afa8 <gsgetc>
9d00294c:	27a40098 	addiu	a0,sp,152
9d002950:	10560021 	beq	v0,s6,9d0029d8 <do_scan+0xbd8>
9d002954:	0040b821 	move	s7,v0
9d002958:	2652fffe 	addiu	s2,s2,-2
9d00295c:	0b40097b 	j	9d0025ec <do_scan+0x7ec>
9d002960:	8fb600cc 	lw	s6,204(sp)
9d002964:	0b400a5c 	j	9d002970 <do_scan+0xb70>
9d002968:	2404002e 	li	a0,46
9d00296c:	02c02021 	move	a0,s6
9d002970:	0f4026a4 	jal	9d009a90 <putget.2782>
9d002974:	00000000 	nop
9d002978:	0040b021 	move	s6,v0
9d00297c:	02021021 	addu	v0,s0,v0
9d002980:	90420000 	lbu	v0,0(v0)
9d002984:	30420004 	andi	v0,v0,0x4
9d002988:	1440fff8 	bnez	v0,9d00296c <do_scan+0xb6c>
9d00298c:	02407821 	move	t7,s2
9d002990:	0b400924 	j	9d002490 <do_scan+0x690>
9d002994:	8fa200c8 	lw	v0,200(sp)
9d002998:	0f402da5 	jal	9d00b694 <strtof>
9d00299c:	8c710000 	lw	s1,0(v1)
9d0029a0:	0b40094e 	j	9d002538 <do_scan+0x738>
9d0029a4:	ae220000 	sw	v0,0(s1)
9d0029a8:	ac620000 	sw	v0,0(v1)
9d0029ac:	0b4007b0 	j	9d001ec0 <do_scan+0xc0>
9d0029b0:	8fa500a0 	lw	a1,160(sp)
9d0029b4:	8c43000c 	lw	v1,12(v0)
9d0029b8:	00002821 	move	a1,zero
9d0029bc:	24660004 	addiu	a2,v1,4
9d0029c0:	ac46000c 	sw	a2,12(v0)
9d0029c4:	0f402d9e 	jal	9d00b678 <strtod>
9d0029c8:	8c710000 	lw	s1,0(v1)
9d0029cc:	ae220000 	sw	v0,0(s1)
9d0029d0:	0b40094e 	j	9d002538 <do_scan+0x738>
9d0029d4:	ae230004 	sw	v1,4(s1)
9d0029d8:	8fb600cc 	lw	s6,204(sp)
9d0029dc:	0b40097b 	j	9d0025ec <do_scan+0x7ec>
9d0029e0:	02809021 	move	s2,s4
9d0029e4:	2402002d 	li	v0,45
9d0029e8:	12e2fef6 	beq	s7,v0,9d0025c4 <do_scan+0x7c4>
9d0029ec:	8fa200cc 	lw	v0,204(sp)
9d0029f0:	0b4009e0 	j	9d002780 <do_scan+0x980>
9d0029f4:	8fb600cc 	lw	s6,204(sp)
9d0029f8:	52c2ffaa 	beql	s6,v0,9d0028a4 <do_scan+0xaa4>
9d0029fc:	27b200b4 	addiu	s2,sp,180
9d002a00:	26c20001 	addiu	v0,s6,1
9d002a04:	3c049d01 	lui	a0,0x9d01
9d002a08:	24839b9c 	addiu	v1,a0,-25700
9d002a0c:	0b400916 	j	9d002458 <do_scan+0x658>
9d002a10:	00621021 	addu	v0,v1,v0

Disassembly of section .text._do_print_cdfFnopuxX:

9d002a14 <_do_print_cdfFnopuxX>:
9d002a14:	27bdff58 	addiu	sp,sp,-168
9d002a18:	afbf00a4 	sw	ra,164(sp)
9d002a1c:	afbe00a0 	sw	s8,160(sp)
9d002a20:	afb7009c 	sw	s7,156(sp)
9d002a24:	afb60098 	sw	s6,152(sp)
9d002a28:	afb50094 	sw	s5,148(sp)
9d002a2c:	afb40090 	sw	s4,144(sp)
9d002a30:	afb3008c 	sw	s3,140(sp)
9d002a34:	afb20088 	sw	s2,136(sp)
9d002a38:	afb10084 	sw	s1,132(sp)
9d002a3c:	afb00080 	sw	s0,128(sp)
9d002a40:	afa400a8 	sw	a0,168(sp)
9d002a44:	8c820018 	lw	v0,24(a0)
9d002a48:	00a09021 	move	s2,a1
9d002a4c:	24050001 	li	a1,1
9d002a50:	8c420010 	lw	v0,16(v0)
9d002a54:	0040f809 	jalr	v0
9d002a58:	afa600b0 	sw	a2,176(sp)
9d002a5c:	104001ab 	beqz	v0,9d00310c <_do_print_cdfFnopuxX+0x6f8>
9d002a60:	27a20060 	addiu	v0,sp,96
9d002a64:	afa00070 	sw	zero,112(sp)
9d002a68:	afa20068 	sw	v0,104(sp)
9d002a6c:	82440000 	lb	a0,0(s2)
9d002a70:	1080000d 	beqz	a0,9d002aa8 <_do_print_cdfFnopuxX+0x94>
9d002a74:	26500001 	addiu	s0,s2,1
9d002a78:	24020025 	li	v0,37
9d002a7c:	5082001c 	beql	a0,v0,9d002af0 <_do_print_cdfFnopuxX+0xdc>
9d002a80:	82450001 	lb	a1,1(s2)
9d002a84:	0f402901 	jal	9d00a404 <.LCFI8>
9d002a88:	8fa500a8 	lw	a1,168(sp)
9d002a8c:	8fa30070 	lw	v1,112(sp)
9d002a90:	24630001 	addiu	v1,v1,1
9d002a94:	afa30070 	sw	v1,112(sp)
9d002a98:	02009021 	move	s2,s0
9d002a9c:	82440000 	lb	a0,0(s2)
9d002aa0:	1480fff5 	bnez	a0,9d002a78 <_do_print_cdfFnopuxX+0x64>
9d002aa4:	26500001 	addiu	s0,s2,1
9d002aa8:	8fa400a8 	lw	a0,168(sp)
9d002aac:	94820010 	lhu	v0,16(a0)
9d002ab0:	30420040 	andi	v0,v0,0x40
9d002ab4:	14400196 	bnez	v0,9d003110 <_do_print_cdfFnopuxX+0x6fc>
9d002ab8:	2402ffff 	li	v0,-1
9d002abc:	8fa20070 	lw	v0,112(sp)
9d002ac0:	8fbf00a4 	lw	ra,164(sp)
9d002ac4:	8fbe00a0 	lw	s8,160(sp)
9d002ac8:	8fb7009c 	lw	s7,156(sp)
9d002acc:	8fb60098 	lw	s6,152(sp)
9d002ad0:	8fb50094 	lw	s5,148(sp)
9d002ad4:	8fb40090 	lw	s4,144(sp)
9d002ad8:	8fb3008c 	lw	s3,140(sp)
9d002adc:	8fb20088 	lw	s2,136(sp)
9d002ae0:	8fb10084 	lw	s1,132(sp)
9d002ae4:	8fb00080 	lw	s0,128(sp)
9d002ae8:	03e00008 	jr	ra
9d002aec:	27bd00a8 	addiu	sp,sp,168
9d002af0:	10a4017a 	beq	a1,a0,9d0030dc <_do_print_cdfFnopuxX+0x6c8>
9d002af4:	0000b821 	move	s7,zero
9d002af8:	2402002d 	li	v0,45
9d002afc:	2403002b 	li	v1,43
9d002b00:	24040020 	li	a0,32
9d002b04:	24060023 	li	a2,35
9d002b08:	10a2000e 	beq	a1,v0,9d002b44 <_do_print_cdfFnopuxX+0x130>
9d002b0c:	24070030 	li	a3,48
9d002b10:	50a30010 	beql	a1,v1,9d002b54 <_do_print_cdfFnopuxX+0x140>
9d002b14:	36f70002 	ori	s7,s7,0x2
9d002b18:	50a40011 	beql	a1,a0,9d002b60 <_do_print_cdfFnopuxX+0x14c>
9d002b1c:	36f70001 	ori	s7,s7,0x1
9d002b20:	50a60012 	beql	a1,a2,9d002b6c <_do_print_cdfFnopuxX+0x158>
9d002b24:	36f70800 	ori	s7,s7,0x800
9d002b28:	54a70013 	bnel	a1,a3,9d002b78 <_do_print_cdfFnopuxX+0x164>
9d002b2c:	2402002a 	li	v0,42
9d002b30:	36f70004 	ori	s7,s7,0x4
9d002b34:	26100001 	addiu	s0,s0,1
9d002b38:	82050000 	lb	a1,0(s0)
9d002b3c:	14a2fff4 	bne	a1,v0,9d002b10 <_do_print_cdfFnopuxX+0xfc>
9d002b40:	00000000 	nop
9d002b44:	36f70008 	ori	s7,s7,0x8
9d002b48:	26100001 	addiu	s0,s0,1
9d002b4c:	0b400acf 	j	9d002b3c <_do_print_cdfFnopuxX+0x128>
9d002b50:	82050000 	lb	a1,0(s0)
9d002b54:	26100001 	addiu	s0,s0,1
9d002b58:	0b400acf 	j	9d002b3c <_do_print_cdfFnopuxX+0x128>
9d002b5c:	82050000 	lb	a1,0(s0)
9d002b60:	26100001 	addiu	s0,s0,1
9d002b64:	0b400acf 	j	9d002b3c <_do_print_cdfFnopuxX+0x128>
9d002b68:	82050000 	lb	a1,0(s0)
9d002b6c:	26100001 	addiu	s0,s0,1
9d002b70:	0b400acf 	j	9d002b3c <_do_print_cdfFnopuxX+0x128>
9d002b74:	82050000 	lb	a1,0(s0)
9d002b78:	10a20147 	beq	a1,v0,9d003098 <_do_print_cdfFnopuxX+0x684>
9d002b7c:	02001821 	move	v1,s0
9d002b80:	24a2ffd0 	addiu	v0,a1,-48
9d002b84:	2c42000a 	sltiu	v0,v0,10
9d002b88:	1040000b 	beqz	v0,9d002bb8 <_do_print_cdfFnopuxX+0x1a4>
9d002b8c:	0000b021 	move	s6,zero
9d002b90:	00161040 	sll	v0,s6,0x1
9d002b94:	001640c0 	sll	t0,s6,0x3
9d002b98:	00484021 	addu	t0,v0,t0
9d002b9c:	26100001 	addiu	s0,s0,1
9d002ba0:	01054021 	addu	t0,t0,a1
9d002ba4:	82050000 	lb	a1,0(s0)
9d002ba8:	24a2ffd0 	addiu	v0,a1,-48
9d002bac:	2c42000a 	sltiu	v0,v0,10
9d002bb0:	1440fff7 	bnez	v0,9d002b90 <_do_print_cdfFnopuxX+0x17c>
9d002bb4:	2516ffd0 	addiu	s6,t0,-48
9d002bb8:	2402002e 	li	v0,46
9d002bbc:	10a20122 	beq	a1,v0,9d003048 <_do_print_cdfFnopuxX+0x634>
9d002bc0:	241effff 	li	s8,-1
9d002bc4:	24020068 	li	v0,104
9d002bc8:	10a2010d 	beq	a1,v0,9d003000 <_do_print_cdfFnopuxX+0x5ec>
9d002bcc:	2402006c 	li	v0,108
9d002bd0:	10a2013b 	beq	a1,v0,9d0030c0 <_do_print_cdfFnopuxX+0x6ac>
9d002bd4:	24020071 	li	v0,113
9d002bd8:	10a20148 	beq	a1,v0,9d0030fc <_do_print_cdfFnopuxX+0x6e8>
9d002bdc:	2402004c 	li	v0,76
9d002be0:	50a201c6 	beql	a1,v0,9d0032fc <_do_print_cdfFnopuxX+0x8e8>
9d002be4:	82050001 	lb	a1,1(s0)
9d002be8:	32e30002 	andi	v1,s7,0x2
9d002bec:	32e2fffe 	andi	v0,s7,0xfffe
9d002bf0:	0043b80b 	movn	s7,v0,v1
9d002bf4:	24a2ffbc 	addiu	v0,a1,-68
9d002bf8:	32e60008 	andi	a2,s7,0x8
9d002bfc:	32e4fffb 	andi	a0,s7,0xfffb
9d002c00:	2c430035 	sltiu	v1,v0,53
9d002c04:	26120001 	addiu	s2,s0,1
9d002c08:	1060010d 	beqz	v1,9d003040 <_do_print_cdfFnopuxX+0x62c>
9d002c0c:	0086b80b 	movn	s7,a0,a2
9d002c10:	00021080 	sll	v0,v0,0x2
9d002c14:	3c049d00 	lui	a0,0x9d00
9d002c18:	24842c2c 	addiu	a0,a0,11308
9d002c1c:	00821021 	addu	v0,a0,v0
9d002c20:	8c420000 	lw	v0,0(v0)
9d002c24:	00400008 	jr	v0
9d002c28:	00000000 	nop
9d002c2c:	9d002fec 	0x9d002fec
9d002c30:	9d003040 	0x9d003040
9d002c34:	9d002f90 	0x9d002f90
9d002c38:	9d003040 	0x9d003040
9d002c3c:	9d003040 	0x9d003040
9d002c40:	9d003040 	0x9d003040
9d002c44:	9d003040 	0x9d003040
9d002c48:	9d003040 	0x9d003040
9d002c4c:	9d003040 	0x9d003040
9d002c50:	9d003040 	0x9d003040
9d002c54:	9d003040 	0x9d003040
9d002c58:	9d003270 	0x9d003270
9d002c5c:	9d002f80 	0x9d002f80
9d002c60:	9d003040 	0x9d003040
9d002c64:	9d003040 	0x9d003040
9d002c68:	9d003040 	0x9d003040
9d002c6c:	9d003040 	0x9d003040
9d002c70:	9d002eb4 	0x9d002eb4
9d002c74:	9d003040 	0x9d003040
9d002c78:	9d003040 	0x9d003040
9d002c7c:	9d002d00 	0x9d002d00
9d002c80:	9d003040 	0x9d003040
9d002c84:	9d003040 	0x9d003040
9d002c88:	9d003040 	0x9d003040
9d002c8c:	9d003040 	0x9d003040
9d002c90:	9d003040 	0x9d003040
9d002c94:	9d003040 	0x9d003040
9d002c98:	9d003040 	0x9d003040
9d002c9c:	9d003040 	0x9d003040
9d002ca0:	9d003040 	0x9d003040
9d002ca4:	9d003040 	0x9d003040
9d002ca8:	9d003230 	0x9d003230
9d002cac:	9d002ff0 	0x9d002ff0
9d002cb0:	9d003040 	0x9d003040
9d002cb4:	9d002f94 	0x9d002f94
9d002cb8:	9d003040 	0x9d003040
9d002cbc:	9d003040 	0x9d003040
9d002cc0:	9d002ff0 	0x9d002ff0
9d002cc4:	9d003040 	0x9d003040
9d002cc8:	9d003040 	0x9d003040
9d002ccc:	9d003040 	0x9d003040
9d002cd0:	9d003040 	0x9d003040
9d002cd4:	9d003174 	0x9d003174
9d002cd8:	9d00316c 	0x9d00316c
9d002cdc:	9d002f84 	0x9d002f84
9d002ce0:	9d003040 	0x9d003040
9d002ce4:	9d003040 	0x9d003040
9d002ce8:	9d0031bc 	0x9d0031bc
9d002cec:	9d003040 	0x9d003040
9d002cf0:	9d002eb8 	0x9d002eb8
9d002cf4:	9d003040 	0x9d003040
9d002cf8:	9d003040 	0x9d003040
9d002cfc:	9d002d04 	0x9d002d04
9d002d00:	36f70020 	ori	s7,s7,0x20
9d002d04:	24100010 	li	s0,16
9d002d08:	2402ffff 	li	v0,-1
9d002d0c:	13c2006f 	beq	s8,v0,9d002ecc <_do_print_cdfFnopuxX+0x4b8>
9d002d10:	00002821 	move	a1,zero
9d002d14:	32f7fffb 	andi	s7,s7,0xfffb
9d002d18:	27c5ffff 	addiu	a1,s8,-1
9d002d1c:	32e200c0 	andi	v0,s7,0xc0
9d002d20:	1040006e 	beqz	v0,9d002edc <_do_print_cdfFnopuxX+0x4c8>
9d002d24:	afa20074 	sw	v0,116(sp)
9d002d28:	7c171620 	seh	v0,s7
9d002d2c:	0440017d 	bltz	v0,9d003324 <_do_print_cdfFnopuxX+0x910>
9d002d30:	32e20010 	andi	v0,s7,0x10
9d002d34:	14400108 	bnez	v0,9d003158 <_do_print_cdfFnopuxX+0x744>
9d002d38:	8fa200b0 	lw	v0,176(sp)
9d002d3c:	32e20041 	andi	v0,s7,0x41
9d002d40:	104001a5 	beqz	v0,9d0033d8 <_do_print_cdfFnopuxX+0x9c4>
9d002d44:	8fa400b0 	lw	a0,176(sp)
9d002d48:	8fa300b0 	lw	v1,176(sp)
9d002d4c:	8c750000 	lw	s5,0(v1)
9d002d50:	24630004 	addiu	v1,v1,4
9d002d54:	afa300b0 	sw	v1,176(sp)
9d002d58:	0015a7c3 	sra	s4,s5,0x1f
9d002d5c:	0683006d 	bgezl	s4,9d002f14 <_do_print_cdfFnopuxX+0x500>
9d002d60:	afa0007c 	sw	zero,124(sp)
9d002d64:	00156823 	negu	t5,s5
9d002d68:	000d102b 	sltu	v0,zero,t5
9d002d6c:	00146023 	negu	t4,s4
9d002d70:	01a0a821 	move	s5,t5
9d002d74:	0182a023 	subu	s4,t4,v0
9d002d78:	24020001 	li	v0,1
9d002d7c:	12800067 	beqz	s4,9d002f1c <_do_print_cdfFnopuxX+0x508>
9d002d80:	afa2007c 	sw	v0,124(sp)
9d002d84:	02b41025 	or	v0,s5,s4
9d002d88:	104001a9 	beqz	v0,9d003430 <_do_print_cdfFnopuxX+0xa1c>
9d002d8c:	27a2005f 	addiu	v0,sp,95
9d002d90:	afa20078 	sw	v0,120(sp)
9d002d94:	32e30020 	andi	v1,s7,0x20
9d002d98:	24040037 	li	a0,55
9d002d9c:	00108fc3 	sra	s1,s0,0x1f
9d002da0:	00409821 	move	s3,v0
9d002da4:	24020057 	li	v0,87
9d002da8:	0043200a 	movz	a0,v0,v1
9d002dac:	afa4006c 	sw	a0,108(sp)
9d002db0:	02a02021 	move	a0,s5
9d002db4:	02802821 	move	a1,s4
9d002db8:	02003021 	move	a2,s0
9d002dbc:	0f401793 	jal	9d005e4c <__umoddi3>
9d002dc0:	02203821 	move	a3,s1
9d002dc4:	2843000a 	slti	v1,v0,10
9d002dc8:	24460030 	addiu	a2,v0,48
9d002dcc:	8fa4006c 	lw	a0,108(sp)
9d002dd0:	00441021 	addu	v0,v0,a0
9d002dd4:	0043300a 	movz	a2,v0,v1
9d002dd8:	2673ffff 	addiu	s3,s3,-1
9d002ddc:	02a02021 	move	a0,s5
9d002de0:	02802821 	move	a1,s4
9d002de4:	a2660001 	sb	a2,1(s3)
9d002de8:	02003021 	move	a2,s0
9d002dec:	0f4018ac 	jal	9d0062b0 <.LFE1>
9d002df0:	02203821 	move	a3,s1
9d002df4:	00622025 	or	a0,v1,v0
9d002df8:	0040a821 	move	s5,v0
9d002dfc:	0060a021 	move	s4,v1
9d002e00:	1480ffeb 	bnez	a0,9d002db0 <_do_print_cdfFnopuxX+0x39c>
9d002e04:	27deffff 	addiu	s8,s8,-1
9d002e08:	27c5ffff 	addiu	a1,s8,-1
9d002e0c:	04a0000a 	bltz	a1,9d002e38 <_do_print_cdfFnopuxX+0x424>
9d002e10:	02601021 	move	v0,s3
9d002e14:	2664ffff 	addiu	a0,s3,-1
9d002e18:	00852023 	subu	a0,a0,a1
9d002e1c:	24030030 	li	v1,48
9d002e20:	a0430000 	sb	v1,0(v0)
9d002e24:	2442ffff 	addiu	v0,v0,-1
9d002e28:	5444fffe 	bnel	v0,a0,9d002e24 <_do_print_cdfFnopuxX+0x410>
9d002e2c:	a0430000 	sb	v1,0(v0)
9d002e30:	00052827 	nor	a1,zero,a1
9d002e34:	02659821 	addu	s3,s3,a1
9d002e38:	32e20004 	andi	v0,s7,0x4
9d002e3c:	1440010f 	bnez	v0,9d00327c <_do_print_cdfFnopuxX+0x868>
9d002e40:	32e40800 	andi	a0,s7,0x800
9d002e44:	3084ffff 	andi	a0,a0,0xffff
9d002e48:	50800007 	beqzl	a0,9d002e68 <_do_print_cdfFnopuxX+0x454>
9d002e4c:	8fa30074 	lw	v1,116(sp)
9d002e50:	24020008 	li	v0,8
9d002e54:	1202012c 	beq	s0,v0,9d003308 <_do_print_cdfFnopuxX+0x8f4>
9d002e58:	24020010 	li	v0,16
9d002e5c:	12020150 	beq	s0,v0,9d0033a0 <_do_print_cdfFnopuxX+0x98c>
9d002e60:	32e40020 	andi	a0,s7,0x20
9d002e64:	8fa30074 	lw	v1,116(sp)
9d002e68:	10600007 	beqz	v1,9d002e88 <_do_print_cdfFnopuxX+0x474>
9d002e6c:	8fa4007c 	lw	a0,124(sp)
9d002e70:	1480011e 	bnez	a0,9d0032ec <_do_print_cdfFnopuxX+0x8d8>
9d002e74:	32e20002 	andi	v0,s7,0x2
9d002e78:	10400003 	beqz	v0,9d002e88 <_do_print_cdfFnopuxX+0x474>
9d002e7c:	2402002b 	li	v0,43
9d002e80:	a2620000 	sb	v0,0(s3)
9d002e84:	2673ffff 	addiu	s3,s3,-1
9d002e88:	26650001 	addiu	a1,s3,1
9d002e8c:	afb70010 	sw	s7,16(sp)
9d002e90:	8fa400a8 	lw	a0,168(sp)
9d002e94:	8fa20068 	lw	v0,104(sp)
9d002e98:	00453023 	subu	a2,v0,a1
9d002e9c:	0f402575 	jal	9d0095d4 <.LFE2>
9d002ea0:	02c03821 	move	a3,s6
9d002ea4:	8fa30070 	lw	v1,112(sp)
9d002ea8:	00621821 	addu	v1,v1,v0
9d002eac:	0b400a9b 	j	9d002a6c <_do_print_cdfFnopuxX+0x58>
9d002eb0:	afa30070 	sw	v1,112(sp)
9d002eb4:	36f70010 	ori	s7,s7,0x10
9d002eb8:	32f7f7ff 	andi	s7,s7,0xf7ff
9d002ebc:	2402ffff 	li	v0,-1
9d002ec0:	17c2ff94 	bne	s8,v0,9d002d14 <_do_print_cdfFnopuxX+0x300>
9d002ec4:	2410000a 	li	s0,10
9d002ec8:	00002821 	move	a1,zero
9d002ecc:	241e0001 	li	s8,1
9d002ed0:	32e200c0 	andi	v0,s7,0xc0
9d002ed4:	1440ff94 	bnez	v0,9d002d28 <_do_print_cdfFnopuxX+0x314>
9d002ed8:	afa20074 	sw	v0,116(sp)
9d002edc:	7c171620 	seh	v0,s7
9d002ee0:	04400118 	bltz	v0,9d003344 <_do_print_cdfFnopuxX+0x930>
9d002ee4:	32e20010 	andi	v0,s7,0x10
9d002ee8:	14400095 	bnez	v0,9d003140 <_do_print_cdfFnopuxX+0x72c>
9d002eec:	8fa200b0 	lw	v0,176(sp)
9d002ef0:	32e20041 	andi	v0,s7,0x41
9d002ef4:	10400132 	beqz	v0,9d0033c0 <_do_print_cdfFnopuxX+0x9ac>
9d002ef8:	8fa400b0 	lw	a0,176(sp)
9d002efc:	8fa300b0 	lw	v1,176(sp)
9d002f00:	8c750000 	lw	s5,0(v1)
9d002f04:	0000a021 	move	s4,zero
9d002f08:	24630004 	addiu	v1,v1,4
9d002f0c:	afa300b0 	sw	v1,176(sp)
9d002f10:	afa0007c 	sw	zero,124(sp)
9d002f14:	1680ff9c 	bnez	s4,9d002d88 <_do_print_cdfFnopuxX+0x374>
9d002f18:	02b41025 	or	v0,s5,s4
9d002f1c:	12a00148 	beqz	s5,9d003440 <_do_print_cdfFnopuxX+0xa2c>
9d002f20:	02a06821 	move	t5,s5
9d002f24:	27a4005f 	addiu	a0,sp,95
9d002f28:	afa40078 	sw	a0,120(sp)
9d002f2c:	32e30020 	andi	v1,s7,0x20
9d002f30:	24050037 	li	a1,55
9d002f34:	00809821 	move	s3,a0
9d002f38:	24020057 	li	v0,87
9d002f3c:	0043280a 	movz	a1,v0,v1
9d002f40:	01b0001b 	divu	zero,t5,s0
9d002f44:	020001f4 	teq	s0,zero,0x7
9d002f48:	00001810 	mfhi	v1
9d002f4c:	2673ffff 	addiu	s3,s3,-1
9d002f50:	27deffff 	addiu	s8,s8,-1
9d002f54:	01b0001b 	divu	zero,t5,s0
9d002f58:	020001f4 	teq	s0,zero,0x7
9d002f5c:	00006812 	mflo	t5
9d002f60:	2864000a 	slti	a0,v1,10
9d002f64:	24620030 	addiu	v0,v1,48
9d002f68:	00651821 	addu	v1,v1,a1
9d002f6c:	0064100a 	movz	v0,v1,a0
9d002f70:	15a0fff3 	bnez	t5,9d002f40 <_do_print_cdfFnopuxX+0x52c>
9d002f74:	a2620001 	sb	v0,1(s3)
9d002f78:	0b400b83 	j	9d002e0c <_do_print_cdfFnopuxX+0x3f8>
9d002f7c:	27c5ffff 	addiu	a1,s8,-1
9d002f80:	36f70020 	ori	s7,s7,0x20
9d002f84:	36f70810 	ori	s7,s7,0x810
9d002f88:	0b400b42 	j	9d002d08 <_do_print_cdfFnopuxX+0x2f4>
9d002f8c:	24100010 	li	s0,16
9d002f90:	36f70020 	ori	s7,s7,0x20
9d002f94:	32e20080 	andi	v0,s7,0x80
9d002f98:	144000b2 	bnez	v0,9d003264 <_do_print_cdfFnopuxX+0x850>
9d002f9c:	36ea0400 	ori	t2,s7,0x400
9d002fa0:	8fa400b0 	lw	a0,176(sp)
9d002fa4:	24950007 	addiu	s5,a0,7
9d002fa8:	7c151004 	ins	s5,zero,0x0,0x3
9d002fac:	8ea20000 	lw	v0,0(s5)
9d002fb0:	8ea30004 	lw	v1,4(s5)
9d002fb4:	26b50008 	addiu	s5,s5,8
9d002fb8:	afb500b0 	sw	s5,176(sp)
9d002fbc:	afa20060 	sw	v0,96(sp)
9d002fc0:	afa30064 	sw	v1,100(sp)
9d002fc4:	8fa60060 	lw	a2,96(sp)
9d002fc8:	8fa70064 	lw	a3,100(sp)
9d002fcc:	afa50010 	sw	a1,16(sp)
9d002fd0:	afb60014 	sw	s6,20(sp)
9d002fd4:	afbe0018 	sw	s8,24(sp)
9d002fd8:	afaa001c 	sw	t2,28(sp)
9d002fdc:	0f400f2f 	jal	9d003cbc <_fconvert>
9d002fe0:	8fa400a8 	lw	a0,168(sp)
9d002fe4:	0b400baa 	j	9d002ea8 <_do_print_cdfFnopuxX+0x494>
9d002fe8:	8fa30070 	lw	v1,112(sp)
9d002fec:	36f70010 	ori	s7,s7,0x10
9d002ff0:	32eaf7ff 	andi	t2,s7,0xf7ff
9d002ff4:	355700c0 	ori	s7,t2,0xc0
9d002ff8:	0b400b42 	j	9d002d08 <_do_print_cdfFnopuxX+0x2f4>
9d002ffc:	2410000a 	li	s0,10
9d003000:	82020001 	lb	v0,1(s0)
9d003004:	504500e2 	beql	v0,a1,9d003390 <_do_print_cdfFnopuxX+0x97c>
9d003008:	82050002 	lb	a1,2(s0)
9d00300c:	36f70040 	ori	s7,s7,0x40
9d003010:	00402821 	move	a1,v0
9d003014:	26100001 	addiu	s0,s0,1
9d003018:	32e30002 	andi	v1,s7,0x2
9d00301c:	32e2fffe 	andi	v0,s7,0xfffe
9d003020:	0043b80b 	movn	s7,v0,v1
9d003024:	24a2ffbc 	addiu	v0,a1,-68
9d003028:	32e60008 	andi	a2,s7,0x8
9d00302c:	32e4fffb 	andi	a0,s7,0xfffb
9d003030:	2c430035 	sltiu	v1,v0,53
9d003034:	26120001 	addiu	s2,s0,1
9d003038:	1460fef5 	bnez	v1,9d002c10 <_do_print_cdfFnopuxX+0x1fc>
9d00303c:	0086b80b 	movn	s7,a0,a2
9d003040:	0b400ba9 	j	9d002ea4 <_do_print_cdfFnopuxX+0x490>
9d003044:	00001021 	move	v0,zero
9d003048:	82050001 	lb	a1,1(s0)
9d00304c:	2402002a 	li	v0,42
9d003050:	10a200c5 	beq	a1,v0,9d003368 <_do_print_cdfFnopuxX+0x954>
9d003054:	24a2ffd0 	addiu	v0,a1,-48
9d003058:	2c42000a 	sltiu	v0,v0,10
9d00305c:	26100001 	addiu	s0,s0,1
9d003060:	1040fed8 	beqz	v0,9d002bc4 <_do_print_cdfFnopuxX+0x1b0>
9d003064:	0000f021 	move	s8,zero
9d003068:	001e1040 	sll	v0,s8,0x1
9d00306c:	001e48c0 	sll	t1,s8,0x3
9d003070:	00494821 	addu	t1,v0,t1
9d003074:	26100001 	addiu	s0,s0,1
9d003078:	01254821 	addu	t1,t1,a1
9d00307c:	82050000 	lb	a1,0(s0)
9d003080:	24a2ffd0 	addiu	v0,a1,-48
9d003084:	2c42000a 	sltiu	v0,v0,10
9d003088:	1440fff7 	bnez	v0,9d003068 <_do_print_cdfFnopuxX+0x654>
9d00308c:	253effd0 	addiu	s8,t1,-48
9d003090:	0b400af2 	j	9d002bc8 <_do_print_cdfFnopuxX+0x1b4>
9d003094:	24020068 	li	v0,104
9d003098:	8fa200b0 	lw	v0,176(sp)
9d00309c:	8c560000 	lw	s6,0(v0)
9d0030a0:	24550004 	addiu	s5,v0,4
9d0030a4:	26100001 	addiu	s0,s0,1
9d0030a8:	06c10003 	bgez	s6,9d0030b8 <_do_print_cdfFnopuxX+0x6a4>
9d0030ac:	80650001 	lb	a1,1(v1)
9d0030b0:	36f70008 	ori	s7,s7,0x8
9d0030b4:	0016b023 	negu	s6,s6
9d0030b8:	0b400aee 	j	9d002bb8 <_do_print_cdfFnopuxX+0x1a4>
9d0030bc:	afb500b0 	sw	s5,176(sp)
9d0030c0:	82020001 	lb	v0,1(s0)
9d0030c4:	504500c9 	beql	v0,a1,9d0033ec <_do_print_cdfFnopuxX+0x9d8>
9d0030c8:	82050002 	lb	a1,2(s0)
9d0030cc:	36f70010 	ori	s7,s7,0x10
9d0030d0:	00402821 	move	a1,v0
9d0030d4:	0b400c06 	j	9d003018 <_do_print_cdfFnopuxX+0x604>
9d0030d8:	26100001 	addiu	s0,s0,1
9d0030dc:	24040025 	li	a0,37
9d0030e0:	0f402901 	jal	9d00a404 <.LCFI8>
9d0030e4:	8fa500a8 	lw	a1,168(sp)
9d0030e8:	26520002 	addiu	s2,s2,2
9d0030ec:	8fa40070 	lw	a0,112(sp)
9d0030f0:	24840001 	addiu	a0,a0,1
9d0030f4:	0b400a9b 	j	9d002a6c <_do_print_cdfFnopuxX+0x58>
9d0030f8:	afa40070 	sw	a0,112(sp)
9d0030fc:	82050001 	lb	a1,1(s0)
9d003100:	36f78000 	ori	s7,s7,0x8000
9d003104:	0b400afa 	j	9d002be8 <_do_print_cdfFnopuxX+0x1d4>
9d003108:	26100001 	addiu	s0,s0,1
9d00310c:	2402ffff 	li	v0,-1
9d003110:	8fbf00a4 	lw	ra,164(sp)
9d003114:	8fbe00a0 	lw	s8,160(sp)
9d003118:	8fb7009c 	lw	s7,156(sp)
9d00311c:	8fb60098 	lw	s6,152(sp)
9d003120:	8fb50094 	lw	s5,148(sp)
9d003124:	8fb40090 	lw	s4,144(sp)
9d003128:	8fb3008c 	lw	s3,140(sp)
9d00312c:	8fb20088 	lw	s2,136(sp)
9d003130:	8fb10084 	lw	s1,132(sp)
9d003134:	8fb00080 	lw	s0,128(sp)
9d003138:	03e00008 	jr	ra
9d00313c:	27bd00a8 	addiu	sp,sp,168
9d003140:	8c550000 	lw	s5,0(v0)
9d003144:	0000a021 	move	s4,zero
9d003148:	24420004 	addiu	v0,v0,4
9d00314c:	afa200b0 	sw	v0,176(sp)
9d003150:	0b400bc5 	j	9d002f14 <_do_print_cdfFnopuxX+0x500>
9d003154:	afa0007c 	sw	zero,124(sp)
9d003158:	8c550000 	lw	s5,0(v0)
9d00315c:	24420004 	addiu	v0,v0,4
9d003160:	afa200b0 	sw	v0,176(sp)
9d003164:	0b400b57 	j	9d002d5c <_do_print_cdfFnopuxX+0x348>
9d003168:	0015a7c3 	sra	s4,s5,0x1f
9d00316c:	0b400b42 	j	9d002d08 <_do_print_cdfFnopuxX+0x2f4>
9d003170:	24100008 	li	s0,8
9d003174:	7c171620 	seh	v0,s7
9d003178:	044000b9 	bltz	v0,9d003460 <_do_print_cdfFnopuxX+0xa4c>
9d00317c:	8fa400b0 	lw	a0,176(sp)
9d003180:	32e20010 	andi	v0,s7,0x10
9d003184:	144000a2 	bnez	v0,9d003410 <_do_print_cdfFnopuxX+0x9fc>
9d003188:	8fa200b0 	lw	v0,176(sp)
9d00318c:	32e20040 	andi	v0,s7,0x40
9d003190:	104000be 	beqz	v0,9d00348c <_do_print_cdfFnopuxX+0xa78>
9d003194:	32ea0001 	andi	t2,s7,0x1
9d003198:	8fa200b0 	lw	v0,176(sp)
9d00319c:	8c430000 	lw	v1,0(v0)
9d0031a0:	00001021 	move	v0,zero
9d0031a4:	8fa400b0 	lw	a0,176(sp)
9d0031a8:	24840004 	addiu	a0,a0,4
9d0031ac:	afa400b0 	sw	a0,176(sp)
9d0031b0:	8fa40070 	lw	a0,112(sp)
9d0031b4:	0b400ba9 	j	9d002ea4 <_do_print_cdfFnopuxX+0x490>
9d0031b8:	a4640000 	sh	a0,0(v1)
9d0031bc:	8fa400b0 	lw	a0,176(sp)
9d0031c0:	8c900000 	lw	s0,0(a0)
9d0031c4:	3c039d01 	lui	v1,0x9d01
9d0031c8:	2462ac3c 	addiu	v0,v1,-21444
9d0031cc:	0050800a 	movz	s0,v0,s0
9d0031d0:	2402ffff 	li	v0,-1
9d0031d4:	13c2009e 	beq	s8,v0,9d003450 <_do_print_cdfFnopuxX+0xa3c>
9d0031d8:	24950004 	addiu	s5,a0,4
9d0031dc:	1bc00004 	blez	s8,9d0031f0 <_do_print_cdfFnopuxX+0x7dc>
9d0031e0:	021e4821 	addu	t1,s0,s8
9d0031e4:	82030000 	lb	v1,0(s0)
9d0031e8:	14600005 	bnez	v1,9d003200 <_do_print_cdfFnopuxX+0x7ec>
9d0031ec:	02001021 	move	v0,s0
9d0031f0:	0b400c84 	j	9d003210 <_do_print_cdfFnopuxX+0x7fc>
9d0031f4:	00001021 	move	v0,zero
9d0031f8:	50600005 	beqzl	v1,9d003210 <_do_print_cdfFnopuxX+0x7fc>
9d0031fc:	00501023 	subu	v0,v0,s0
9d003200:	24420001 	addiu	v0,v0,1
9d003204:	5449fffc 	bnel	v0,t1,9d0031f8 <_do_print_cdfFnopuxX+0x7e4>
9d003208:	80430000 	lb	v1,0(v0)
9d00320c:	00501023 	subu	v0,v0,s0
9d003210:	afb70010 	sw	s7,16(sp)
9d003214:	8fa400a8 	lw	a0,168(sp)
9d003218:	02002821 	move	a1,s0
9d00321c:	00403021 	move	a2,v0
9d003220:	0f402575 	jal	9d0095d4 <.LFE2>
9d003224:	02c03821 	move	a3,s6
9d003228:	0b400ba9 	j	9d002ea4 <_do_print_cdfFnopuxX+0x490>
9d00322c:	afb500b0 	sw	s5,176(sp)
9d003230:	8fa300b0 	lw	v1,176(sp)
9d003234:	8c620000 	lw	v0,0(v1)
9d003238:	24750004 	addiu	s5,v1,4
9d00323c:	afb70010 	sw	s7,16(sp)
9d003240:	8fa400a8 	lw	a0,168(sp)
9d003244:	27a50020 	addiu	a1,sp,32
9d003248:	24060001 	li	a2,1
9d00324c:	02c03821 	move	a3,s6
9d003250:	a3a20020 	sb	v0,32(sp)
9d003254:	0f402575 	jal	9d0095d4 <.LFE2>
9d003258:	afb500b0 	sw	s5,176(sp)
9d00325c:	0b400baa 	j	9d002ea8 <_do_print_cdfFnopuxX+0x494>
9d003260:	8fa30070 	lw	v1,112(sp)
9d003264:	8fa300b0 	lw	v1,176(sp)
9d003268:	0b400bea 	j	9d002fa8 <_do_print_cdfFnopuxX+0x594>
9d00326c:	24750007 	addiu	s5,v1,7
9d003270:	36f70010 	ori	s7,s7,0x10
9d003274:	0b400b42 	j	9d002d08 <_do_print_cdfFnopuxX+0x2f4>
9d003278:	24100008 	li	s0,8
9d00327c:	8fa20078 	lw	v0,120(sp)
9d003280:	02621823 	subu	v1,s3,v0
9d003284:	3084ffff 	andi	a0,a0,0xffff
9d003288:	10800006 	beqz	a0,9d0032a4 <_do_print_cdfFnopuxX+0x890>
9d00328c:	02c31821 	addu	v1,s6,v1
9d003290:	24020008 	li	v0,8
9d003294:	12020059 	beq	s0,v0,9d0033fc <_do_print_cdfFnopuxX+0x9e8>
9d003298:	2462fffe 	addiu	v0,v1,-2
9d00329c:	3a050010 	xori	a1,s0,0x10
9d0032a0:	0045180a 	movz	v1,v0,a1
9d0032a4:	8fa20074 	lw	v0,116(sp)
9d0032a8:	10400006 	beqz	v0,9d0032c4 <_do_print_cdfFnopuxX+0x8b0>
9d0032ac:	8fa2007c 	lw	v0,124(sp)
9d0032b0:	54400004 	bnezl	v0,9d0032c4 <_do_print_cdfFnopuxX+0x8b0>
9d0032b4:	2463ffff 	addiu	v1,v1,-1
9d0032b8:	32e20003 	andi	v0,s7,0x3
9d0032bc:	54400001 	bnezl	v0,9d0032c4 <_do_print_cdfFnopuxX+0x8b0>
9d0032c0:	2463ffff 	addiu	v1,v1,-1
9d0032c4:	1860fee0 	blez	v1,9d002e48 <_do_print_cdfFnopuxX+0x434>
9d0032c8:	02601021 	move	v0,s3
9d0032cc:	02635823 	subu	t3,s3,v1
9d0032d0:	24030030 	li	v1,48
9d0032d4:	a0430000 	sb	v1,0(v0)
9d0032d8:	2442ffff 	addiu	v0,v0,-1
9d0032dc:	5562fffe 	bnel	t3,v0,9d0032d8 <_do_print_cdfFnopuxX+0x8c4>
9d0032e0:	a0430000 	sb	v1,0(v0)
9d0032e4:	0b400b92 	j	9d002e48 <_do_print_cdfFnopuxX+0x434>
9d0032e8:	01609821 	move	s3,t3
9d0032ec:	2402002d 	li	v0,45
9d0032f0:	a2620000 	sb	v0,0(s3)
9d0032f4:	0b400ba2 	j	9d002e88 <_do_print_cdfFnopuxX+0x474>
9d0032f8:	2673ffff 	addiu	s3,s3,-1
9d0032fc:	36f70080 	ori	s7,s7,0x80
9d003300:	0b400c06 	j	9d003018 <_do_print_cdfFnopuxX+0x604>
9d003304:	26100001 	addiu	s0,s0,1
9d003308:	82630001 	lb	v1,1(s3)
9d00330c:	24020030 	li	v0,48
9d003310:	1062fed5 	beq	v1,v0,9d002e68 <_do_print_cdfFnopuxX+0x454>
9d003314:	8fa30074 	lw	v1,116(sp)
9d003318:	a2620000 	sb	v0,0(s3)
9d00331c:	0b400b99 	j	9d002e64 <_do_print_cdfFnopuxX+0x450>
9d003320:	2673ffff 	addiu	s3,s3,-1
9d003324:	8fa300b0 	lw	v1,176(sp)
9d003328:	24620007 	addiu	v0,v1,7
9d00332c:	7c021004 	ins	v0,zero,0x0,0x3
9d003330:	24440008 	addiu	a0,v0,8
9d003334:	afa400b0 	sw	a0,176(sp)
9d003338:	8c550000 	lw	s5,0(v0)
9d00333c:	0b400b57 	j	9d002d5c <_do_print_cdfFnopuxX+0x348>
9d003340:	8c540004 	lw	s4,4(v0)
9d003344:	8fa300b0 	lw	v1,176(sp)
9d003348:	24620007 	addiu	v0,v1,7
9d00334c:	7c021004 	ins	v0,zero,0x0,0x3
9d003350:	24440008 	addiu	a0,v0,8
9d003354:	afa400b0 	sw	a0,176(sp)
9d003358:	8c550000 	lw	s5,0(v0)
9d00335c:	8c540004 	lw	s4,4(v0)
9d003360:	0b400bc5 	j	9d002f14 <_do_print_cdfFnopuxX+0x500>
9d003364:	afa0007c 	sw	zero,124(sp)
9d003368:	8fa300b0 	lw	v1,176(sp)
9d00336c:	8c7e0000 	lw	s8,0(v1)
9d003370:	24750004 	addiu	s5,v1,4
9d003374:	26020002 	addiu	v0,s0,2
9d003378:	82050002 	lb	a1,2(s0)
9d00337c:	afb500b0 	sw	s5,176(sp)
9d003380:	07c1fe10 	bgez	s8,9d002bc4 <_do_print_cdfFnopuxX+0x1b0>
9d003384:	00408021 	move	s0,v0
9d003388:	0b400af1 	j	9d002bc4 <_do_print_cdfFnopuxX+0x1b0>
9d00338c:	241effff 	li	s8,-1
9d003390:	36f70001 	ori	s7,s7,0x1
9d003394:	26100001 	addiu	s0,s0,1
9d003398:	0b400c06 	j	9d003018 <_do_print_cdfFnopuxX+0x604>
9d00339c:	26100001 	addiu	s0,s0,1
9d0033a0:	24020058 	li	v0,88
9d0033a4:	24030078 	li	v1,120
9d0033a8:	0064100a 	movz	v0,v1,a0
9d0033ac:	a2620000 	sb	v0,0(s3)
9d0033b0:	24020030 	li	v0,48
9d0033b4:	a262ffff 	sb	v0,-1(s3)
9d0033b8:	0b400b99 	j	9d002e64 <_do_print_cdfFnopuxX+0x450>
9d0033bc:	2673fffe 	addiu	s3,s3,-2
9d0033c0:	8c950000 	lw	s5,0(a0)
9d0033c4:	0000a021 	move	s4,zero
9d0033c8:	24840004 	addiu	a0,a0,4
9d0033cc:	afa400b0 	sw	a0,176(sp)
9d0033d0:	0b400bc5 	j	9d002f14 <_do_print_cdfFnopuxX+0x500>
9d0033d4:	afa0007c 	sw	zero,124(sp)
9d0033d8:	8c950000 	lw	s5,0(a0)
9d0033dc:	24840004 	addiu	a0,a0,4
9d0033e0:	afa400b0 	sw	a0,176(sp)
9d0033e4:	0b400b57 	j	9d002d5c <_do_print_cdfFnopuxX+0x348>
9d0033e8:	0015a7c3 	sra	s4,s5,0x1f
9d0033ec:	36f78000 	ori	s7,s7,0x8000
9d0033f0:	26100001 	addiu	s0,s0,1
9d0033f4:	0b400c06 	j	9d003018 <_do_print_cdfFnopuxX+0x604>
9d0033f8:	26100001 	addiu	s0,s0,1
9d0033fc:	82620001 	lb	v0,1(s3)
9d003400:	38420030 	xori	v0,v0,0x30
9d003404:	0002102b 	sltu	v0,zero,v0
9d003408:	0b400ca9 	j	9d0032a4 <_do_print_cdfFnopuxX+0x890>
9d00340c:	00621823 	subu	v1,v1,v0
9d003410:	8c430000 	lw	v1,0(v0)
9d003414:	00001021 	move	v0,zero
9d003418:	8fa400b0 	lw	a0,176(sp)
9d00341c:	24840004 	addiu	a0,a0,4
9d003420:	afa400b0 	sw	a0,176(sp)
9d003424:	8fa40070 	lw	a0,112(sp)
9d003428:	0b400ba9 	j	9d002ea4 <_do_print_cdfFnopuxX+0x490>
9d00342c:	ac640000 	sw	a0,0(v1)
9d003430:	27a3005f 	addiu	v1,sp,95
9d003434:	afa30078 	sw	v1,120(sp)
9d003438:	0b400b83 	j	9d002e0c <_do_print_cdfFnopuxX+0x3f8>
9d00343c:	00609821 	move	s3,v1
9d003440:	27a2005f 	addiu	v0,sp,95
9d003444:	afa20078 	sw	v0,120(sp)
9d003448:	0b400b83 	j	9d002e0c <_do_print_cdfFnopuxX+0x3f8>
9d00344c:	00409821 	move	s3,v0
9d003450:	0f402a1d 	jal	9d00a874 <strlen>
9d003454:	02002021 	move	a0,s0
9d003458:	0b400c85 	j	9d003214 <_do_print_cdfFnopuxX+0x800>
9d00345c:	afb70010 	sw	s7,16(sp)
9d003460:	8c820000 	lw	v0,0(a0)
9d003464:	8fa40070 	lw	a0,112(sp)
9d003468:	00041fc3 	sra	v1,a0,0x1f
9d00346c:	8fa400b0 	lw	a0,176(sp)
9d003470:	24840004 	addiu	a0,a0,4
9d003474:	afa400b0 	sw	a0,176(sp)
9d003478:	8fa40070 	lw	a0,112(sp)
9d00347c:	ac440000 	sw	a0,0(v0)
9d003480:	ac430004 	sw	v1,4(v0)
9d003484:	0b400ba9 	j	9d002ea4 <_do_print_cdfFnopuxX+0x490>
9d003488:	00001021 	move	v0,zero
9d00348c:	8fa200b0 	lw	v0,176(sp)
9d003490:	8c430000 	lw	v1,0(v0)
9d003494:	00001021 	move	v0,zero
9d003498:	8fa400b0 	lw	a0,176(sp)
9d00349c:	24840004 	addiu	a0,a0,4
9d0034a0:	afa400b0 	sw	a0,176(sp)
9d0034a4:	11400003 	beqz	t2,9d0034b4 <_do_print_cdfFnopuxX+0xaa0>
9d0034a8:	8fa40070 	lw	a0,112(sp)
9d0034ac:	0b400ba9 	j	9d002ea4 <_do_print_cdfFnopuxX+0x490>
9d0034b0:	a0640000 	sb	a0,0(v1)
9d0034b4:	0b400ba9 	j	9d002ea4 <_do_print_cdfFnopuxX+0x490>
9d0034b8:	ac640000 	sw	a0,0(v1)

Disassembly of section .text.malloc:

9d0034bc <malloc>:
9d0034bc:	27bdffc0 	addiu	sp,sp,-64
9d0034c0:	afbf003c 	sw	ra,60(sp)
9d0034c4:	afbe0038 	sw	s8,56(sp)
9d0034c8:	afb70034 	sw	s7,52(sp)
9d0034cc:	afb60030 	sw	s6,48(sp)
9d0034d0:	afb5002c 	sw	s5,44(sp)
9d0034d4:	afb40028 	sw	s4,40(sp)
9d0034d8:	afb30024 	sw	s3,36(sp)
9d0034dc:	afb20020 	sw	s2,32(sp)
9d0034e0:	afb1001c 	sw	s1,28(sp)
9d0034e4:	afb00018 	sw	s0,24(sp)
9d0034e8:	2490000b 	addiu	s0,a0,11
9d0034ec:	2e020017 	sltiu	v0,s0,23
9d0034f0:	10400021 	beqz	v0,9d003578 <malloc+0xbc>
9d0034f4:	7c101004 	ins	s0,zero,0x0,0x3
9d0034f8:	2c840011 	sltiu	a0,a0,17
9d0034fc:	10800086 	beqz	a0,9d003718 <malloc+0x25c>
9d003500:	24100010 	li	s0,16
9d003504:	3c11a000 	lui	s1,0xa000
9d003508:	2631161c 	addiu	s1,s1,5660
9d00350c:	02301821 	addu	v1,s1,s0
9d003510:	8c62000c 	lw	v0,12(v1)
9d003514:	104300bb 	beq	v0,v1,9d003804 <malloc+0x348>
9d003518:	001040c2 	srl	t0,s0,0x3
9d00351c:	8c430004 	lw	v1,4(v0)
9d003520:	8c44000c 	lw	a0,12(v0)
9d003524:	8c450008 	lw	a1,8(v0)
9d003528:	7c030804 	ins	v1,zero,0x0,0x2
9d00352c:	00431821 	addu	v1,v0,v1
9d003530:	8c660004 	lw	a2,4(v1)
9d003534:	aca4000c 	sw	a0,12(a1)
9d003538:	24420008 	addiu	v0,v0,8
9d00353c:	34c60001 	ori	a2,a2,0x1
9d003540:	ac850008 	sw	a1,8(a0)
9d003544:	ac660004 	sw	a2,4(v1)
9d003548:	8fbf003c 	lw	ra,60(sp)
9d00354c:	8fbe0038 	lw	s8,56(sp)
9d003550:	8fb70034 	lw	s7,52(sp)
9d003554:	8fb60030 	lw	s6,48(sp)
9d003558:	8fb5002c 	lw	s5,44(sp)
9d00355c:	8fb40028 	lw	s4,40(sp)
9d003560:	8fb30024 	lw	s3,36(sp)
9d003564:	8fb20020 	lw	s2,32(sp)
9d003568:	8fb1001c 	lw	s1,28(sp)
9d00356c:	8fb00018 	lw	s0,24(sp)
9d003570:	03e00008 	jr	ra
9d003574:	27bd0040 	addiu	sp,sp,64
9d003578:	06000067 	bltz	s0,9d003718 <malloc+0x25c>
9d00357c:	0204202b 	sltu	a0,s0,a0
9d003580:	14800065 	bnez	a0,9d003718 <malloc+0x25c>
9d003584:	2e0201f8 	sltiu	v0,s0,504
9d003588:	1440ffdf 	bnez	v0,9d003508 <malloc+0x4c>
9d00358c:	3c11a000 	lui	s1,0xa000
9d003590:	00101242 	srl	v0,s0,0x9
9d003594:	1040000a 	beqz	v0,9d0035c0 <malloc+0x104>
9d003598:	2406007e 	li	a2,126
9d00359c:	2c430005 	sltiu	v1,v0,5
9d0035a0:	1460003d 	bnez	v1,9d003698 <malloc+0x1dc>
9d0035a4:	00104182 	srl	t0,s0,0x6
9d0035a8:	2c430015 	sltiu	v1,v0,21
9d0035ac:	106000fc 	beqz	v1,9d0039a0 <malloc+0x4e4>
9d0035b0:	2c430055 	sltiu	v1,v0,85
9d0035b4:	2448005b 	addiu	t0,v0,91
9d0035b8:	0b400d72 	j	9d0035c8 <malloc+0x10c>
9d0035bc:	00083040 	sll	a2,t0,0x1
9d0035c0:	2408003f 	li	t0,63
9d0035c4:	3c11a000 	lui	s1,0xa000
9d0035c8:	00063080 	sll	a2,a2,0x2
9d0035cc:	2631161c 	addiu	s1,s1,5660
9d0035d0:	02263021 	addu	a2,s1,a2
9d0035d4:	8cc2000c 	lw	v0,12(a2)
9d0035d8:	54c20009 	bnel	a2,v0,9d003600 <malloc+0x144>
9d0035dc:	8c440004 	lw	a0,4(v0)
9d0035e0:	0b400d87 	j	9d00361c <malloc+0x160>
9d0035e4:	25080001 	addiu	t0,t0,1
9d0035e8:	0463005b 	bgezl	v1,9d003758 <malloc+0x29c>
9d0035ec:	00442021 	addu	a0,v0,a0
9d0035f0:	8c42000c 	lw	v0,12(v0)
9d0035f4:	50c20009 	beql	a2,v0,9d00361c <malloc+0x160>
9d0035f8:	25080001 	addiu	t0,t0,1
9d0035fc:	8c440004 	lw	a0,4(v0)
9d003600:	7c040804 	ins	a0,zero,0x0,0x2
9d003604:	00901823 	subu	v1,a0,s0
9d003608:	28650010 	slti	a1,v1,16
9d00360c:	14a0fff6 	bnez	a1,9d0035e8 <malloc+0x12c>
9d003610:	00000000 	nop
9d003614:	2508ffff 	addiu	t0,t0,-1
9d003618:	25080001 	addiu	t0,t0,1
9d00361c:	8e220010 	lw	v0,16(s1)
9d003620:	3c06a000 	lui	a2,0xa000
9d003624:	24c61624 	addiu	a2,a2,5668
9d003628:	5046007c 	beql	v0,a2,9d00381c <malloc+0x360>
9d00362c:	8e240004 	lw	a0,4(s1)
9d003630:	8c440004 	lw	a0,4(v0)
9d003634:	7c040804 	ins	a0,zero,0x0,0x2
9d003638:	00901823 	subu	v1,a0,s0
9d00363c:	28650010 	slti	a1,v1,16
9d003640:	50a00059 	beqzl	a1,9d0037a8 <malloc+0x2ec>
9d003644:	00502021 	addu	a0,v0,s0
9d003648:	ae260014 	sw	a2,20(s1)
9d00364c:	04600015 	bltz	v1,9d0036a4 <malloc+0x1e8>
9d003650:	ae260010 	sw	a2,16(s1)
9d003654:	00442021 	addu	a0,v0,a0
9d003658:	8c830004 	lw	v1,4(a0)
9d00365c:	24420008 	addiu	v0,v0,8
9d003660:	34630001 	ori	v1,v1,0x1
9d003664:	ac830004 	sw	v1,4(a0)
9d003668:	8fbf003c 	lw	ra,60(sp)
9d00366c:	8fbe0038 	lw	s8,56(sp)
9d003670:	8fb70034 	lw	s7,52(sp)
9d003674:	8fb60030 	lw	s6,48(sp)
9d003678:	8fb5002c 	lw	s5,44(sp)
9d00367c:	8fb40028 	lw	s4,40(sp)
9d003680:	8fb30024 	lw	s3,36(sp)
9d003684:	8fb20020 	lw	s2,32(sp)
9d003688:	8fb1001c 	lw	s1,28(sp)
9d00368c:	8fb00018 	lw	s0,24(sp)
9d003690:	03e00008 	jr	ra
9d003694:	27bd0040 	addiu	sp,sp,64
9d003698:	25080038 	addiu	t0,t0,56
9d00369c:	0b400d71 	j	9d0035c4 <malloc+0x108>
9d0036a0:	00083040 	sll	a2,t0,0x1
9d0036a4:	2c830200 	sltiu	v1,a0,512
9d0036a8:	546000c6 	bnezl	v1,9d0039c4 <malloc+0x508>
9d0036ac:	000420c2 	srl	a0,a0,0x3
9d0036b0:	00041a42 	srl	v1,a0,0x9
9d0036b4:	2c650005 	sltiu	a1,v1,5
9d0036b8:	10a0014b 	beqz	a1,9d003be8 <malloc+0x72c>
9d0036bc:	2c650015 	sltiu	a1,v1,21
9d0036c0:	00042982 	srl	a1,a0,0x6
9d0036c4:	24a50038 	addiu	a1,a1,56
9d0036c8:	000538c0 	sll	a3,a1,0x3
9d0036cc:	02273821 	addu	a3,s1,a3
9d0036d0:	8ce30008 	lw	v1,8(a3)
9d0036d4:	50670151 	beql	v1,a3,9d003c1c <malloc+0x760>
9d0036d8:	8e240004 	lw	a0,4(s1)
9d0036dc:	8c650004 	lw	a1,4(v1)
9d0036e0:	7c050804 	ins	a1,zero,0x0,0x2
9d0036e4:	0085282b 	sltu	a1,a0,a1
9d0036e8:	50a00005 	beqzl	a1,9d003700 <malloc+0x244>
9d0036ec:	8c65000c 	lw	a1,12(v1)
9d0036f0:	8c630008 	lw	v1,8(v1)
9d0036f4:	54e3fffa 	bnel	a3,v1,9d0036e0 <malloc+0x224>
9d0036f8:	8c650004 	lw	a1,4(v1)
9d0036fc:	8c65000c 	lw	a1,12(v1)
9d003700:	8e240004 	lw	a0,4(s1)
9d003704:	ac45000c 	sw	a1,12(v0)
9d003708:	ac430008 	sw	v1,8(v0)
9d00370c:	aca20008 	sw	v0,8(a1)
9d003710:	0b400e07 	j	9d00381c <malloc+0x360>
9d003714:	ac62000c 	sw	v0,12(v1)
9d003718:	2403000c 	li	v1,12
9d00371c:	3c02a000 	lui	v0,0xa000
9d003720:	ac430030 	sw	v1,48(v0)
9d003724:	00001021 	move	v0,zero
9d003728:	8fbf003c 	lw	ra,60(sp)
9d00372c:	8fbe0038 	lw	s8,56(sp)
9d003730:	8fb70034 	lw	s7,52(sp)
9d003734:	8fb60030 	lw	s6,48(sp)
9d003738:	8fb5002c 	lw	s5,44(sp)
9d00373c:	8fb40028 	lw	s4,40(sp)
9d003740:	8fb30024 	lw	s3,36(sp)
9d003744:	8fb20020 	lw	s2,32(sp)
9d003748:	8fb1001c 	lw	s1,28(sp)
9d00374c:	8fb00018 	lw	s0,24(sp)
9d003750:	03e00008 	jr	ra
9d003754:	27bd0040 	addiu	sp,sp,64
9d003758:	8c860004 	lw	a2,4(a0)
9d00375c:	8c43000c 	lw	v1,12(v0)
9d003760:	8c450008 	lw	a1,8(v0)
9d003764:	34c60001 	ori	a2,a2,0x1
9d003768:	24420008 	addiu	v0,v0,8
9d00376c:	aca3000c 	sw	v1,12(a1)
9d003770:	ac650008 	sw	a1,8(v1)
9d003774:	ac860004 	sw	a2,4(a0)
9d003778:	8fbf003c 	lw	ra,60(sp)
9d00377c:	8fbe0038 	lw	s8,56(sp)
9d003780:	8fb70034 	lw	s7,52(sp)
9d003784:	8fb60030 	lw	s6,48(sp)
9d003788:	8fb5002c 	lw	s5,44(sp)
9d00378c:	8fb40028 	lw	s4,40(sp)
9d003790:	8fb30024 	lw	s3,36(sp)
9d003794:	8fb20020 	lw	s2,32(sp)
9d003798:	8fb1001c 	lw	s1,28(sp)
9d00379c:	8fb00018 	lw	s0,24(sp)
9d0037a0:	03e00008 	jr	ra
9d0037a4:	27bd0040 	addiu	sp,sp,64
9d0037a8:	36100001 	ori	s0,s0,0x1
9d0037ac:	34670001 	ori	a3,v1,0x1
9d0037b0:	00832821 	addu	a1,a0,v1
9d0037b4:	ac500004 	sw	s0,4(v0)
9d0037b8:	24420008 	addiu	v0,v0,8
9d0037bc:	ae240014 	sw	a0,20(s1)
9d0037c0:	ae240010 	sw	a0,16(s1)
9d0037c4:	ac86000c 	sw	a2,12(a0)
9d0037c8:	ac860008 	sw	a2,8(a0)
9d0037cc:	ac870004 	sw	a3,4(a0)
9d0037d0:	aca30000 	sw	v1,0(a1)
9d0037d4:	8fbf003c 	lw	ra,60(sp)
9d0037d8:	8fbe0038 	lw	s8,56(sp)
9d0037dc:	8fb70034 	lw	s7,52(sp)
9d0037e0:	8fb60030 	lw	s6,48(sp)
9d0037e4:	8fb5002c 	lw	s5,44(sp)
9d0037e8:	8fb40028 	lw	s4,40(sp)
9d0037ec:	8fb30024 	lw	s3,36(sp)
9d0037f0:	8fb20020 	lw	s2,32(sp)
9d0037f4:	8fb1001c 	lw	s1,28(sp)
9d0037f8:	8fb00018 	lw	s0,24(sp)
9d0037fc:	03e00008 	jr	ra
9d003800:	27bd0040 	addiu	sp,sp,64
9d003804:	24430008 	addiu	v1,v0,8
9d003808:	8c420014 	lw	v0,20(v0)
9d00380c:	1062ff83 	beq	v1,v0,9d00361c <malloc+0x160>
9d003810:	25080002 	addiu	t0,t0,2
9d003814:	0b400d48 	j	9d003520 <malloc+0x64>
9d003818:	8c430004 	lw	v1,4(v0)
9d00381c:	00081083 	sra	v0,t0,0x2
9d003820:	24070001 	li	a3,1
9d003824:	00473804 	sllv	a3,a3,v0
9d003828:	0087102b 	sltu	v0,a0,a3
9d00382c:	5440002a 	bnezl	v0,9d0038d8 <malloc+0x41c>
9d003830:	8e320008 	lw	s2,8(s1)
9d003834:	00871024 	and	v0,a0,a3
9d003838:	50400070 	beqzl	v0,9d0039fc <malloc+0x540>
9d00383c:	00073840 	sll	a3,a3,0x1
9d003840:	000850c0 	sll	t2,t0,0x3
9d003844:	022a5021 	addu	t2,s1,t2
9d003848:	01404821 	move	t1,t2
9d00384c:	01005821 	move	t3,t0
9d003850:	8d22000c 	lw	v0,12(t1)
9d003854:	55220009 	bnel	t1,v0,9d00387c <malloc+0x3c0>
9d003858:	8c440004 	lw	a0,4(v0)
9d00385c:	0b400e8c 	j	9d003a30 <malloc+0x574>
9d003860:	256b0001 	addiu	t3,t3,1
9d003864:	04630090 	bgezl	v1,9d003aa8 <malloc+0x5ec>
9d003868:	00442021 	addu	a0,v0,a0
9d00386c:	8c42000c 	lw	v0,12(v0)
9d003870:	5122006f 	beql	t1,v0,9d003a30 <malloc+0x574>
9d003874:	256b0001 	addiu	t3,t3,1
9d003878:	8c440004 	lw	a0,4(v0)
9d00387c:	7c040804 	ins	a0,zero,0x0,0x2
9d003880:	00901823 	subu	v1,a0,s0
9d003884:	28650010 	slti	a1,v1,16
9d003888:	14a0fff6 	bnez	a1,9d003864 <malloc+0x3a8>
9d00388c:	00000000 	nop
9d003890:	8c45000c 	lw	a1,12(v0)
9d003894:	8c470008 	lw	a3,8(v0)
9d003898:	00502021 	addu	a0,v0,s0
9d00389c:	36100001 	ori	s0,s0,0x1
9d0038a0:	34690001 	ori	t1,v1,0x1
9d0038a4:	00834021 	addu	t0,a0,v1
9d0038a8:	ac500004 	sw	s0,4(v0)
9d0038ac:	24420008 	addiu	v0,v0,8
9d0038b0:	ace5000c 	sw	a1,12(a3)
9d0038b4:	aca70008 	sw	a3,8(a1)
9d0038b8:	ae240014 	sw	a0,20(s1)
9d0038bc:	ae240010 	sw	a0,16(s1)
9d0038c0:	ac86000c 	sw	a2,12(a0)
9d0038c4:	ac860008 	sw	a2,8(a0)
9d0038c8:	ac890004 	sw	t1,4(a0)
9d0038cc:	0b400d52 	j	9d003548 <malloc+0x8c>
9d0038d0:	ad030000 	sw	v1,0(t0)
9d0038d4:	8e320008 	lw	s2,8(s1)
9d0038d8:	8e540004 	lw	s4,4(s2)
9d0038dc:	7c140804 	ins	s4,zero,0x0,0x2
9d0038e0:	0290102b 	sltu	v0,s4,s0
9d0038e4:	14400004 	bnez	v0,9d0038f8 <malloc+0x43c>
9d0038e8:	02901023 	subu	v0,s4,s0
9d0038ec:	28430010 	slti	v1,v0,16
9d0038f0:	10600024 	beqz	v1,9d003984 <malloc+0x4c8>
9d0038f4:	02501821 	addu	v1,s2,s0
9d0038f8:	3c02a000 	lui	v0,0xa000
9d0038fc:	8c551bb0 	lw	s5,7088(v0)
9d003900:	3c1ea000 	lui	s8,0xa000
9d003904:	0254b821 	addu	s7,s2,s4
9d003908:	26b50010 	addiu	s5,s5,16
9d00390c:	0f402e1a 	jal	9d00b868 <getpagesize>
9d003910:	02b0a821 	addu	s5,s5,s0
9d003914:	0040b021 	move	s6,v0
9d003918:	8fc31614 	lw	v1,5652(s8)
9d00391c:	2402ffff 	li	v0,-1
9d003920:	10620004 	beq	v1,v0,9d003934 <malloc+0x478>
9d003924:	26a2ffff 	addiu	v0,s5,-1
9d003928:	00561021 	addu	v0,v0,s6
9d00392c:	0016a823 	negu	s5,s6
9d003930:	02a2a824 	and	s5,s5,v0
9d003934:	0f402c49 	jal	9d00b124 <sbrk>
9d003938:	02a02021 	move	a0,s5
9d00393c:	00409821 	move	s3,v0
9d003940:	2402ffff 	li	v0,-1
9d003944:	52620007 	beql	s3,v0,9d003964 <malloc+0x4a8>
9d003948:	8e320008 	lw	s2,8(s1)
9d00394c:	0277102b 	sltu	v0,s3,s7
9d003950:	1040005e 	beqz	v0,9d003acc <malloc+0x610>
9d003954:	3c03a000 	lui	v1,0xa000
9d003958:	5251005d 	beql	s2,s1,9d003ad0 <malloc+0x614>
9d00395c:	8c621b80 	lw	v0,7040(v1)
9d003960:	8e320008 	lw	s2,8(s1)
9d003964:	8e420004 	lw	v0,4(s2)
9d003968:	7c020804 	ins	v0,zero,0x0,0x2
9d00396c:	0050182b 	sltu	v1,v0,s0
9d003970:	146000a1 	bnez	v1,9d003bf8 <malloc+0x73c>
9d003974:	00501023 	subu	v0,v0,s0
9d003978:	28430010 	slti	v1,v0,16
9d00397c:	1460009e 	bnez	v1,9d003bf8 <malloc+0x73c>
9d003980:	02501821 	addu	v1,s2,s0
9d003984:	36100001 	ori	s0,s0,0x1
9d003988:	34440001 	ori	a0,v0,0x1
9d00398c:	ae500004 	sw	s0,4(s2)
9d003990:	26420008 	addiu	v0,s2,8
9d003994:	ae230008 	sw	v1,8(s1)
9d003998:	0b400d52 	j	9d003548 <malloc+0x8c>
9d00399c:	ac640004 	sw	a0,4(v1)
9d0039a0:	14600020 	bnez	v1,9d003a24 <malloc+0x568>
9d0039a4:	00104302 	srl	t0,s0,0xc
9d0039a8:	2c430155 	sltiu	v1,v0,341
9d0039ac:	10600088 	beqz	v1,9d003bd0 <malloc+0x714>
9d0039b0:	2c420555 	sltiu	v0,v0,1365
9d0039b4:	001043c2 	srl	t0,s0,0xf
9d0039b8:	25080077 	addiu	t0,t0,119
9d0039bc:	0b400d71 	j	9d0035c4 <malloc+0x108>
9d0039c0:	00083040 	sll	a2,t0,0x1
9d0039c4:	000418c0 	sll	v1,a0,0x3
9d0039c8:	02231821 	addu	v1,s1,v1
9d0039cc:	8e270004 	lw	a3,4(s1)
9d0039d0:	8c650008 	lw	a1,8(v1)
9d0039d4:	00042083 	sra	a0,a0,0x2
9d0039d8:	24090001 	li	t1,1
9d0039dc:	00892004 	sllv	a0,t1,a0
9d0039e0:	00872025 	or	a0,a0,a3
9d0039e4:	ac43000c 	sw	v1,12(v0)
9d0039e8:	ac450008 	sw	a1,8(v0)
9d0039ec:	ae240004 	sw	a0,4(s1)
9d0039f0:	ac620008 	sw	v0,8(v1)
9d0039f4:	0b400e07 	j	9d00381c <malloc+0x360>
9d0039f8:	aca2000c 	sw	v0,12(a1)
9d0039fc:	7c080804 	ins	t0,zero,0x0,0x2
9d003a00:	00871024 	and	v0,a0,a3
9d003a04:	1440ff8e 	bnez	v0,9d003840 <malloc+0x384>
9d003a08:	25080004 	addiu	t0,t0,4
9d003a0c:	00073840 	sll	a3,a3,0x1
9d003a10:	00871024 	and	v0,a0,a3
9d003a14:	1040fffd 	beqz	v0,9d003a0c <malloc+0x550>
9d003a18:	25080004 	addiu	t0,t0,4
9d003a1c:	0b400e11 	j	9d003844 <malloc+0x388>
9d003a20:	000850c0 	sll	t2,t0,0x3
9d003a24:	2508006e 	addiu	t0,t0,110
9d003a28:	0b400d71 	j	9d0035c4 <malloc+0x108>
9d003a2c:	00083040 	sll	a2,t0,0x1
9d003a30:	31620003 	andi	v0,t3,0x3
9d003a34:	1440ff86 	bnez	v0,9d003850 <malloc+0x394>
9d003a38:	25290008 	addiu	t1,t1,8
9d003a3c:	0b400e94 	j	9d003a50 <malloc+0x594>
9d003a40:	2542fff8 	addiu	v0,t2,-8
9d003a44:	15420009 	bne	t2,v0,9d003a6c <malloc+0x5b0>
9d003a48:	2508ffff 	addiu	t0,t0,-1
9d003a4c:	2542fff8 	addiu	v0,t2,-8
9d003a50:	31030003 	andi	v1,t0,0x3
9d003a54:	5460fffb 	bnezl	v1,9d003a44 <malloc+0x588>
9d003a58:	8d4a0000 	lw	t2,0(t2)
9d003a5c:	8e220004 	lw	v0,4(s1)
9d003a60:	00071827 	nor	v1,zero,a3
9d003a64:	00621024 	and	v0,v1,v0
9d003a68:	ae220004 	sw	v0,4(s1)
9d003a6c:	8e220004 	lw	v0,4(s1)
9d003a70:	00073840 	sll	a3,a3,0x1
9d003a74:	0047182b 	sltu	v1,v0,a3
9d003a78:	5460ff97 	bnezl	v1,9d0038d8 <malloc+0x41c>
9d003a7c:	8e320008 	lw	s2,8(s1)
9d003a80:	10e0ff94 	beqz	a3,9d0038d4 <malloc+0x418>
9d003a84:	00e21824 	and	v1,a3,v0
9d003a88:	1460ff6d 	bnez	v1,9d003840 <malloc+0x384>
9d003a8c:	01604021 	move	t0,t3
9d003a90:	00073840 	sll	a3,a3,0x1
9d003a94:	00e21824 	and	v1,a3,v0
9d003a98:	1060fffd 	beqz	v1,9d003a90 <malloc+0x5d4>
9d003a9c:	25080004 	addiu	t0,t0,4
9d003aa0:	0b400e11 	j	9d003844 <malloc+0x388>
9d003aa4:	000850c0 	sll	t2,t0,0x3
9d003aa8:	8c860004 	lw	a2,4(a0)
9d003aac:	8c43000c 	lw	v1,12(v0)
9d003ab0:	8c450008 	lw	a1,8(v0)
9d003ab4:	34c60001 	ori	a2,a2,0x1
9d003ab8:	ac860004 	sw	a2,4(a0)
9d003abc:	24420008 	addiu	v0,v0,8
9d003ac0:	aca3000c 	sw	v1,12(a1)
9d003ac4:	0b400d52 	j	9d003548 <malloc+0x8c>
9d003ac8:	ac650008 	sw	a1,8(v1)
9d003acc:	8c621b80 	lw	v0,7040(v1)
9d003ad0:	26c5ffff 	addiu	a1,s6,-1
9d003ad4:	02a21021 	addu	v0,s5,v0
9d003ad8:	12f3005c 	beq	s7,s3,9d003c4c <malloc+0x790>
9d003adc:	ac621b80 	sw	v0,7040(v1)
9d003ae0:	8fc61614 	lw	a2,5652(s8)
9d003ae4:	2404ffff 	li	a0,-1
9d003ae8:	50c40068 	beql	a2,a0,9d003c8c <malloc+0x7d0>
9d003aec:	3c02a000 	lui	v0,0xa000
9d003af0:	0277b823 	subu	s7,s3,s7
9d003af4:	00571021 	addu	v0,v0,s7
9d003af8:	ac621b80 	sw	v0,7040(v1)
9d003afc:	32640007 	andi	a0,s3,0x7
9d003b00:	10800004 	beqz	a0,9d003b14 <malloc+0x658>
9d003b04:	00001021 	move	v0,zero
9d003b08:	24020008 	li	v0,8
9d003b0c:	00441023 	subu	v0,v0,a0
9d003b10:	02629821 	addu	s3,s3,v0
9d003b14:	0275a821 	addu	s5,s3,s5
9d003b18:	00561021 	addu	v0,v0,s6
9d003b1c:	02a52824 	and	a1,s5,a1
9d003b20:	0045a823 	subu	s5,v0,a1
9d003b24:	02a02021 	move	a0,s5
9d003b28:	0f402c49 	jal	9d00b124 <sbrk>
9d003b2c:	afa30010 	sw	v1,16(sp)
9d003b30:	2404ffff 	li	a0,-1
9d003b34:	10440052 	beq	v0,a0,9d003c80 <malloc+0x7c4>
9d003b38:	8fa30010 	lw	v1,16(sp)
9d003b3c:	00531023 	subu	v0,v0,s3
9d003b40:	02a22021 	addu	a0,s5,v0
9d003b44:	34840001 	ori	a0,a0,0x1
9d003b48:	8c621b80 	lw	v0,7040(v1)
9d003b4c:	ae330008 	sw	s3,8(s1)
9d003b50:	02a21021 	addu	v0,s5,v0
9d003b54:	ac621b80 	sw	v0,7040(v1)
9d003b58:	1251000f 	beq	s2,s1,9d003b98 <malloc+0x6dc>
9d003b5c:	ae640004 	sw	a0,4(s3)
9d003b60:	2e830010 	sltiu	v1,s4,16
9d003b64:	14600028 	bnez	v1,9d003c08 <malloc+0x74c>
9d003b68:	2683fff4 	addiu	v1,s4,-12
9d003b6c:	7c031004 	ins	v1,zero,0x0,0x3
9d003b70:	02432021 	addu	a0,s2,v1
9d003b74:	24050005 	li	a1,5
9d003b78:	ac850004 	sw	a1,4(a0)
9d003b7c:	ac850008 	sw	a1,8(a0)
9d003b80:	8e450004 	lw	a1,4(s2)
9d003b84:	2c640010 	sltiu	a0,v1,16
9d003b88:	30a50001 	andi	a1,a1,0x1
9d003b8c:	00651825 	or	v1,v1,a1
9d003b90:	10800036 	beqz	a0,9d003c6c <malloc+0x7b0>
9d003b94:	ae430004 	sw	v1,4(s2)
9d003b98:	3c03a000 	lui	v1,0xa000
9d003b9c:	8c641bac 	lw	a0,7084(v1)
9d003ba0:	0082202b 	sltu	a0,a0,v0
9d003ba4:	54800001 	bnezl	a0,9d003bac <malloc+0x6f0>
9d003ba8:	ac621bac 	sw	v0,7084(v1)
9d003bac:	3c03a000 	lui	v1,0xa000
9d003bb0:	8c641ba8 	lw	a0,7080(v1)
9d003bb4:	0082202b 	sltu	a0,a0,v0
9d003bb8:	10800002 	beqz	a0,9d003bc4 <malloc+0x708>
9d003bbc:	8e320008 	lw	s2,8(s1)
9d003bc0:	ac621ba8 	sw	v0,7080(v1)
9d003bc4:	8e420004 	lw	v0,4(s2)
9d003bc8:	0b400e5b 	j	9d00396c <malloc+0x4b0>
9d003bcc:	7c020804 	ins	v0,zero,0x0,0x2
9d003bd0:	5040000b 	beqzl	v0,9d003c00 <malloc+0x744>
9d003bd4:	240600fc 	li	a2,252
9d003bd8:	00104482 	srl	t0,s0,0x12
9d003bdc:	2508007c 	addiu	t0,t0,124
9d003be0:	0b400d71 	j	9d0035c4 <malloc+0x108>
9d003be4:	00083040 	sll	a2,t0,0x1
9d003be8:	50a00013 	beqzl	a1,9d003c38 <malloc+0x77c>
9d003bec:	2c650055 	sltiu	a1,v1,85
9d003bf0:	0b400db2 	j	9d0036c8 <malloc+0x20c>
9d003bf4:	2465005b 	addiu	a1,v1,91
9d003bf8:	0b400d52 	j	9d003548 <malloc+0x8c>
9d003bfc:	00001021 	move	v0,zero
9d003c00:	0b400d71 	j	9d0035c4 <malloc+0x108>
9d003c04:	2408007e 	li	t0,126
9d003c08:	24020001 	li	v0,1
9d003c0c:	ae620004 	sw	v0,4(s3)
9d003c10:	02609021 	move	s2,s3
9d003c14:	0b400e5b 	j	9d00396c <malloc+0x4b0>
9d003c18:	00001021 	move	v0,zero
9d003c1c:	00052883 	sra	a1,a1,0x2
9d003c20:	24070001 	li	a3,1
9d003c24:	00a72804 	sllv	a1,a3,a1
9d003c28:	00a42025 	or	a0,a1,a0
9d003c2c:	ae240004 	sw	a0,4(s1)
9d003c30:	0b400dc1 	j	9d003704 <malloc+0x248>
9d003c34:	00602821 	move	a1,v1
9d003c38:	50a00016 	beqzl	a1,9d003c94 <malloc+0x7d8>
9d003c3c:	2c650155 	sltiu	a1,v1,341
9d003c40:	00042b02 	srl	a1,a0,0xc
9d003c44:	0b400db2 	j	9d0036c8 <malloc+0x20c>
9d003c48:	24a5006e 	addiu	a1,a1,110
9d003c4c:	02e52024 	and	a0,s7,a1
9d003c50:	5480ffa4 	bnezl	a0,9d003ae4 <malloc+0x628>
9d003c54:	8fc61614 	lw	a2,5652(s8)
9d003c58:	8e230008 	lw	v1,8(s1)
9d003c5c:	02b42021 	addu	a0,s5,s4
9d003c60:	34840001 	ori	a0,a0,0x1
9d003c64:	0b400ee6 	j	9d003b98 <malloc+0x6dc>
9d003c68:	ac640004 	sw	a0,4(v1)
9d003c6c:	0f40215e 	jal	9d008578 <free>
9d003c70:	26440008 	addiu	a0,s2,8
9d003c74:	3c02a000 	lui	v0,0xa000
9d003c78:	0b400ee6 	j	9d003b98 <malloc+0x6dc>
9d003c7c:	8c421b80 	lw	v0,7040(v0)
9d003c80:	24040001 	li	a0,1
9d003c84:	0b400ed2 	j	9d003b48 <malloc+0x68c>
9d003c88:	0000a821 	move	s5,zero
9d003c8c:	0b400ebf 	j	9d003afc <malloc+0x640>
9d003c90:	ac531614 	sw	s3,5652(v0)
9d003c94:	10a00004 	beqz	a1,9d003ca8 <malloc+0x7ec>
9d003c98:	2c630555 	sltiu	v1,v1,1365
9d003c9c:	00042bc2 	srl	a1,a0,0xf
9d003ca0:	0b400db2 	j	9d0036c8 <malloc+0x20c>
9d003ca4:	24a50077 	addiu	a1,a1,119
9d003ca8:	1060fe87 	beqz	v1,9d0036c8 <malloc+0x20c>
9d003cac:	2405007e 	li	a1,126
9d003cb0:	00042c82 	srl	a1,a0,0x12
9d003cb4:	0b400db2 	j	9d0036c8 <malloc+0x20c>
9d003cb8:	24a5007c 	addiu	a1,a1,124

Disassembly of section .text._fconvert:

9d003cbc <_fconvert>:
9d003cbc:	27bdfd88 	addiu	sp,sp,-632
9d003cc0:	afbf0274 	sw	ra,628(sp)
9d003cc4:	afbe0270 	sw	s8,624(sp)
9d003cc8:	afb7026c 	sw	s7,620(sp)
9d003ccc:	afb60268 	sw	s6,616(sp)
9d003cd0:	afb50264 	sw	s5,612(sp)
9d003cd4:	afb40260 	sw	s4,608(sp)
9d003cd8:	afb3025c 	sw	s3,604(sp)
9d003cdc:	afb20258 	sw	s2,600(sp)
9d003ce0:	afb10254 	sw	s1,596(sp)
9d003ce4:	afb00250 	sw	s0,592(sp)
9d003ce8:	00e08021 	move	s0,a3
9d003cec:	3c027ff0 	lui	v0,0x7ff0
9d003cf0:	00e21824 	and	v1,a3,v0
9d003cf4:	afa40278 	sw	a0,632(sp)
9d003cf8:	00c08821 	move	s1,a2
9d003cfc:	8fb20290 	lw	s2,656(sp)
9d003d00:	97a40294 	lhu	a0,660(sp)
9d003d04:	106200f6 	beq	v1,v0,9d0040e0 <_fconvert+0x424>
9d003d08:	afa40240 	sw	a0,576(sp)
9d003d0c:	2402ffff 	li	v0,-1
9d003d10:	1242014d 	beq	s2,v0,9d004248 <_fconvert+0x58c>
9d003d14:	2a420028 	slti	v0,s2,40
9d003d18:	14400009 	bnez	v0,9d003d40 <_fconvert+0x84>
9d003d1c:	afa00244 	sw	zero,580(sp)
9d003d20:	8fa30288 	lw	v1,648(sp)
9d003d24:	7c032944 	ins	v1,zero,0x5,0x1
9d003d28:	24020047 	li	v0,71
9d003d2c:	10620163 	beq	v1,v0,9d0042bc <_fconvert+0x600>
9d003d30:	8fa40240 	lw	a0,576(sp)
9d003d34:	2652ffd9 	addiu	s2,s2,-39
9d003d38:	afb20244 	sw	s2,580(sp)
9d003d3c:	24120027 	li	s2,39
9d003d40:	a3a00019 	sb	zero,25(sp)
9d003d44:	0600007e 	bltz	s0,9d003f40 <_fconvert+0x284>
9d003d48:	afa00248 	sw	zero,584(sp)
9d003d4c:	02202021 	move	a0,s1
9d003d50:	02002821 	move	a1,s0
9d003d54:	0f40265c 	jal	9d009970 <dpmodf>
9d003d58:	27a60230 	addiu	a2,sp,560
9d003d5c:	afa20238 	sw	v0,568(sp)
9d003d60:	afa3023c 	sw	v1,572(sp)
9d003d64:	8fb00230 	lw	s0,560(sp)
9d003d68:	8fb10234 	lw	s1,564(sp)
9d003d6c:	00003021 	move	a2,zero
9d003d70:	00003821 	move	a3,zero
9d003d74:	02002021 	move	a0,s0
9d003d78:	0f402611 	jal	9d009844 <__eqdf2>
9d003d7c:	02202821 	move	a1,s1
9d003d80:	1040015a 	beqz	v0,9d0042ec <_fconvert+0x630>
9d003d84:	0000a821 	move	s5,zero
9d003d88:	3c139d01 	lui	s3,0x9d01
9d003d8c:	8e77ac88 	lw	s7,-21368(s3)
9d003d90:	8e76ac8c 	lw	s6,-21364(s3)
9d003d94:	27b40218 	addiu	s4,sp,536
9d003d98:	02e0f021 	move	s8,s7
9d003d9c:	02c09821 	move	s3,s6
9d003da0:	02e03021 	move	a2,s7
9d003da4:	02c03821 	move	a3,s6
9d003da8:	02002021 	move	a0,s0
9d003dac:	0f401538 	jal	9d0054e0 <__divdf3>
9d003db0:	02202821 	move	a1,s1
9d003db4:	00402021 	move	a0,v0
9d003db8:	00602821 	move	a1,v1
9d003dbc:	0f40265c 	jal	9d009970 <dpmodf>
9d003dc0:	27a60230 	addiu	a2,sp,560
9d003dc4:	3c049d01 	lui	a0,0x9d01
9d003dc8:	2484ac90 	addiu	a0,a0,-21360
9d003dcc:	8c860000 	lw	a2,0(a0)
9d003dd0:	8c870004 	lw	a3,4(a0)
9d003dd4:	00402021 	move	a0,v0
9d003dd8:	00602821 	move	a1,v1
9d003ddc:	afa20228 	sw	v0,552(sp)
9d003de0:	0f401ad9 	jal	9d006b64 <__adddf3>
9d003de4:	afa3022c 	sw	v1,556(sp)
9d003de8:	00402021 	move	a0,v0
9d003dec:	00602821 	move	a1,v1
9d003df0:	03c03021 	move	a2,s8
9d003df4:	0f401e8f 	jal	9d007a3c <.LFE23>
9d003df8:	02603821 	move	a3,s3
9d003dfc:	00402021 	move	a0,v0
9d003e00:	0f402a42 	jal	9d00a908 <__fixdfsi>
9d003e04:	00602821 	move	a1,v1
9d003e08:	8fb00230 	lw	s0,560(sp)
9d003e0c:	8fb10234 	lw	s1,564(sp)
9d003e10:	2694ffff 	addiu	s4,s4,-1
9d003e14:	24420030 	addiu	v0,v0,48
9d003e18:	02002021 	move	a0,s0
9d003e1c:	02202821 	move	a1,s1
9d003e20:	00003021 	move	a2,zero
9d003e24:	00003821 	move	a3,zero
9d003e28:	a2820001 	sb	v0,1(s4)
9d003e2c:	0f402611 	jal	9d009844 <__eqdf2>
9d003e30:	26b50001 	addiu	s5,s5,1
9d003e34:	1440ffdb 	bnez	v0,9d003da4 <_fconvert+0xe8>
9d003e38:	02e03021 	move	a2,s7
9d003e3c:	24020046 	li	v0,70
9d003e40:	8fa50288 	lw	a1,648(sp)
9d003e44:	10a20043 	beq	a1,v0,9d003f54 <_fconvert+0x298>
9d003e48:	24020066 	li	v0,102
9d003e4c:	10a20041 	beq	a1,v0,9d003f54 <_fconvert+0x298>
9d003e50:	0000b021 	move	s6,zero
9d003e54:	83a40019 	lb	a0,25(sp)
9d003e58:	27a20019 	addiu	v0,sp,25
9d003e5c:	27a3001a 	addiu	v1,sp,26
9d003e60:	0064100a 	movz	v0,v1,a0
9d003e64:	8fa40248 	lw	a0,584(sp)
9d003e68:	10800029 	beqz	a0,9d003f10 <_fconvert+0x254>
9d003e6c:	8fa50240 	lw	a1,576(sp)
9d003e70:	2452ffff 	addiu	s2,v0,-1
9d003e74:	a044ffff 	sb	a0,-1(v0)
9d003e78:	26d60001 	addiu	s6,s6,1
9d003e7c:	8fa50240 	lw	a1,576(sp)
9d003e80:	30b10008 	andi	s1,a1,0x8
9d003e84:	3231ffff 	andi	s1,s1,0xffff
9d003e88:	8fa20244 	lw	v0,580(sp)
9d003e8c:	1620007d 	bnez	s1,9d004084 <_fconvert+0x3c8>
9d003e90:	02c28021 	addu	s0,s6,v0
9d003e94:	8fa3028c 	lw	v1,652(sp)
9d003e98:	0203102a 	slt	v0,s0,v1
9d003e9c:	5040007a 	beqzl	v0,9d004088 <_fconvert+0x3cc>
9d003ea0:	02402021 	move	a0,s2
9d003ea4:	8fa40240 	lw	a0,576(sp)
9d003ea8:	30820004 	andi	v0,a0,0x4
9d003eac:	10400108 	beqz	v0,9d0042d0 <_fconvert+0x614>
9d003eb0:	8fa40278 	lw	a0,632(sp)
9d003eb4:	00702823 	subu	a1,v1,s0
9d003eb8:	3c069d01 	lui	a2,0x9d01
9d003ebc:	0f4029a9 	jal	9d00a6a4 <repl>
9d003ec0:	24c6ac44 	addiu	a2,a2,-21436
9d003ec4:	2403ffff 	li	v1,-1
9d003ec8:	1443006f 	bne	v0,v1,9d004088 <_fconvert+0x3cc>
9d003ecc:	02402021 	move	a0,s2
9d003ed0:	8fa3028c 	lw	v1,652(sp)
9d003ed4:	0203102a 	slt	v0,s0,v1
9d003ed8:	0202180a 	movz	v1,s0,v0
9d003edc:	00601021 	move	v0,v1
9d003ee0:	8fbf0274 	lw	ra,628(sp)
9d003ee4:	8fbe0270 	lw	s8,624(sp)
9d003ee8:	8fb7026c 	lw	s7,620(sp)
9d003eec:	8fb60268 	lw	s6,616(sp)
9d003ef0:	8fb50264 	lw	s5,612(sp)
9d003ef4:	8fb40260 	lw	s4,608(sp)
9d003ef8:	8fb3025c 	lw	s3,604(sp)
9d003efc:	8fb20258 	lw	s2,600(sp)
9d003f00:	8fb10254 	lw	s1,596(sp)
9d003f04:	8fb00250 	lw	s0,592(sp)
9d003f08:	03e00008 	jr	ra
9d003f0c:	27bd0278 	addiu	sp,sp,632
9d003f10:	30a30002 	andi	v1,a1,0x2
9d003f14:	546000d3 	bnezl	v1,9d004264 <_fconvert+0x5a8>
9d003f18:	2452ffff 	addiu	s2,v0,-1
9d003f1c:	8fa40240 	lw	a0,576(sp)
9d003f20:	30830001 	andi	v1,a0,0x1
9d003f24:	1060ffd5 	beqz	v1,9d003e7c <_fconvert+0x1c0>
9d003f28:	00409021 	move	s2,v0
9d003f2c:	2452ffff 	addiu	s2,v0,-1
9d003f30:	24030020 	li	v1,32
9d003f34:	a043ffff 	sb	v1,-1(v0)
9d003f38:	0b400f9f 	j	9d003e7c <_fconvert+0x1c0>
9d003f3c:	26d60001 	addiu	s6,s6,1
9d003f40:	3c028000 	lui	v0,0x8000
9d003f44:	02028026 	xor	s0,s0,v0
9d003f48:	2405002d 	li	a1,45
9d003f4c:	0b400f53 	j	9d003d4c <_fconvert+0x90>
9d003f50:	afa50248 	sw	a1,584(sp)
9d003f54:	12a00082 	beqz	s5,9d004160 <_fconvert+0x4a4>
9d003f58:	24020030 	li	v0,48
9d003f5c:	26820001 	addiu	v0,s4,1
9d003f60:	27a50219 	addiu	a1,sp,537
9d003f64:	0045182b 	sltu	v1,v0,a1
9d003f68:	106000f9 	beqz	v1,9d004350 <_fconvert+0x694>
9d003f6c:	27b1001a 	addiu	s1,sp,26
9d003f70:	02201821 	move	v1,s1
9d003f74:	80440000 	lb	a0,0(v0)
9d003f78:	24630001 	addiu	v1,v1,1
9d003f7c:	24420001 	addiu	v0,v0,1
9d003f80:	1445fffc 	bne	v0,a1,9d003f74 <_fconvert+0x2b8>
9d003f84:	a064ffff 	sb	a0,-1(v1)
9d003f88:	03b48023 	subu	s0,sp,s4
9d003f8c:	26100218 	addiu	s0,s0,536
9d003f90:	02308021 	addu	s0,s1,s0
9d003f94:	12400077 	beqz	s2,9d004174 <_fconvert+0x4b8>
9d003f98:	8fa30240 	lw	v1,576(sp)
9d003f9c:	8fa40238 	lw	a0,568(sp)
9d003fa0:	8fa5023c 	lw	a1,572(sp)
9d003fa4:	00003021 	move	a2,zero
9d003fa8:	00003821 	move	a3,zero
9d003fac:	26160001 	addiu	s6,s0,1
9d003fb0:	2402002e 	li	v0,46
9d003fb4:	0f402611 	jal	9d009844 <__eqdf2>
9d003fb8:	a2020000 	sb	v0,0(s0)
9d003fbc:	1040009a 	beqz	v0,9d004228 <_fconvert+0x56c>
9d003fc0:	2643ffff 	addiu	v1,s2,-1
9d003fc4:	3c139d01 	lui	s3,0x9d01
9d003fc8:	8e74ac88 	lw	s4,-21368(s3)
9d003fcc:	0b400ff9 	j	9d003fe4 <_fconvert+0x328>
9d003fd0:	8e75ac8c 	lw	s5,-21364(s3)
9d003fd4:	0f402611 	jal	9d009844 <__eqdf2>
9d003fd8:	00000000 	nop
9d003fdc:	10400092 	beqz	v0,9d004228 <_fconvert+0x56c>
9d003fe0:	2643ffff 	addiu	v1,s2,-1
9d003fe4:	02803021 	move	a2,s4
9d003fe8:	02a03821 	move	a3,s5
9d003fec:	8fa40238 	lw	a0,568(sp)
9d003ff0:	0f401e8f 	jal	9d007a3c <.LFE23>
9d003ff4:	8fa5023c 	lw	a1,572(sp)
9d003ff8:	00402021 	move	a0,v0
9d003ffc:	00602821 	move	a1,v1
9d004000:	0f40265c 	jal	9d009970 <dpmodf>
9d004004:	27a60228 	addiu	a2,sp,552
9d004008:	afa20238 	sw	v0,568(sp)
9d00400c:	afa3023c 	sw	v1,572(sp)
9d004010:	8fa40228 	lw	a0,552(sp)
9d004014:	8fa5022c 	lw	a1,556(sp)
9d004018:	26d60001 	addiu	s6,s6,1
9d00401c:	0f402a42 	jal	9d00a908 <__fixdfsi>
9d004020:	2652ffff 	addiu	s2,s2,-1
9d004024:	8fa40238 	lw	a0,568(sp)
9d004028:	8fa5023c 	lw	a1,572(sp)
9d00402c:	00003021 	move	a2,zero
9d004030:	00003821 	move	a3,zero
9d004034:	24420030 	addiu	v0,v0,48
9d004038:	1640ffe6 	bnez	s2,9d003fd4 <_fconvert+0x318>
9d00403c:	a2c2ffff 	sb	v0,-1(s6)
9d004040:	8fa40238 	lw	a0,568(sp)
9d004044:	8fa5023c 	lw	a1,572(sp)
9d004048:	00003021 	move	a2,zero
9d00404c:	0f402611 	jal	9d009844 <__eqdf2>
9d004050:	00003821 	move	a3,zero
9d004054:	14400052 	bnez	v0,9d0041a0 <_fconvert+0x4e4>
9d004058:	8e66ac88 	lw	a2,-21368(s3)
9d00405c:	02d1b023 	subu	s6,s6,s1
9d004060:	83a40019 	lb	a0,25(sp)
9d004064:	27a20019 	addiu	v0,sp,25
9d004068:	27a3001a 	addiu	v1,sp,26
9d00406c:	0064100a 	movz	v0,v1,a0
9d004070:	8fa40248 	lw	a0,584(sp)
9d004074:	1080ffa6 	beqz	a0,9d003f10 <_fconvert+0x254>
9d004078:	8fa50240 	lw	a1,576(sp)
9d00407c:	0b400f9d 	j	9d003e74 <_fconvert+0x1b8>
9d004080:	2452ffff 	addiu	s2,v0,-1
9d004084:	02402021 	move	a0,s2
9d004088:	02c02821 	move	a1,s6
9d00408c:	0f402b9c 	jal	9d00ae70 <__sputn>
9d004090:	8fa60278 	lw	a2,632(sp)
9d004094:	2412ffff 	li	s2,-1
9d004098:	1052ff8d 	beq	v0,s2,9d003ed0 <_fconvert+0x214>
9d00409c:	8fa30244 	lw	v1,580(sp)
9d0040a0:	14600074 	bnez	v1,9d004274 <_fconvert+0x5b8>
9d0040a4:	8fa40278 	lw	a0,632(sp)
9d0040a8:	1220ff8a 	beqz	s1,9d003ed4 <_fconvert+0x218>
9d0040ac:	8fa3028c 	lw	v1,652(sp)
9d0040b0:	8fa4028c 	lw	a0,652(sp)
9d0040b4:	0204102a 	slt	v0,s0,a0
9d0040b8:	1040ff87 	beqz	v0,9d003ed8 <_fconvert+0x21c>
9d0040bc:	0203102a 	slt	v0,s0,v1
9d0040c0:	8fa40278 	lw	a0,632(sp)
9d0040c4:	8fa2028c 	lw	v0,652(sp)
9d0040c8:	00502823 	subu	a1,v0,s0
9d0040cc:	3c069d01 	lui	a2,0x9d01
9d0040d0:	0f4029a9 	jal	9d00a6a4 <repl>
9d0040d4:	24c6ac64 	addiu	a2,a2,-21404
9d0040d8:	0b400fb5 	j	9d003ed4 <_fconvert+0x218>
9d0040dc:	8fa3028c 	lw	v1,652(sp)
9d0040e0:	00c02021 	move	a0,a2
9d0040e4:	00e02821 	move	a1,a3
9d0040e8:	02203021 	move	a2,s1
9d0040ec:	0f402611 	jal	9d009844 <__eqdf2>
9d0040f0:	02003821 	move	a3,s0
9d0040f4:	14400067 	bnez	v0,9d004294 <_fconvert+0x5d8>
9d0040f8:	02202021 	move	a0,s1
9d0040fc:	02002821 	move	a1,s0
9d004100:	00003021 	move	a2,zero
9d004104:	0f402611 	jal	9d009844 <__eqdf2>
9d004108:	00003821 	move	a3,zero
9d00410c:	04400079 	bltz	v0,9d0042f4 <_fconvert+0x638>
9d004110:	8fa30240 	lw	v1,576(sp)
9d004114:	afa30010 	sw	v1,16(sp)
9d004118:	8fa40278 	lw	a0,632(sp)
9d00411c:	3c059d01 	lui	a1,0x9d01
9d004120:	24a5ac34 	addiu	a1,a1,-21452
9d004124:	24060004 	li	a2,4
9d004128:	0f402575 	jal	9d0095d4 <.LFE2>
9d00412c:	8fa7028c 	lw	a3,652(sp)
9d004130:	8fbf0274 	lw	ra,628(sp)
9d004134:	8fbe0270 	lw	s8,624(sp)
9d004138:	8fb7026c 	lw	s7,620(sp)
9d00413c:	8fb60268 	lw	s6,616(sp)
9d004140:	8fb50264 	lw	s5,612(sp)
9d004144:	8fb40260 	lw	s4,608(sp)
9d004148:	8fb3025c 	lw	s3,604(sp)
9d00414c:	8fb20258 	lw	s2,600(sp)
9d004150:	8fb10254 	lw	s1,596(sp)
9d004154:	8fb00250 	lw	s0,592(sp)
9d004158:	03e00008 	jr	ra
9d00415c:	27bd0278 	addiu	sp,sp,632
9d004160:	a3a2001a 	sb	v0,26(sp)
9d004164:	27b0001b 	addiu	s0,sp,27
9d004168:	1640ff8c 	bnez	s2,9d003f9c <_fconvert+0x2e0>
9d00416c:	27b1001a 	addiu	s1,sp,26
9d004170:	8fa30240 	lw	v1,576(sp)
9d004174:	30620800 	andi	v0,v1,0x800
9d004178:	14400068 	bnez	v0,9d00431c <_fconvert+0x660>
9d00417c:	8fa40238 	lw	a0,568(sp)
9d004180:	8fa5023c 	lw	a1,572(sp)
9d004184:	00003021 	move	a2,zero
9d004188:	0f402611 	jal	9d009844 <__eqdf2>
9d00418c:	00003821 	move	a3,zero
9d004190:	1040ffb2 	beqz	v0,9d00405c <_fconvert+0x3a0>
9d004194:	0200b021 	move	s6,s0
9d004198:	3c139d01 	lui	s3,0x9d01
9d00419c:	8e66ac88 	lw	a2,-21368(s3)
9d0041a0:	8e67ac8c 	lw	a3,-21364(s3)
9d0041a4:	8fa40238 	lw	a0,568(sp)
9d0041a8:	8fa5023c 	lw	a1,572(sp)
9d0041ac:	0f401e8f 	jal	9d007a3c <.LFE23>
9d0041b0:	26d0ffff 	addiu	s0,s6,-1
9d0041b4:	00402021 	move	a0,v0
9d0041b8:	00602821 	move	a1,v1
9d0041bc:	0f40265c 	jal	9d009970 <dpmodf>
9d0041c0:	27a60220 	addiu	a2,sp,544
9d0041c4:	3c029d01 	lui	v0,0x9d01
9d0041c8:	8c44ac98 	lw	a0,-21352(v0)
9d0041cc:	8c45ac9c 	lw	a1,-21348(v0)
9d0041d0:	8fa60220 	lw	a2,544(sp)
9d0041d4:	0f402611 	jal	9d009844 <__eqdf2>
9d0041d8:	8fa70224 	lw	a3,548(sp)
9d0041dc:	2404002e 	li	a0,46
9d0041e0:	0440000b 	bltz	v0,9d004210 <_fconvert+0x554>
9d0041e4:	24050030 	li	a1,48
9d0041e8:	0b401018 	j	9d004060 <_fconvert+0x3a4>
9d0041ec:	02d1b023 	subu	s6,s6,s1
9d0041f0:	24420001 	addiu	v0,v0,1
9d0041f4:	7c021420 	seb	v0,v0
9d0041f8:	2843003a 	slti	v1,v0,58
9d0041fc:	54600052 	bnezl	v1,9d004348 <_fconvert+0x68c>
9d004200:	a2020000 	sb	v0,0(s0)
9d004204:	12110054 	beq	s0,s1,9d004358 <_fconvert+0x69c>
9d004208:	a2050000 	sb	a1,0(s0)
9d00420c:	2610ffff 	addiu	s0,s0,-1
9d004210:	82020000 	lb	v0,0(s0)
9d004214:	5444fff7 	bnel	v0,a0,9d0041f4 <_fconvert+0x538>
9d004218:	24420001 	addiu	v0,v0,1
9d00421c:	8202ffff 	lb	v0,-1(s0)
9d004220:	0b40107c 	j	9d0041f0 <_fconvert+0x534>
9d004224:	2610ffff 	addiu	s0,s0,-1
9d004228:	24630001 	addiu	v1,v1,1
9d00422c:	02c31821 	addu	v1,s6,v1
9d004230:	24020030 	li	v0,48
9d004234:	26d60001 	addiu	s6,s6,1
9d004238:	16c3fffe 	bne	s6,v1,9d004234 <_fconvert+0x578>
9d00423c:	a2c2ffff 	sb	v0,-1(s6)
9d004240:	0b401018 	j	9d004060 <_fconvert+0x3a4>
9d004244:	02d1b023 	subu	s6,s6,s1
9d004248:	afa00244 	sw	zero,580(sp)
9d00424c:	24120006 	li	s2,6
9d004250:	a3a00019 	sb	zero,25(sp)
9d004254:	0601febd 	bgez	s0,9d003d4c <_fconvert+0x90>
9d004258:	afa00248 	sw	zero,584(sp)
9d00425c:	0b400fd1 	j	9d003f44 <_fconvert+0x288>
9d004260:	3c028000 	lui	v0,0x8000
9d004264:	2403002b 	li	v1,43
9d004268:	a043ffff 	sb	v1,-1(v0)
9d00426c:	0b400f9f 	j	9d003e7c <_fconvert+0x1c0>
9d004270:	26d60001 	addiu	s6,s6,1
9d004274:	8fa50244 	lw	a1,580(sp)
9d004278:	3c069d01 	lui	a2,0x9d01
9d00427c:	0f4029a9 	jal	9d00a6a4 <repl>
9d004280:	24c6ac44 	addiu	a2,a2,-21436
9d004284:	1452ff88 	bne	v0,s2,9d0040a8 <_fconvert+0x3ec>
9d004288:	8fa3028c 	lw	v1,652(sp)
9d00428c:	0b400fb6 	j	9d003ed8 <_fconvert+0x21c>
9d004290:	0203102a 	slt	v0,s0,v1
9d004294:	8fa50240 	lw	a1,576(sp)
9d004298:	afa50010 	sw	a1,16(sp)
9d00429c:	8fa40278 	lw	a0,632(sp)
9d0042a0:	3c059d01 	lui	a1,0x9d01
9d0042a4:	24a5ac28 	addiu	a1,a1,-21464
9d0042a8:	24060003 	li	a2,3
9d0042ac:	0f402575 	jal	9d0095d4 <.LFE2>
9d0042b0:	8fa7028c 	lw	a3,652(sp)
9d0042b4:	0b400fb9 	j	9d003ee4 <_fconvert+0x228>
9d0042b8:	8fbf0274 	lw	ra,628(sp)
9d0042bc:	30820800 	andi	v0,a0,0x800
9d0042c0:	5440fe9d 	bnezl	v0,9d003d38 <_fconvert+0x7c>
9d0042c4:	2652ffd9 	addiu	s2,s2,-39
9d0042c8:	0b400f50 	j	9d003d40 <_fconvert+0x84>
9d0042cc:	24120027 	li	s2,39
9d0042d0:	8fa2028c 	lw	v0,652(sp)
9d0042d4:	00502823 	subu	a1,v0,s0
9d0042d8:	3c069d01 	lui	a2,0x9d01
9d0042dc:	0f4029a9 	jal	9d00a6a4 <repl>
9d0042e0:	24c6ac64 	addiu	a2,a2,-21404
9d0042e4:	0b400fb2 	j	9d003ec8 <_fconvert+0x20c>
9d0042e8:	2403ffff 	li	v1,-1
9d0042ec:	0b400f8f 	j	9d003e3c <_fconvert+0x180>
9d0042f0:	27b40218 	addiu	s4,sp,536
9d0042f4:	8fa20240 	lw	v0,576(sp)
9d0042f8:	afa20010 	sw	v0,16(sp)
9d0042fc:	8fa40278 	lw	a0,632(sp)
9d004300:	3c059d01 	lui	a1,0x9d01
9d004304:	24a5ac2c 	addiu	a1,a1,-21460
9d004308:	24060004 	li	a2,4
9d00430c:	0f402575 	jal	9d0095d4 <.LFE2>
9d004310:	8fa7028c 	lw	a3,652(sp)
9d004314:	0b400fb9 	j	9d003ee4 <_fconvert+0x228>
9d004318:	8fbf0274 	lw	ra,628(sp)
9d00431c:	8fa5023c 	lw	a1,572(sp)
9d004320:	00003021 	move	a2,zero
9d004324:	00003821 	move	a3,zero
9d004328:	26160001 	addiu	s6,s0,1
9d00432c:	2402002e 	li	v0,46
9d004330:	0f402611 	jal	9d009844 <__eqdf2>
9d004334:	a2020000 	sb	v0,0(s0)
9d004338:	5440ff98 	bnezl	v0,9d00419c <_fconvert+0x4e0>
9d00433c:	3c139d01 	lui	s3,0x9d01
9d004340:	0b401018 	j	9d004060 <_fconvert+0x3a4>
9d004344:	02d1b023 	subu	s6,s6,s1
9d004348:	0b401018 	j	9d004060 <_fconvert+0x3a4>
9d00434c:	02d1b023 	subu	s6,s6,s1
9d004350:	0b400fe5 	j	9d003f94 <_fconvert+0x2d8>
9d004354:	02208021 	move	s0,s1
9d004358:	24020031 	li	v0,49
9d00435c:	a3a20019 	sb	v0,25(sp)
9d004360:	27b10019 	addiu	s1,sp,25
9d004364:	0b401018 	j	9d004060 <_fconvert+0x3a4>
9d004368:	02d1b023 	subu	s6,s6,s1

Disassembly of section .text:

9d00436c <makeWaveform>:


void makeWaveform() {                       // waveform with 1000 elements, first half 75% duty cycle, second half 25% duty cycle
                                            // open loop control of light out of LED 
    int i = 0, center = 500, A = 300;
    for (i = 0; i < NUMSAMPS; ++i) {
9d00436c:	00001021 	move	v0,zero
        if (i < NUMSAMPS/2){
            Waveform[i] = center + A;
        }
        else{
            Waveform[i] = center - A;
9d004370:	3c05a000 	lui	a1,0xa000
9d004374:	24a50674 	addiu	a1,a1,1652
9d004378:	240700c8 	li	a3,200
void makeWaveform() {                       // waveform with 1000 elements, first half 75% duty cycle, second half 25% duty cycle
                                            // open loop control of light out of LED 
    int i = 0, center = 500, A = 300;
    for (i = 0; i < NUMSAMPS; ++i) {
        if (i < NUMSAMPS/2){
            Waveform[i] = center + A;
9d00437c:	24060320 	li	a2,800


void makeWaveform() {                       // waveform with 1000 elements, first half 75% duty cycle, second half 25% duty cycle
                                            // open loop control of light out of LED 
    int i = 0, center = 500, A = 300;
    for (i = 0; i < NUMSAMPS; ++i) {
9d004380:	240403e8 	li	a0,1000
        if (i < NUMSAMPS/2){
9d004384:	284301f4 	slti	v1,v0,500
9d004388:	10600005 	beqz	v1,9d0043a0 <makeWaveform+0x34>
9d00438c:	00021880 	sll	v1,v0,0x2
            Waveform[i] = center + A;
9d004390:	00651821 	addu	v1,v1,a1
9d004394:	ac660000 	sw	a2,0(v1)
9d004398:	0b4010eb 	j	9d0043ac <makeWaveform+0x40>
9d00439c:	24420001 	addiu	v0,v0,1
        }
        else{
            Waveform[i] = center - A;
9d0043a0:	00651821 	addu	v1,v1,a1
9d0043a4:	ac670000 	sw	a3,0(v1)


void makeWaveform() {                       // waveform with 1000 elements, first half 75% duty cycle, second half 25% duty cycle
                                            // open loop control of light out of LED 
    int i = 0, center = 500, A = 300;
    for (i = 0; i < NUMSAMPS; ++i) {
9d0043a8:	24420001 	addiu	v0,v0,1
9d0043ac:	1444fff6 	bne	v0,a0,9d004388 <makeWaveform+0x1c>
9d0043b0:	284301f4 	slti	v1,v0,500
        }
        else{
            Waveform[i] = center - A;
        }
    }
}
9d0043b4:	03e00008 	jr	ra
9d0043b8:	00000000 	nop

9d0043bc <main>:
    }

    IFS0bits.T2IF = 0; // clear flag at end of interrupts
}

int main(void) {
9d0043bc:	27bdff40 	addiu	sp,sp,-192
9d0043c0:	afbf00bc 	sw	ra,188(sp)
9d0043c4:	afb700b8 	sw	s7,184(sp)
9d0043c8:	afb600b4 	sw	s6,180(sp)
9d0043cc:	afb500b0 	sw	s5,176(sp)
9d0043d0:	afb400ac 	sw	s4,172(sp)
9d0043d4:	afb300a8 	sw	s3,168(sp)
9d0043d8:	afb200a4 	sw	s2,164(sp)
9d0043dc:	afb100a0 	sw	s1,160(sp)

    NU32_Startup();                 // cache on, interrupts on, LED/button init, UART init
9d0043e0:	0f4023c6 	jal	9d008f18 <NU32_Startup>
9d0043e4:	afb0009c 	sw	s0,156(sp)

9d0043e8 <.LVL3>:
    LCD_Setup();                    // initialize LCD
9d0043e8:	0f401a94 	jal	9d006a50 <LCD_Setup>
9d0043ec:	00000000 	nop

9d0043f0 <.LVL4>:
    LCD_Clear();                    
9d0043f0:	0f401a0d 	jal	9d006834 <LCD_Clear>
9d0043f4:	00000000 	nop

9d0043f8 <.LVL5>:
    LCD_Move(0,0);
9d0043f8:	00002021 	move	a0,zero
9d0043fc:	0f401a4d 	jal	9d006934 <LCD_Move>
9d004400:	00002821 	move	a1,zero

9d004404 <.LVL6>:

    char msg[20];
    sprintf(msg, "G: %5.2f %5.2f", Kp, Ki);          // print to LCD
9d004404:	8f848014 	lw	a0,-32748(gp)
9d004408:	8f928010 	lw	s2,-32752(gp)
9d00440c:	0f40292c 	jal	9d00a4b0 <__extendsfdf2>
9d004410:	00000000 	nop
9d004414:	00408021 	move	s0,v0
9d004418:	00608821 	move	s1,v1
9d00441c:	0f40292c 	jal	9d00a4b0 <__extendsfdf2>
9d004420:	02402021 	move	a0,s2
9d004424:	afa20010 	sw	v0,16(sp)
9d004428:	afa30014 	sw	v1,20(sp)
9d00442c:	27a40018 	addiu	a0,sp,24
9d004430:	3c059d01 	lui	a1,0x9d01
9d004434:	24a5b428 	addiu	a1,a1,-19416
9d004438:	02003021 	move	a2,s0
9d00443c:	0f402b81 	jal	9d00ae04 <_sprintf_cdfFnopuxX>
9d004440:	02203821 	move	a3,s1

9d004444 <.LVL9>:
    LCD_WriteString(msg);
9d004444:	0f401a69 	jal	9d0069a4 <LCD_WriteString>
9d004448:	27a40018 	addiu	a0,sp,24

9d00444c <.LVL10>:

    makeWaveform();         // initialize waveform array (DC from 25% to 75%)
9d00444c:	0f4010db 	jal	9d00436c <makeWaveform>
9d004450:	00000000 	nop

9d004454 <.LVL11>:

    // init adc
    AD1CON1bits.SSRC = 0x7;                 // Set the conversion process to be automatic
9d004454:	3c02bf81 	lui	v0,0xbf81
9d004458:	94439000 	lhu	v1,-28672(v0)
9d00445c:	24040007 	li	a0,7
9d004460:	7c833944 	ins	v1,a0,0x5,0x3
9d004464:	a4439000 	sh	v1,-28672(v0)
    AD1CON1bits.ASAM = 0;                   // Set the sampling process to be manual 
9d004468:	94439000 	lhu	v1,-28672(v0)
9d00446c:	7c031084 	ins	v1,zero,0x2,0x1
9d004470:	a4439000 	sh	v1,-28672(v0)
    AD1CON3bits.ADCS = 2;                   // Set Tad to be 2*(ADCS + 1)* Tpb = 75 ns
9d004474:	3c03bf81 	lui	v1,0xbf81
9d004478:	24040002 	li	a0,2
9d00447c:	a0649020 	sb	a0,-28640(v1)
    AD1CON3bits.SAMC = 20;                  // Set sampling time to be 2*Tad = 150 ns
9d004480:	94649020 	lhu	a0,-28640(v1)
9d004484:	24050014 	li	a1,20
9d004488:	7ca46204 	ins	a0,a1,0x8,0x5
9d00448c:	a4649020 	sh	a0,-28640(v1)
    AD1PCFGbits.PCFG15 = 0;                 // AN15 is an adc pin
9d004490:	3c03bf81 	lui	v1,0xbf81
9d004494:	94649060 	lhu	a0,-28576(v1)
9d004498:	7c047bc4 	ins	a0,zero,0xf,0x1
9d00449c:	a4649060 	sh	a0,-28576(v1)
    AD1CON1bits.ADON = 1;                   // turn on A/D converter
9d0044a0:	94439000 	lhu	v1,-28672(v0)
9d0044a4:	24040001 	li	a0,1
9d0044a8:	7c837bc4 	ins	v1,a0,0xf,0x1
9d0044ac:	a4439000 	sh	v1,-28672(v0)

    __builtin_enable_interrupts();
9d0044b0:	41626020 	ei	v0
    // timer 3 20 kHz
    // oc1 using timer 3
    T3CONbits.TCKPS = 1;                // prescaler N = 2 (1:2) (base of PWM)
9d0044b4:	3c04bf80 	lui	a0,0xbf80
9d0044b8:	94830a00 	lhu	v1,2560(a0)
9d0044bc:	24020001 	li	v0,1
9d0044c0:	7c433104 	ins	v1,v0,0x4,0x3
9d0044c4:	a4830a00 	sh	v1,2560(a0)
    PR3 = 3999;
9d0044c8:	24050f9f 	li	a1,3999
9d0044cc:	3c03bf80 	lui	v1,0xbf80
9d0044d0:	ac650a20 	sw	a1,2592(v1)
    TMR3 = 0;
9d0044d4:	3c03bf80 	lui	v1,0xbf80
9d0044d8:	ac600a10 	sw	zero,2576(v1)
    OC1CONbits.OCM = 0b110;             // output compare 1, D0 
9d0044dc:	3c03bf80 	lui	v1,0xbf80
9d0044e0:	94663000 	lhu	a2,12288(v1)
9d0044e4:	24050006 	li	a1,6
9d0044e8:	7ca61004 	ins	a2,a1,0x0,0x3
9d0044ec:	a4663000 	sh	a2,12288(v1)
    OC1CONbits.OCTSEL = 1;              // user timer 3
9d0044f0:	94663000 	lhu	a2,12288(v1)
9d0044f4:	7c4618c4 	ins	a2,v0,0x3,0x1
9d0044f8:	a4663000 	sh	a2,12288(v1)
    OC1RS = 2999;                        
9d0044fc:	24060bb7 	li	a2,2999
9d004500:	3c07bf80 	lui	a3,0xbf80
9d004504:	ace63020 	sw	a2,12320(a3)
    OC1R = 2999;
9d004508:	3c07bf80 	lui	a3,0xbf80
9d00450c:	ace63010 	sw	a2,12304(a3)
    T3CONbits.ON = 1;
9d004510:	94860a00 	lhu	a2,2560(a0)
9d004514:	7c467bc4 	ins	a2,v0,0xf,0x1
9d004518:	a4860a00 	sh	a2,2560(a0)
    OC1CONbits.ON = 1;
9d00451c:	94643000 	lhu	a0,12288(v1)
9d004520:	7c447bc4 	ins	a0,v0,0xf,0x1
9d004524:	a4643000 	sh	a0,12288(v1)

    // timer 2 ISR 1 kHz ( interupt)
    T2CONbits.TCKPS = 2;               // prescaler N = 4 (1:4)
9d004528:	3c03bf80 	lui	v1,0xbf80
9d00452c:	94640800 	lhu	a0,2048(v1)
9d004530:	24060002 	li	a2,2
9d004534:	7cc43104 	ins	a0,a2,0x4,0x3
9d004538:	a4640800 	sh	a0,2048(v1)
    PR2 = 19999;
9d00453c:	24064e1f 	li	a2,19999
9d004540:	3c04bf80 	lui	a0,0xbf80
9d004544:	ac860820 	sw	a2,2080(a0)
    TMR2 = 0;
9d004548:	3c04bf80 	lui	a0,0xbf80
9d00454c:	ac800810 	sw	zero,2064(a0)
    T2CONbits.ON = 1;
9d004550:	94640800 	lhu	a0,2048(v1)
9d004554:	7c447bc4 	ins	a0,v0,0xf,0x1
9d004558:	a4640800 	sh	a0,2048(v1)
    IPC2bits.T2IP = 6;
9d00455c:	3c03bf88 	lui	v1,0xbf88
9d004560:	8c6410b0 	lw	a0,4272(v1)
9d004564:	7ca42084 	ins	a0,a1,0x2,0x3
9d004568:	ac6410b0 	sw	a0,4272(v1)
    IPC2bits.T2IS = 0;
9d00456c:	8c6410b0 	lw	a0,4272(v1)
9d004570:	7c040804 	ins	a0,zero,0x0,0x2
9d004574:	ac6410b0 	sw	a0,4272(v1)
    IFS0bits.T2IF = 0;
9d004578:	3c03bf88 	lui	v1,0xbf88
9d00457c:	8c641030 	lw	a0,4144(v1)
9d004580:	7c044204 	ins	a0,zero,0x8,0x1
9d004584:	ac641030 	sw	a0,4144(v1)
    IEC0bits.T2IE = 1;
9d004588:	3c03bf88 	lui	v1,0xbf88
9d00458c:	8c641060 	lw	a0,4192(v1)
9d004590:	7c444204 	ins	a0,v0,0x8,0x1
9d004594:	ac641060 	sw	a0,4192(v1)
    __builtin_enable_interrupts();
9d004598:	41626020 	ei	v0

    char message[100];              // message to and from MATLAB
    float kptemp = 0.0, kitemp = 0.0;   // temporary local gains
9d00459c:	00001021 	move	v0,zero
9d0045a0:	afa20090 	sw	v0,144(sp)
9d0045a4:	afa20094 	sw	v0,148(sp)
    int i = 0;                      //  plot data loop counter
    
    while (1) {
        // wait for new gains
        NU32_ReadUART3(message, sizeof(message));   // wait till recieve gains from computer 
        sscanf(message, "%f %f", &kptemp, &kitemp);          
9d0045a8:	3c169d01 	lui	s6,0x9d01
9d0045ac:	26d6b438 	addiu	s6,s6,-19400
        Kp = kptemp; // copy local variables to globals used by ISR
        Ki = kitemp;

        LCD_Clear();
        LCD_Move(0,0);
        sprintf(msg, "G: %5.2f %5.2f", Kp, Ki);
9d0045b0:	3c159d01 	lui	s5,0x9d01
9d0045b4:	26b5b428 	addiu	s5,s5,-19416
            ; // do nothing 
        }
        
        for (i = 0; i<PLOTPTS; i++){
            // when first number sent = 1 we're done
            sprintf(message, "%d %d %d\r\n", PLOTPTS - i, ADCarray[i], REFarray[i]);  // index, number we read, duty cycle (eventually desired analog value)
9d0045b8:	3c14a000 	lui	s4,0xa000
9d0045bc:	26940354 	addiu	s4,s4,852
9d0045c0:	3c13a000 	lui	s3,0xa000
9d0045c4:	26730034 	addiu	s3,s3,52
9d0045c8:	3c129d01 	lui	s2,0x9d01
9d0045cc:	2652b440 	addiu	s2,s2,-19392
    float kptemp = 0.0, kitemp = 0.0;   // temporary local gains
    int i = 0;                      //  plot data loop counter
    
    while (1) {
        // wait for new gains
        NU32_ReadUART3(message, sizeof(message));   // wait till recieve gains from computer 
9d0045d0:	27a4002c 	addiu	a0,sp,44
9d0045d4:	0f40240b 	jal	9d00902c <NU32_ReadUART3>
9d0045d8:	24050064 	li	a1,100

9d0045dc <.LVL14>:
        sscanf(message, "%f %f", &kptemp, &kitemp);          
9d0045dc:	27a4002c 	addiu	a0,sp,44
9d0045e0:	02c02821 	move	a1,s6
9d0045e4:	27a60090 	addiu	a2,sp,144
9d0045e8:	0f402b64 	jal	9d00ad90 <_sscanf_fF>
9d0045ec:	27a70094 	addiu	a3,sp,148

9d0045f0 <.LVL15>:
        __builtin_enable_interrupts(); // keep ISR disabled as briefly as possible (turn off interupts )
9d0045f0:	41626020 	ei	v0
        Kp = kptemp; // copy local variables to globals used by ISR
9d0045f4:	8fa20090 	lw	v0,144(sp)
9d0045f8:	af828014 	sw	v0,-32748(gp)
        Ki = kitemp;
9d0045fc:	8fa20094 	lw	v0,148(sp)
9d004600:	af828010 	sw	v0,-32752(gp)

        LCD_Clear();
9d004604:	0f401a0d 	jal	9d006834 <LCD_Clear>
9d004608:	00000000 	nop

9d00460c <.LVL16>:
        LCD_Move(0,0);
9d00460c:	00002021 	move	a0,zero
9d004610:	0f401a4d 	jal	9d006934 <LCD_Move>
9d004614:	00002821 	move	a1,zero

9d004618 <.LVL17>:
        sprintf(msg, "G: %5.2f %5.2f", Kp, Ki);
9d004618:	8f848014 	lw	a0,-32748(gp)
9d00461c:	8f978010 	lw	s7,-32752(gp)
9d004620:	0f40292c 	jal	9d00a4b0 <__extendsfdf2>
9d004624:	00000000 	nop
9d004628:	00408021 	move	s0,v0
9d00462c:	00608821 	move	s1,v1
9d004630:	0f40292c 	jal	9d00a4b0 <__extendsfdf2>
9d004634:	02e02021 	move	a0,s7
9d004638:	afa20010 	sw	v0,16(sp)
9d00463c:	afa30014 	sw	v1,20(sp)
9d004640:	27a40018 	addiu	a0,sp,24
9d004644:	02a02821 	move	a1,s5
9d004648:	02003021 	move	a2,s0
9d00464c:	0f402b81 	jal	9d00ae04 <_sprintf_cdfFnopuxX>
9d004650:	02203821 	move	a3,s1

9d004654 <.LVL20>:
        LCD_WriteString(msg);
9d004654:	0f401a69 	jal	9d0069a4 <LCD_WriteString>
9d004658:	27a40018 	addiu	a0,sp,24

9d00465c <.LVL21>:
        __builtin_enable_interrupts(); // turn interupts back on
9d00465c:	41626020 	ei	v0

        StoringData = 1; // messgae to ISR to start storing data 
9d004660:	24020001 	li	v0,1
9d004664:	af82803c 	sw	v0,-32708(gp)

        while(StoringData){
9d004668:	8f82803c 	lw	v0,-32708(gp)
9d00466c:	1440fffe 	bnez	v0,9d004668 <.LVL21+0xc>
9d004670:	00008021 	move	s0,zero
9d004674:	241100c8 	li	s1,200
            ; // do nothing 
        }
        
        for (i = 0; i<PLOTPTS; i++){
            // when first number sent = 1 we're done
            sprintf(message, "%d %d %d\r\n", PLOTPTS - i, ADCarray[i], REFarray[i]);  // index, number we read, duty cycle (eventually desired analog value)
9d004678:	00101080 	sll	v0,s0,0x2
9d00467c:	00541821 	addu	v1,v0,s4
9d004680:	8c670000 	lw	a3,0(v1)
9d004684:	00531021 	addu	v0,v0,s3
9d004688:	8c420000 	lw	v0,0(v0)
9d00468c:	afa20010 	sw	v0,16(sp)
9d004690:	27a4002c 	addiu	a0,sp,44
9d004694:	02402821 	move	a1,s2
9d004698:	0f402b81 	jal	9d00ae04 <_sprintf_cdfFnopuxX>
9d00469c:	02303023 	subu	a2,s1,s0

9d0046a0 <.LVL23>:
            NU32_WriteUART3(message);
9d0046a0:	0f402428 	jal	9d0090a0 <NU32_WriteUART3>
9d0046a4:	27a4002c 	addiu	a0,sp,44

9d0046a8 <.LVL24>:

        while(StoringData){
            ; // do nothing 
        }
        
        for (i = 0; i<PLOTPTS; i++){
9d0046a8:	26100001 	addiu	s0,s0,1
9d0046ac:	1611fff3 	bne	s0,s1,9d00467c <.LVL21+0x20>
9d0046b0:	00101080 	sll	v0,s0,0x2
9d0046b4:	0b401175 	j	9d0045d4 <.LVL11+0x180>
9d0046b8:	27a4002c 	addiu	a0,sp,44

9d0046bc <adc_sample_convert>:
        }
    }
}

unsigned int adc_sample_convert(int pin) { 
    AD1CHSbits.CH0SA = pin;                // connect chosen pin to MUXA for sampling
9d0046bc:	3c02bf81 	lui	v0,0xbf81
9d0046c0:	8c439040 	lw	v1,-28608(v0)
9d0046c4:	7c839c04 	ins	v1,a0,0x10,0x4
9d0046c8:	ac439040 	sw	v1,-28608(v0)
    AD1CON1bits.SAMP = 1;                  // start sampling
9d0046cc:	3c02bf81 	lui	v0,0xbf81
9d0046d0:	94439000 	lhu	v1,-28672(v0)
9d0046d4:	24040001 	li	a0,1
9d0046d8:	7c830844 	ins	v1,a0,0x1,0x1
9d0046dc:	a4439000 	sh	v1,-28672(v0)
    while (!AD1CON1bits.DONE) { 
9d0046e0:	00401821 	move	v1,v0
9d0046e4:	8c629000 	lw	v0,-28672(v1)
9d0046e8:	30420001 	andi	v0,v0,0x1
9d0046ec:	1040fffd 	beqz	v0,9d0046e4 <adc_sample_convert+0x28>
9d0046f0:	3c02bf81 	lui	v0,0xbf81
      ;                                   // wait for the conversion process to finish
    }
    return ADC1BUF0;                      // read the buffer with the result
9d0046f4:	8c429070 	lw	v0,-28560(v0)
}
9d0046f8:	03e00008 	jr	ra
9d0046fc:	00000000 	nop

9d004700 <Timer2ISR>:

void makeWaveform();
unsigned int adc_sample_convert(int pin);


void __ISR(_TIMER_2_VECTOR, IPL6SRS) Timer2ISR(void) {
9d004700:	415de800 	rdpgpr	sp,sp
9d004704:	401a7000 	mfc0	k0,c0_epc
9d004708:	401b6000 	mfc0	k1,c0_status
9d00470c:	27bdffd8 	addiu	sp,sp,-40
9d004710:	afba0024 	sw	k0,36(sp)
9d004714:	401a6002 	mfc0	k0,c0_srsctl
9d004718:	afbb0020 	sw	k1,32(sp)
9d00471c:	afba001c 	sw	k0,28(sp)
9d004720:	7c1b7844 	ins	k1,zero,0x1,0xf
9d004724:	377b1800 	ori	k1,k1,0x1800
9d004728:	409b6000 	mtc0	k1,c0_status
9d00472c:	00001012 	mflo	v0
9d004730:	afa20014 	sw	v0,20(sp)
9d004734:	00001810 	mfhi	v1
9d004738:	afa30010 	sw	v1,16(sp)
    static int counter = 0;     // static- does not forget value when fucntion ends
    static int plotind = 0;    // index for data arrays; counts up to PLOTPTS
    static int decctr = 0;     // counts to store data one every DECIMATION
    static int adcval = 0;
    OC1RS = (unsigned int) ((unew/100.0) * PR3);
9d00473c:	8f848034 	lw	a0,-32716(gp)
9d004740:	3c02bf80 	lui	v0,0xbf80
9d004744:	8c530a20 	lw	s3,2592(v0)
9d004748:	0f402b46 	jal	9d00ad18 <__floatsidf>
9d00474c:	3c129d01 	lui	s2,0x9d01
9d004750:	00402021 	move	a0,v0
9d004754:	00602821 	move	a1,v1
9d004758:	8e46b450 	lw	a2,-19376(s2)
9d00475c:	0f401538 	jal	9d0054e0 <__divdf3>
9d004760:	8e47b454 	lw	a3,-19372(s2)
9d004764:	00408021 	move	s0,v0
9d004768:	00608821 	move	s1,v1
9d00476c:	0f402cc9 	jal	9d00b324 <__floatunsidf>
9d004770:	02602021 	move	a0,s3
9d004774:	02002021 	move	a0,s0
9d004778:	02202821 	move	a1,s1
9d00477c:	00403021 	move	a2,v0
9d004780:	0f401e8f 	jal	9d007a3c <.LFE23>
9d004784:	00603821 	move	a3,v1
9d004788:	00402021 	move	a0,v0
9d00478c:	0f402a66 	jal	9d00a998 <__fixunsdfsi>
9d004790:	00602821 	move	a1,v1
9d004794:	3c03bf80 	lui	v1,0xbf80
9d004798:	ac623020 	sw	v0,12320(v1)
    // OC1RS = Waveform[counter];

    adcval = adc_sample_convert(15);
9d00479c:	0f4011af 	jal	9d0046bc <adc_sample_convert>
9d0047a0:	2404000f 	li	a0,15

9d0047a4 <.LVL33>:
9d0047a4:	00408821 	move	s1,v0

    e = Waveform[counter] - adcval;
9d0047a8:	8f908028 	lw	s0,-32728(gp)
9d0047ac:	00101880 	sll	v1,s0,0x2
9d0047b0:	3c02a000 	lui	v0,0xa000
9d0047b4:	24420674 	addiu	v0,v0,1652
9d0047b8:	00621021 	addu	v0,v1,v0
9d0047bc:	8c420000 	lw	v0,0(v0)
9d0047c0:	00511023 	subu	v0,v0,s1
9d0047c4:	af828030 	sw	v0,-32720(gp)
    Eint = Eint + e;
9d0047c8:	8f83802c 	lw	v1,-32724(gp)
9d0047cc:	8f828030 	lw	v0,-32720(gp)
9d0047d0:	00621021 	addu	v0,v1,v0
9d0047d4:	af82802c 	sw	v0,-32724(gp)
    u = Kp * e + Ki * Eint;
9d0047d8:	8f848030 	lw	a0,-32720(gp)
9d0047dc:	8f938014 	lw	s3,-32748(gp)
9d0047e0:	8f95802c 	lw	s5,-32724(gp)
9d0047e4:	8f948010 	lw	s4,-32752(gp)
9d0047e8:	0f402c1c 	jal	9d00b070 <__floatsisf>
9d0047ec:	00000000 	nop
9d0047f0:	00402021 	move	a0,v0
9d0047f4:	0f402437 	jal	9d0090dc <.LFE9>
9d0047f8:	02602821 	move	a1,s3
9d0047fc:	00409821 	move	s3,v0
9d004800:	0f402c1c 	jal	9d00b070 <__floatsisf>
9d004804:	02a02021 	move	a0,s5
9d004808:	00402021 	move	a0,v0
9d00480c:	0f402437 	jal	9d0090dc <.LFE9>
9d004810:	02802821 	move	a1,s4
9d004814:	02602021 	move	a0,s3
9d004818:	0f40229e 	jal	9d008a78 <__addsf3>
9d00481c:	00402821 	move	a1,v0
9d004820:	0f402aea 	jal	9d00aba8 <__fixsfsi>
9d004824:	00402021 	move	a0,v0
9d004828:	af828038 	sw	v0,-32712(gp)
    unew = u + 50.0;
9d00482c:	8f848038 	lw	a0,-32712(gp)
9d004830:	0f402b46 	jal	9d00ad18 <__floatsidf>
9d004834:	00000000 	nop
9d004838:	00402021 	move	a0,v0
9d00483c:	00602821 	move	a1,v1
9d004840:	3c029d01 	lui	v0,0x9d01
9d004844:	8c46b458 	lw	a2,-19368(v0)
9d004848:	0f401ad9 	jal	9d006b64 <__adddf3>
9d00484c:	8c47b45c 	lw	a3,-19364(v0)
9d004850:	00402021 	move	a0,v0
9d004854:	0f402a42 	jal	9d00a908 <__fixdfsi>
9d004858:	00602821 	move	a1,v1
9d00485c:	af828034 	sw	v0,-32716(gp)
    if (unew > 100.0) {
9d004860:	8f848034 	lw	a0,-32716(gp)
9d004864:	0f402b46 	jal	9d00ad18 <__floatsidf>
9d004868:	00000000 	nop
9d00486c:	8e44b450 	lw	a0,-19376(s2)
9d004870:	8e45b454 	lw	a1,-19372(s2)
9d004874:	00403021 	move	a2,v0
9d004878:	0f402611 	jal	9d009844 <__eqdf2>
9d00487c:	00603821 	move	a3,v1
9d004880:	04410004 	bgez	v0,9d004894 <.LVL33+0xf0>
9d004884:	24020064 	li	v0,100
        unew = 100.0;
9d004888:	af828034 	sw	v0,-32716(gp)
9d00488c:	0b40122f 	j	9d0048bc <.LVL33+0x118>
9d004890:	00000000 	nop
    }
    else if (unew < 0.0) {
9d004894:	8f848034 	lw	a0,-32716(gp)
9d004898:	0f402b46 	jal	9d00ad18 <__floatsidf>
9d00489c:	00000000 	nop
9d0048a0:	00402021 	move	a0,v0
9d0048a4:	00602821 	move	a1,v1
9d0048a8:	00003021 	move	a2,zero
9d0048ac:	0f402611 	jal	9d009844 <__eqdf2>
9d0048b0:	00003821 	move	a3,zero
9d0048b4:	04420001 	bltzl	v0,9d0048bc <.LVL33+0x118>
9d0048b8:	af808034 	sw	zero,-32716(gp)
        unew = 0.0;
    }

    if (StoringData) {
9d0048bc:	8f82803c 	lw	v0,-32708(gp)
9d0048c0:	50400020 	beqzl	v0,9d004944 <.LVL33+0x1a0>
9d0048c4:	26100001 	addiu	s0,s0,1
        decctr++;
9d0048c8:	8f828024 	lw	v0,-32732(gp)
9d0048cc:	24420001 	addiu	v0,v0,1
        if (decctr == DECIMATION) {
9d0048d0:	2403000a 	li	v1,10
9d0048d4:	50430003 	beql	v0,v1,9d0048e4 <.LVL33+0x140>
9d0048d8:	af808024 	sw	zero,-32732(gp)
    else if (unew < 0.0) {
        unew = 0.0;
    }

    if (StoringData) {
        decctr++;
9d0048dc:	0b40124a 	j	9d004928 <.LVL33+0x184>
9d0048e0:	af828024 	sw	v0,-32732(gp)
        if (decctr == DECIMATION) {
            decctr = 0;                 // reset decimation counter
            ADCarray[plotind] = adcval; // store data in global arrays
9d0048e4:	8f828020 	lw	v0,-32736(gp)
9d0048e8:	00021880 	sll	v1,v0,0x2
9d0048ec:	3c04a000 	lui	a0,0xa000
9d0048f0:	24840354 	addiu	a0,a0,852
9d0048f4:	00642021 	addu	a0,v1,a0
9d0048f8:	ac910000 	sw	s1,0(a0)
            REFarray[plotind] = Waveform[counter];
9d0048fc:	00102080 	sll	a0,s0,0x2
9d004900:	3c05a000 	lui	a1,0xa000
9d004904:	24a50674 	addiu	a1,a1,1652
9d004908:	00852021 	addu	a0,a0,a1
9d00490c:	8c840000 	lw	a0,0(a0)
9d004910:	3c05a000 	lui	a1,0xa000
9d004914:	24a50034 	addiu	a1,a1,52
9d004918:	00651821 	addu	v1,v1,a1
9d00491c:	ac640000 	sw	a0,0(v1)
            plotind++;      // increment plot data index
9d004920:	24420001 	addiu	v0,v0,1
9d004924:	af828020 	sw	v0,-32736(gp)
        }
        if (plotind == PLOTPTS) {       // reach end of indices reset
9d004928:	240200c8 	li	v0,200
9d00492c:	8f838020 	lw	v1,-32736(gp)
9d004930:	54620004 	bnel	v1,v0,9d004944 <.LVL33+0x1a0>
9d004934:	26100001 	addiu	s0,s0,1
            plotind = 0;            // reset the plot index
9d004938:	af808020 	sw	zero,-32736(gp)
            StoringData = 0;        // tell main data is ready to be sent to MATLAB
9d00493c:	af80803c 	sw	zero,-32708(gp)
        } 
    }


    counter++;
9d004940:	26100001 	addiu	s0,s0,1
9d004944:	3a0203e8 	xori	v0,s0,0x3e8
9d004948:	0002800a 	movz	s0,zero,v0
9d00494c:	af908028 	sw	s0,-32728(gp)
    if (counter == NUMSAMPS) {
        counter = 0;  
    }

    IFS0bits.T2IF = 0; // clear flag at end of interrupts
9d004950:	3c02bf88 	lui	v0,0xbf88
9d004954:	8c431030 	lw	v1,4144(v0)
9d004958:	7c034204 	ins	v1,zero,0x8,0x1
9d00495c:	ac431030 	sw	v1,4144(v0)
}
9d004960:	8fa20014 	lw	v0,20(sp)
9d004964:	00400013 	mtlo	v0
9d004968:	8fa30010 	lw	v1,16(sp)
9d00496c:	00600011 	mthi	v1
9d004970:	41606000 	di
9d004974:	000000c0 	ehb
9d004978:	8fbb001c 	lw	k1,28(sp)
9d00497c:	8fba0024 	lw	k0,36(sp)
9d004980:	409b6002 	mtc0	k1,c0_srsctl
9d004984:	8fbb0020 	lw	k1,32(sp)
9d004988:	409a7000 	mtc0	k0,c0_epc
9d00498c:	27bd0028 	addiu	sp,sp,40
9d004990:	41dde800 	wrpgpr	sp,sp
9d004994:	409b6000 	mtc0	k1,c0_status
9d004998:	42000018 	eret

Disassembly of section .dinit:

9d00499c <.dinit>:
9d00499c:	a0000034 	sb	zero,52(zero)
9d0049a0:	000015e0 	0x15e0
9d0049a4:	00000000 	nop
9d0049a8:	a0000010 	sb	zero,16(zero)
9d0049ac:	00000020 	add	zero,zero,zero
9d0049b0:	00000000 	nop
9d0049b4:	a0000000 	sb	zero,0(zero)
9d0049b8:	00000008 	jr	zero
9d0049bc:	00000001 	movf	zero,zero,$fcc0
9d0049c0:	3dcccccd 	0x3dcccccd
9d0049c4:	3e4ccccd 	0x3e4ccccd
9d0049c8:	a0001a24 	sb	zero,6692(zero)
9d0049cc:	000000d4 	0xd4
9d0049d0:	00000001 	movf	zero,zero,$fcc0
9d0049d4:	a0001a88 	sb	zero,6792(zero)
9d0049d8:	a0001aa4 	sb	zero,6820(zero)
9d0049dc:	a0001ac0 	sb	zero,6848(zero)
9d0049e0:	a0001a84 	sb	zero,6788(zero)
9d0049e4:	a0001af8 	sb	zero,6904(zero)
9d0049e8:	00000001 	movf	zero,zero,$fcc0
	...
9d004a38:	ffffffff 	sdc3	$31,-1(ra)
9d004a3c:	ffffffff 	sdc3	$31,-1(ra)
9d004a40:	00000000 	nop
9d004a44:	00000040 	ssnop
9d004a48:	00001009 	jalr	v0,zero
9d004a4c:	00000000 	nop
9d004a50:	9d00b72c 	0x9d00b72c
9d004a54:	ffffffff 	sdc3	$31,-1(ra)
	...
9d004a64:	00011002 	srl	v0,at,0x0
9d004a68:	00000000 	nop
9d004a6c:	9d00b72c 	0x9d00b72c
9d004a70:	ffffffff 	sdc3	$31,-1(ra)
	...
9d004a80:	00020002 	srl	zero,v0,0x0
9d004a84:	00000000 	nop
9d004a88:	9d00b72c 	0x9d00b72c
9d004a8c:	fffffffd 	sdc3	$31,-3(ra)
	...
9d004aa8:	a0001af8 	sb	zero,6904(zero)
9d004aac:	00000088 	0x88
9d004ab0:	00000000 	nop
9d004ab4:	a0000008 	sb	zero,8(zero)
9d004ab8:	00000004 	sllv	zero,zero,zero
9d004abc:	00000001 	movf	zero,zero,$fcc0
9d004ac0:	a0001a24 	sb	zero,6692(zero)
9d004ac4:	a0001bf8 	sb	zero,7160(zero)
9d004ac8:	00000004 	sllv	zero,zero,zero
9d004acc:	00000000 	nop
9d004ad0:	a0001614 	sb	zero,5652(zero)
9d004ad4:	00000410 	0x410
9d004ad8:	00000001 	movf	zero,zero,$fcc0
9d004adc:	ffffffff 	sdc3	$31,-1(ra)
9d004ae0:	00002000 	sll	a0,zero,0x0
	...
9d004aec:	a000161c 	sb	zero,5660(zero)
9d004af0:	a000161c 	sb	zero,5660(zero)
9d004af4:	a0001624 	sb	zero,5668(zero)
9d004af8:	a0001624 	sb	zero,5668(zero)
9d004afc:	a000162c 	sb	zero,5676(zero)
9d004b00:	a000162c 	sb	zero,5676(zero)
9d004b04:	a0001634 	sb	zero,5684(zero)
9d004b08:	a0001634 	sb	zero,5684(zero)
9d004b0c:	a000163c 	sb	zero,5692(zero)
9d004b10:	a000163c 	sb	zero,5692(zero)
9d004b14:	a0001644 	sb	zero,5700(zero)
9d004b18:	a0001644 	sb	zero,5700(zero)
9d004b1c:	a000164c 	sb	zero,5708(zero)
9d004b20:	a000164c 	sb	zero,5708(zero)
9d004b24:	a0001654 	sb	zero,5716(zero)
9d004b28:	a0001654 	sb	zero,5716(zero)
9d004b2c:	a000165c 	sb	zero,5724(zero)
9d004b30:	a000165c 	sb	zero,5724(zero)
9d004b34:	a0001664 	sb	zero,5732(zero)
9d004b38:	a0001664 	sb	zero,5732(zero)
9d004b3c:	a000166c 	sb	zero,5740(zero)
9d004b40:	a000166c 	sb	zero,5740(zero)
9d004b44:	a0001674 	sb	zero,5748(zero)
9d004b48:	a0001674 	sb	zero,5748(zero)
9d004b4c:	a000167c 	sb	zero,5756(zero)
9d004b50:	a000167c 	sb	zero,5756(zero)
9d004b54:	a0001684 	sb	zero,5764(zero)
9d004b58:	a0001684 	sb	zero,5764(zero)
9d004b5c:	a000168c 	sb	zero,5772(zero)
9d004b60:	a000168c 	sb	zero,5772(zero)
9d004b64:	a0001694 	sb	zero,5780(zero)
9d004b68:	a0001694 	sb	zero,5780(zero)
9d004b6c:	a000169c 	sb	zero,5788(zero)
9d004b70:	a000169c 	sb	zero,5788(zero)
9d004b74:	a00016a4 	sb	zero,5796(zero)
9d004b78:	a00016a4 	sb	zero,5796(zero)
9d004b7c:	a00016ac 	sb	zero,5804(zero)
9d004b80:	a00016ac 	sb	zero,5804(zero)
9d004b84:	a00016b4 	sb	zero,5812(zero)
9d004b88:	a00016b4 	sb	zero,5812(zero)
9d004b8c:	a00016bc 	sb	zero,5820(zero)
9d004b90:	a00016bc 	sb	zero,5820(zero)
9d004b94:	a00016c4 	sb	zero,5828(zero)
9d004b98:	a00016c4 	sb	zero,5828(zero)
9d004b9c:	a00016cc 	sb	zero,5836(zero)
9d004ba0:	a00016cc 	sb	zero,5836(zero)
9d004ba4:	a00016d4 	sb	zero,5844(zero)
9d004ba8:	a00016d4 	sb	zero,5844(zero)
9d004bac:	a00016dc 	sb	zero,5852(zero)
9d004bb0:	a00016dc 	sb	zero,5852(zero)
9d004bb4:	a00016e4 	sb	zero,5860(zero)
9d004bb8:	a00016e4 	sb	zero,5860(zero)
9d004bbc:	a00016ec 	sb	zero,5868(zero)
9d004bc0:	a00016ec 	sb	zero,5868(zero)
9d004bc4:	a00016f4 	sb	zero,5876(zero)
9d004bc8:	a00016f4 	sb	zero,5876(zero)
9d004bcc:	a00016fc 	sb	zero,5884(zero)
9d004bd0:	a00016fc 	sb	zero,5884(zero)
9d004bd4:	a0001704 	sb	zero,5892(zero)
9d004bd8:	a0001704 	sb	zero,5892(zero)
9d004bdc:	a000170c 	sb	zero,5900(zero)
9d004be0:	a000170c 	sb	zero,5900(zero)
9d004be4:	a0001714 	sb	zero,5908(zero)
9d004be8:	a0001714 	sb	zero,5908(zero)
9d004bec:	a000171c 	sb	zero,5916(zero)
9d004bf0:	a000171c 	sb	zero,5916(zero)
9d004bf4:	a0001724 	sb	zero,5924(zero)
9d004bf8:	a0001724 	sb	zero,5924(zero)
9d004bfc:	a000172c 	sb	zero,5932(zero)
9d004c00:	a000172c 	sb	zero,5932(zero)
9d004c04:	a0001734 	sb	zero,5940(zero)
9d004c08:	a0001734 	sb	zero,5940(zero)
9d004c0c:	a000173c 	sb	zero,5948(zero)
9d004c10:	a000173c 	sb	zero,5948(zero)
9d004c14:	a0001744 	sb	zero,5956(zero)
9d004c18:	a0001744 	sb	zero,5956(zero)
9d004c1c:	a000174c 	sb	zero,5964(zero)
9d004c20:	a000174c 	sb	zero,5964(zero)
9d004c24:	a0001754 	sb	zero,5972(zero)
9d004c28:	a0001754 	sb	zero,5972(zero)
9d004c2c:	a000175c 	sb	zero,5980(zero)
9d004c30:	a000175c 	sb	zero,5980(zero)
9d004c34:	a0001764 	sb	zero,5988(zero)
9d004c38:	a0001764 	sb	zero,5988(zero)
9d004c3c:	a000176c 	sb	zero,5996(zero)
9d004c40:	a000176c 	sb	zero,5996(zero)
9d004c44:	a0001774 	sb	zero,6004(zero)
9d004c48:	a0001774 	sb	zero,6004(zero)
9d004c4c:	a000177c 	sb	zero,6012(zero)
9d004c50:	a000177c 	sb	zero,6012(zero)
9d004c54:	a0001784 	sb	zero,6020(zero)
9d004c58:	a0001784 	sb	zero,6020(zero)
9d004c5c:	a000178c 	sb	zero,6028(zero)
9d004c60:	a000178c 	sb	zero,6028(zero)
9d004c64:	a0001794 	sb	zero,6036(zero)
9d004c68:	a0001794 	sb	zero,6036(zero)
9d004c6c:	a000179c 	sb	zero,6044(zero)
9d004c70:	a000179c 	sb	zero,6044(zero)
9d004c74:	a00017a4 	sb	zero,6052(zero)
9d004c78:	a00017a4 	sb	zero,6052(zero)
9d004c7c:	a00017ac 	sb	zero,6060(zero)
9d004c80:	a00017ac 	sb	zero,6060(zero)
9d004c84:	a00017b4 	sb	zero,6068(zero)
9d004c88:	a00017b4 	sb	zero,6068(zero)
9d004c8c:	a00017bc 	sb	zero,6076(zero)
9d004c90:	a00017bc 	sb	zero,6076(zero)
9d004c94:	a00017c4 	sb	zero,6084(zero)
9d004c98:	a00017c4 	sb	zero,6084(zero)
9d004c9c:	a00017cc 	sb	zero,6092(zero)
9d004ca0:	a00017cc 	sb	zero,6092(zero)
9d004ca4:	a00017d4 	sb	zero,6100(zero)
9d004ca8:	a00017d4 	sb	zero,6100(zero)
9d004cac:	a00017dc 	sb	zero,6108(zero)
9d004cb0:	a00017dc 	sb	zero,6108(zero)
9d004cb4:	a00017e4 	sb	zero,6116(zero)
9d004cb8:	a00017e4 	sb	zero,6116(zero)
9d004cbc:	a00017ec 	sb	zero,6124(zero)
9d004cc0:	a00017ec 	sb	zero,6124(zero)
9d004cc4:	a00017f4 	sb	zero,6132(zero)
9d004cc8:	a00017f4 	sb	zero,6132(zero)
9d004ccc:	a00017fc 	sb	zero,6140(zero)
9d004cd0:	a00017fc 	sb	zero,6140(zero)
9d004cd4:	a0001804 	sb	zero,6148(zero)
9d004cd8:	a0001804 	sb	zero,6148(zero)
9d004cdc:	a000180c 	sb	zero,6156(zero)
9d004ce0:	a000180c 	sb	zero,6156(zero)
9d004ce4:	a0001814 	sb	zero,6164(zero)
9d004ce8:	a0001814 	sb	zero,6164(zero)
9d004cec:	a000181c 	sb	zero,6172(zero)
9d004cf0:	a000181c 	sb	zero,6172(zero)
9d004cf4:	a0001824 	sb	zero,6180(zero)
9d004cf8:	a0001824 	sb	zero,6180(zero)
9d004cfc:	a000182c 	sb	zero,6188(zero)
9d004d00:	a000182c 	sb	zero,6188(zero)
9d004d04:	a0001834 	sb	zero,6196(zero)
9d004d08:	a0001834 	sb	zero,6196(zero)
9d004d0c:	a000183c 	sb	zero,6204(zero)
9d004d10:	a000183c 	sb	zero,6204(zero)
9d004d14:	a0001844 	sb	zero,6212(zero)
9d004d18:	a0001844 	sb	zero,6212(zero)
9d004d1c:	a000184c 	sb	zero,6220(zero)
9d004d20:	a000184c 	sb	zero,6220(zero)
9d004d24:	a0001854 	sb	zero,6228(zero)
9d004d28:	a0001854 	sb	zero,6228(zero)
9d004d2c:	a000185c 	sb	zero,6236(zero)
9d004d30:	a000185c 	sb	zero,6236(zero)
9d004d34:	a0001864 	sb	zero,6244(zero)
9d004d38:	a0001864 	sb	zero,6244(zero)
9d004d3c:	a000186c 	sb	zero,6252(zero)
9d004d40:	a000186c 	sb	zero,6252(zero)
9d004d44:	a0001874 	sb	zero,6260(zero)
9d004d48:	a0001874 	sb	zero,6260(zero)
9d004d4c:	a000187c 	sb	zero,6268(zero)
9d004d50:	a000187c 	sb	zero,6268(zero)
9d004d54:	a0001884 	sb	zero,6276(zero)
9d004d58:	a0001884 	sb	zero,6276(zero)
9d004d5c:	a000188c 	sb	zero,6284(zero)
9d004d60:	a000188c 	sb	zero,6284(zero)
9d004d64:	a0001894 	sb	zero,6292(zero)
9d004d68:	a0001894 	sb	zero,6292(zero)
9d004d6c:	a000189c 	sb	zero,6300(zero)
9d004d70:	a000189c 	sb	zero,6300(zero)
9d004d74:	a00018a4 	sb	zero,6308(zero)
9d004d78:	a00018a4 	sb	zero,6308(zero)
9d004d7c:	a00018ac 	sb	zero,6316(zero)
9d004d80:	a00018ac 	sb	zero,6316(zero)
9d004d84:	a00018b4 	sb	zero,6324(zero)
9d004d88:	a00018b4 	sb	zero,6324(zero)
9d004d8c:	a00018bc 	sb	zero,6332(zero)
9d004d90:	a00018bc 	sb	zero,6332(zero)
9d004d94:	a00018c4 	sb	zero,6340(zero)
9d004d98:	a00018c4 	sb	zero,6340(zero)
9d004d9c:	a00018cc 	sb	zero,6348(zero)
9d004da0:	a00018cc 	sb	zero,6348(zero)
9d004da4:	a00018d4 	sb	zero,6356(zero)
9d004da8:	a00018d4 	sb	zero,6356(zero)
9d004dac:	a00018dc 	sb	zero,6364(zero)
9d004db0:	a00018dc 	sb	zero,6364(zero)
9d004db4:	a00018e4 	sb	zero,6372(zero)
9d004db8:	a00018e4 	sb	zero,6372(zero)
9d004dbc:	a00018ec 	sb	zero,6380(zero)
9d004dc0:	a00018ec 	sb	zero,6380(zero)
9d004dc4:	a00018f4 	sb	zero,6388(zero)
9d004dc8:	a00018f4 	sb	zero,6388(zero)
9d004dcc:	a00018fc 	sb	zero,6396(zero)
9d004dd0:	a00018fc 	sb	zero,6396(zero)
9d004dd4:	a0001904 	sb	zero,6404(zero)
9d004dd8:	a0001904 	sb	zero,6404(zero)
9d004ddc:	a000190c 	sb	zero,6412(zero)
9d004de0:	a000190c 	sb	zero,6412(zero)
9d004de4:	a0001914 	sb	zero,6420(zero)
9d004de8:	a0001914 	sb	zero,6420(zero)
9d004dec:	a000191c 	sb	zero,6428(zero)
9d004df0:	a000191c 	sb	zero,6428(zero)
9d004df4:	a0001924 	sb	zero,6436(zero)
9d004df8:	a0001924 	sb	zero,6436(zero)
9d004dfc:	a000192c 	sb	zero,6444(zero)
9d004e00:	a000192c 	sb	zero,6444(zero)
9d004e04:	a0001934 	sb	zero,6452(zero)
9d004e08:	a0001934 	sb	zero,6452(zero)
9d004e0c:	a000193c 	sb	zero,6460(zero)
9d004e10:	a000193c 	sb	zero,6460(zero)
9d004e14:	a0001944 	sb	zero,6468(zero)
9d004e18:	a0001944 	sb	zero,6468(zero)
9d004e1c:	a000194c 	sb	zero,6476(zero)
9d004e20:	a000194c 	sb	zero,6476(zero)
9d004e24:	a0001954 	sb	zero,6484(zero)
9d004e28:	a0001954 	sb	zero,6484(zero)
9d004e2c:	a000195c 	sb	zero,6492(zero)
9d004e30:	a000195c 	sb	zero,6492(zero)
9d004e34:	a0001964 	sb	zero,6500(zero)
9d004e38:	a0001964 	sb	zero,6500(zero)
9d004e3c:	a000196c 	sb	zero,6508(zero)
9d004e40:	a000196c 	sb	zero,6508(zero)
9d004e44:	a0001974 	sb	zero,6516(zero)
9d004e48:	a0001974 	sb	zero,6516(zero)
9d004e4c:	a000197c 	sb	zero,6524(zero)
9d004e50:	a000197c 	sb	zero,6524(zero)
9d004e54:	a0001984 	sb	zero,6532(zero)
9d004e58:	a0001984 	sb	zero,6532(zero)
9d004e5c:	a000198c 	sb	zero,6540(zero)
9d004e60:	a000198c 	sb	zero,6540(zero)
9d004e64:	a0001994 	sb	zero,6548(zero)
9d004e68:	a0001994 	sb	zero,6548(zero)
9d004e6c:	a000199c 	sb	zero,6556(zero)
9d004e70:	a000199c 	sb	zero,6556(zero)
9d004e74:	a00019a4 	sb	zero,6564(zero)
9d004e78:	a00019a4 	sb	zero,6564(zero)
9d004e7c:	a00019ac 	sb	zero,6572(zero)
9d004e80:	a00019ac 	sb	zero,6572(zero)
9d004e84:	a00019b4 	sb	zero,6580(zero)
9d004e88:	a00019b4 	sb	zero,6580(zero)
9d004e8c:	a00019bc 	sb	zero,6588(zero)
9d004e90:	a00019bc 	sb	zero,6588(zero)
9d004e94:	a00019c4 	sb	zero,6596(zero)
9d004e98:	a00019c4 	sb	zero,6596(zero)
9d004e9c:	a00019cc 	sb	zero,6604(zero)
9d004ea0:	a00019cc 	sb	zero,6604(zero)
9d004ea4:	a00019d4 	sb	zero,6612(zero)
9d004ea8:	a00019d4 	sb	zero,6612(zero)
9d004eac:	a00019dc 	sb	zero,6620(zero)
9d004eb0:	a00019dc 	sb	zero,6620(zero)
9d004eb4:	a00019e4 	sb	zero,6628(zero)
9d004eb8:	a00019e4 	sb	zero,6628(zero)
9d004ebc:	a00019ec 	sb	zero,6636(zero)
9d004ec0:	a00019ec 	sb	zero,6636(zero)
9d004ec4:	a00019f4 	sb	zero,6644(zero)
9d004ec8:	a00019f4 	sb	zero,6644(zero)
9d004ecc:	a00019fc 	sb	zero,6652(zero)
9d004ed0:	a00019fc 	sb	zero,6652(zero)
9d004ed4:	a0001a04 	sb	zero,6660(zero)
9d004ed8:	a0001a04 	sb	zero,6660(zero)
9d004edc:	a0001a0c 	sb	zero,6668(zero)
9d004ee0:	a0001a0c 	sb	zero,6668(zero)
9d004ee4:	a0001a14 	sb	zero,6676(zero)
9d004ee8:	a0001a14 	sb	zero,6676(zero)
9d004eec:	a0001b80 	sb	zero,7040(zero)
9d004ef0:	00000034 	teq	zero,zero
9d004ef4:	00000000 	nop
9d004ef8:	a0000030 	sb	zero,48(zero)
9d004efc:	00000004 	sllv	zero,zero,zero
9d004f00:	00000000 	nop
9d004f04:	a0001bd8 	sb	zero,7128(zero)
9d004f08:	00000020 	add	zero,zero,zero
9d004f0c:	00000001 	movf	zero,zero,$fcc0
9d004f10:	00000000 	nop
9d004f14:	ffffffff 	sdc3	$31,-1(ra)
	...
9d004f30:	a0001bfc 	sb	zero,7164(zero)
9d004f34:	00000004 	sllv	zero,zero,zero
9d004f38:	00000000 	nop
9d004f3c:	a0001bb4 	sb	zero,7092(zero)
9d004f40:	00000024 	and	zero,zero,zero
9d004f44:	00000000 	nop
9d004f48:	a000000c 	sb	zero,12(zero)
9d004f4c:	00000004 	sllv	zero,zero,zero
9d004f50:	00000001 	movf	zero,zero,$fcc0
9d004f54:	00000002 	srl	zero,zero,0x0
9d004f58:	00000000 	nop

Disassembly of section .text.realloc:

9d004f5c <realloc>:
9d004f5c:	27bdffc8 	addiu	sp,sp,-56
9d004f60:	afbf0034 	sw	ra,52(sp)
9d004f64:	afbe0030 	sw	s8,48(sp)
9d004f68:	afb7002c 	sw	s7,44(sp)
9d004f6c:	afb60028 	sw	s6,40(sp)
9d004f70:	afb50024 	sw	s5,36(sp)
9d004f74:	afb40020 	sw	s4,32(sp)
9d004f78:	afb3001c 	sw	s3,28(sp)
9d004f7c:	afb20018 	sw	s2,24(sp)
9d004f80:	afb10014 	sw	s1,20(sp)
9d004f84:	afb00010 	sw	s0,16(sp)
9d004f88:	108000e5 	beqz	a0,9d005320 <realloc+0x3c4>
9d004f8c:	00808021 	move	s0,a0
9d004f90:	8c94fffc 	lw	s4,-4(a0)
9d004f94:	24b2000b 	addiu	s2,a1,11
9d004f98:	2e420017 	sltiu	v0,s2,23
9d004f9c:	2493fff8 	addiu	s3,a0,-8
9d004fa0:	2403fffc 	li	v1,-4
9d004fa4:	10400047 	beqz	v0,9d0050c4 <realloc+0x168>
9d004fa8:	02838824 	and	s1,s4,v1
9d004fac:	24030010 	li	v1,16
9d004fb0:	24120010 	li	s2,16
9d004fb4:	0245102b 	sltu	v0,s2,a1
9d004fb8:	14400045 	bnez	v0,9d0050d0 <realloc+0x174>
9d004fbc:	0223102a 	slt	v0,s1,v1
9d004fc0:	10400053 	beqz	v0,9d005110 <realloc+0x1b4>
9d004fc4:	32950001 	andi	s5,s4,0x1
9d004fc8:	3c17a000 	lui	s7,0xa000
9d004fcc:	26f7161c 	addiu	s7,s7,5660
9d004fd0:	8ee40008 	lw	a0,8(s7)
9d004fd4:	02711021 	addu	v0,s3,s1
9d004fd8:	108200b6 	beq	a0,v0,9d0052b4 <realloc+0x358>
9d004fdc:	2408fffe 	li	t0,-2
9d004fe0:	8c460004 	lw	a2,4(v0)
9d004fe4:	00c83824 	and	a3,a2,t0
9d004fe8:	00473821 	addu	a3,v0,a3
9d004fec:	8ce70004 	lw	a3,4(a3)
9d004ff0:	30e70001 	andi	a3,a3,0x1
9d004ff4:	10e0005e 	beqz	a3,9d005170 <realloc+0x214>
9d004ff8:	7c060804 	ins	a2,zero,0x0,0x2
9d004ffc:	00003021 	move	a2,zero
9d005000:	00001021 	move	v0,zero
9d005004:	32950001 	andi	s5,s4,0x1
9d005008:	16a00073 	bnez	s5,9d0051d8 <realloc+0x27c>
9d00500c:	00000000 	nop
9d005010:	8e16fff8 	lw	s6,-8(s0)
9d005014:	0276b023 	subu	s6,s3,s6
9d005018:	8ec70004 	lw	a3,4(s6)
9d00501c:	104000c9 	beqz	v0,9d005344 <realloc+0x3e8>
9d005020:	7c070804 	ins	a3,zero,0x0,0x2
9d005024:	104400c9 	beq	v0,a0,9d00534c <realloc+0x3f0>
9d005028:	00f13821 	addu	a3,a3,s1
9d00502c:	00c7b821 	addu	s7,a2,a3
9d005030:	02e3202a 	slt	a0,s7,v1
9d005034:	5480008d 	bnezl	a0,9d00526c <realloc+0x310>
9d005038:	00e0b821 	move	s7,a3
9d00503c:	8c43000c 	lw	v1,12(v0)
9d005040:	8c420008 	lw	v0,8(v0)
9d005044:	2626fffc 	addiu	a2,s1,-4
9d005048:	2cc40025 	sltiu	a0,a2,37
9d00504c:	ac43000c 	sw	v1,12(v0)
9d005050:	ac620008 	sw	v0,8(v1)
9d005054:	8ec2000c 	lw	v0,12(s6)
9d005058:	8ec30008 	lw	v1,8(s6)
9d00505c:	26d40008 	addiu	s4,s6,8
9d005060:	ac62000c 	sw	v0,12(v1)
9d005064:	1080008b 	beqz	a0,9d005294 <realloc+0x338>
9d005068:	ac430008 	sw	v1,8(v0)
9d00506c:	2cc20014 	sltiu	v0,a2,20
9d005070:	14400009 	bnez	v0,9d005098 <realloc+0x13c>
9d005074:	02801821 	move	v1,s4
9d005078:	8e030000 	lw	v1,0(s0)
9d00507c:	2cc2001c 	sltiu	v0,a2,28
9d005080:	aec30008 	sw	v1,8(s6)
9d005084:	8e030004 	lw	v1,4(s0)
9d005088:	104000e8 	beqz	v0,9d00542c <realloc+0x4d0>
9d00508c:	aec3000c 	sw	v1,12(s6)
9d005090:	26c30010 	addiu	v1,s6,16
9d005094:	26100008 	addiu	s0,s0,8
9d005098:	8e020000 	lw	v0,0(s0)
9d00509c:	02e08821 	move	s1,s7
9d0050a0:	ac620000 	sw	v0,0(v1)
9d0050a4:	8e020004 	lw	v0,4(s0)
9d0050a8:	02c09821 	move	s3,s6
9d0050ac:	ac620004 	sw	v0,4(v1)
9d0050b0:	8e020008 	lw	v0,8(s0)
9d0050b4:	ac620008 	sw	v0,8(v1)
9d0050b8:	8ed50004 	lw	s5,4(s6)
9d0050bc:	0b401445 	j	9d005114 <realloc+0x1b8>
9d0050c0:	32b50001 	andi	s5,s5,0x1
9d0050c4:	7c121004 	ins	s2,zero,0x0,0x3
9d0050c8:	0641ffba 	bgez	s2,9d004fb4 <realloc+0x58>
9d0050cc:	02401821 	move	v1,s2
9d0050d0:	2403000c 	li	v1,12
9d0050d4:	3c02a000 	lui	v0,0xa000
9d0050d8:	ac430030 	sw	v1,48(v0)
9d0050dc:	00001021 	move	v0,zero
9d0050e0:	8fbf0034 	lw	ra,52(sp)
9d0050e4:	8fbe0030 	lw	s8,48(sp)
9d0050e8:	8fb7002c 	lw	s7,44(sp)
9d0050ec:	8fb60028 	lw	s6,40(sp)
9d0050f0:	8fb50024 	lw	s5,36(sp)
9d0050f4:	8fb40020 	lw	s4,32(sp)
9d0050f8:	8fb3001c 	lw	s3,28(sp)
9d0050fc:	8fb20018 	lw	s2,24(sp)
9d005100:	8fb10014 	lw	s1,20(sp)
9d005104:	8fb00010 	lw	s0,16(sp)
9d005108:	03e00008 	jr	ra
9d00510c:	27bd0038 	addiu	sp,sp,56
9d005110:	0200a021 	move	s4,s0
9d005114:	02321823 	subu	v1,s1,s2
9d005118:	2c650010 	sltiu	a1,v1,16
9d00511c:	10a00022 	beqz	a1,9d0051a8 <realloc+0x24c>
9d005120:	02722021 	addu	a0,s3,s2
9d005124:	02b1a825 	or	s5,s5,s1
9d005128:	ae750004 	sw	s5,4(s3)
9d00512c:	02718821 	addu	s1,s3,s1
9d005130:	8e220004 	lw	v0,4(s1)
9d005134:	34420001 	ori	v0,v0,0x1
9d005138:	ae220004 	sw	v0,4(s1)
9d00513c:	02801021 	move	v0,s4
9d005140:	8fbf0034 	lw	ra,52(sp)
9d005144:	8fbe0030 	lw	s8,48(sp)
9d005148:	8fb7002c 	lw	s7,44(sp)
9d00514c:	8fb60028 	lw	s6,40(sp)
9d005150:	8fb50024 	lw	s5,36(sp)
9d005154:	8fb40020 	lw	s4,32(sp)
9d005158:	8fb3001c 	lw	s3,28(sp)
9d00515c:	8fb20018 	lw	s2,24(sp)
9d005160:	8fb10014 	lw	s1,20(sp)
9d005164:	8fb00010 	lw	s0,16(sp)
9d005168:	03e00008 	jr	ra
9d00516c:	27bd0038 	addiu	sp,sp,56
9d005170:	00d13821 	addu	a3,a2,s1
9d005174:	00e3402a 	slt	t0,a3,v1
9d005178:	1500ffa3 	bnez	t0,9d005008 <realloc+0xac>
9d00517c:	32950001 	andi	s5,s4,0x1
9d005180:	8c43000c 	lw	v1,12(v0)
9d005184:	8c420008 	lw	v0,8(v0)
9d005188:	ac43000c 	sw	v1,12(v0)
9d00518c:	00e08821 	move	s1,a3
9d005190:	ac620008 	sw	v0,8(v1)
9d005194:	02321823 	subu	v1,s1,s2
9d005198:	2c650010 	sltiu	a1,v1,16
9d00519c:	14a0ffe1 	bnez	a1,9d005124 <realloc+0x1c8>
9d0051a0:	0200a021 	move	s4,s0
9d0051a4:	02722021 	addu	a0,s3,s2
9d0051a8:	02b29025 	or	s2,s5,s2
9d0051ac:	34620001 	ori	v0,v1,0x1
9d0051b0:	ae720004 	sw	s2,4(s3)
9d0051b4:	00831821 	addu	v1,a0,v1
9d0051b8:	ac820004 	sw	v0,4(a0)
9d0051bc:	8c620004 	lw	v0,4(v1)
9d0051c0:	24840008 	addiu	a0,a0,8
9d0051c4:	34420001 	ori	v0,v0,0x1
9d0051c8:	0f40215e 	jal	9d008578 <free>
9d0051cc:	ac620004 	sw	v0,4(v1)
9d0051d0:	0b401450 	j	9d005140 <realloc+0x1e4>
9d0051d4:	02801021 	move	v0,s4
9d0051d8:	0f400d2f 	jal	9d0034bc <malloc>
9d0051dc:	00a02021 	move	a0,a1
9d0051e0:	104000ad 	beqz	v0,9d005498 <realloc+0x53c>
9d0051e4:	0040b021 	move	s6,v0
9d0051e8:	7c140004 	ins	s4,zero,0x0,0x1
9d0051ec:	2442fff8 	addiu	v0,v0,-8
9d0051f0:	0274a021 	addu	s4,s3,s4
9d0051f4:	10540088 	beq	v0,s4,9d005418 <realloc+0x4bc>
9d0051f8:	2626fffc 	addiu	a2,s1,-4
9d0051fc:	2cc20025 	sltiu	v0,a2,37
9d005200:	1040004b 	beqz	v0,9d005330 <realloc+0x3d4>
9d005204:	2cc20014 	sltiu	v0,a2,20
9d005208:	50400033 	beqzl	v0,9d0052d8 <realloc+0x37c>
9d00520c:	8e040000 	lw	a0,0(s0)
9d005210:	02c01021 	move	v0,s6
9d005214:	02001821 	move	v1,s0
9d005218:	8c650000 	lw	a1,0(v1)
9d00521c:	8c640004 	lw	a0,4(v1)
9d005220:	8c630008 	lw	v1,8(v1)
9d005224:	ac450000 	sw	a1,0(v0)
9d005228:	ac440004 	sw	a0,4(v0)
9d00522c:	ac430008 	sw	v1,8(v0)
9d005230:	0f40215e 	jal	9d008578 <free>
9d005234:	02002021 	move	a0,s0
9d005238:	02c01021 	move	v0,s6
9d00523c:	8fbf0034 	lw	ra,52(sp)
9d005240:	8fbe0030 	lw	s8,48(sp)
9d005244:	8fb7002c 	lw	s7,44(sp)
9d005248:	8fb60028 	lw	s6,40(sp)
9d00524c:	8fb50024 	lw	s5,36(sp)
9d005250:	8fb40020 	lw	s4,32(sp)
9d005254:	8fb3001c 	lw	s3,28(sp)
9d005258:	8fb20018 	lw	s2,24(sp)
9d00525c:	8fb10014 	lw	s1,20(sp)
9d005260:	8fb00010 	lw	s0,16(sp)
9d005264:	03e00008 	jr	ra
9d005268:	27bd0038 	addiu	sp,sp,56
9d00526c:	02e3182a 	slt	v1,s7,v1
9d005270:	1460ffd9 	bnez	v1,9d0051d8 <realloc+0x27c>
9d005274:	2626fffc 	addiu	a2,s1,-4
9d005278:	8ec2000c 	lw	v0,12(s6)
9d00527c:	8ec30008 	lw	v1,8(s6)
9d005280:	2cc40025 	sltiu	a0,a2,37
9d005284:	ac62000c 	sw	v0,12(v1)
9d005288:	26d40008 	addiu	s4,s6,8
9d00528c:	1480ff77 	bnez	a0,9d00506c <realloc+0x110>
9d005290:	ac430008 	sw	v1,8(v0)
9d005294:	02802021 	move	a0,s4
9d005298:	0f402bb6 	jal	9d00aed8 <memmove>
9d00529c:	02002821 	move	a1,s0
9d0052a0:	8ed50004 	lw	s5,4(s6)
9d0052a4:	02e08821 	move	s1,s7
9d0052a8:	32b50001 	andi	s5,s5,0x1
9d0052ac:	0b401445 	j	9d005114 <realloc+0x1b8>
9d0052b0:	02c09821 	move	s3,s6
9d0052b4:	8c860004 	lw	a2,4(a0)
9d0052b8:	26470010 	addiu	a3,s2,16
9d0052bc:	7c060804 	ins	a2,zero,0x0,0x2
9d0052c0:	00d11021 	addu	v0,a2,s1
9d0052c4:	0047382a 	slt	a3,v0,a3
9d0052c8:	50e0000b 	beqzl	a3,9d0052f8 <realloc+0x39c>
9d0052cc:	00521023 	subu	v0,v0,s2
9d0052d0:	0b401401 	j	9d005004 <realloc+0xa8>
9d0052d4:	00801021 	move	v0,a0
9d0052d8:	8e030004 	lw	v1,4(s0)
9d0052dc:	2cc2001c 	sltiu	v0,a2,28
9d0052e0:	aec40000 	sw	a0,0(s6)
9d0052e4:	10400042 	beqz	v0,9d0053f0 <realloc+0x494>
9d0052e8:	aec30004 	sw	v1,4(s6)
9d0052ec:	26c20008 	addiu	v0,s6,8
9d0052f0:	0b401486 	j	9d005218 <realloc+0x2bc>
9d0052f4:	26030008 	addiu	v1,s0,8
9d0052f8:	02729821 	addu	s3,s3,s2
9d0052fc:	34420001 	ori	v0,v0,0x1
9d005300:	aef30008 	sw	s3,8(s7)
9d005304:	ae620004 	sw	v0,4(s3)
9d005308:	8e03fffc 	lw	v1,-4(s0)
9d00530c:	02001021 	move	v0,s0
9d005310:	30630001 	andi	v1,v1,0x1
9d005314:	02439025 	or	s2,s2,v1
9d005318:	0b401450 	j	9d005140 <realloc+0x1e4>
9d00531c:	ae12fffc 	sw	s2,-4(s0)
9d005320:	0f400d2f 	jal	9d0034bc <malloc>
9d005324:	00a02021 	move	a0,a1
9d005328:	0b401451 	j	9d005144 <realloc+0x1e8>
9d00532c:	8fbf0034 	lw	ra,52(sp)
9d005330:	02c02021 	move	a0,s6
9d005334:	0f402bb6 	jal	9d00aed8 <memmove>
9d005338:	02002821 	move	a1,s0
9d00533c:	0b40148c 	j	9d005230 <realloc+0x2d4>
9d005340:	00000000 	nop
9d005344:	0b40149b 	j	9d00526c <realloc+0x310>
9d005348:	00f1b821 	addu	s7,a3,s1
9d00534c:	00c7f021 	addu	s8,a2,a3
9d005350:	26420010 	addiu	v0,s2,16
9d005354:	03c2102a 	slt	v0,s8,v0
9d005358:	5440ffc4 	bnezl	v0,9d00526c <realloc+0x310>
9d00535c:	00e0b821 	move	s7,a3
9d005360:	8ec3000c 	lw	v1,12(s6)
9d005364:	8ec50008 	lw	a1,8(s6)
9d005368:	2626fffc 	addiu	a2,s1,-4
9d00536c:	2cc20025 	sltiu	v0,a2,37
9d005370:	aca3000c 	sw	v1,12(a1)
9d005374:	26c70008 	addiu	a3,s6,8
9d005378:	10400042 	beqz	v0,9d005484 <realloc+0x528>
9d00537c:	ac650008 	sw	a1,8(v1)
9d005380:	2cc20014 	sltiu	v0,a2,20
9d005384:	14400009 	bnez	v0,9d0053ac <realloc+0x450>
9d005388:	00e01821 	move	v1,a3
9d00538c:	8e030000 	lw	v1,0(s0)
9d005390:	2cc2001c 	sltiu	v0,a2,28
9d005394:	aec30008 	sw	v1,8(s6)
9d005398:	8e030004 	lw	v1,4(s0)
9d00539c:	10400040 	beqz	v0,9d0054a0 <realloc+0x544>
9d0053a0:	aec3000c 	sw	v1,12(s6)
9d0053a4:	26c30010 	addiu	v1,s6,16
9d0053a8:	26100008 	addiu	s0,s0,8
9d0053ac:	8e020000 	lw	v0,0(s0)
9d0053b0:	ac620000 	sw	v0,0(v1)
9d0053b4:	8e020004 	lw	v0,4(s0)
9d0053b8:	ac620004 	sw	v0,4(v1)
9d0053bc:	8e020008 	lw	v0,8(s0)
9d0053c0:	ac620008 	sw	v0,8(v1)
9d0053c4:	03d21023 	subu	v0,s8,s2
9d0053c8:	02d21821 	addu	v1,s6,s2
9d0053cc:	34420001 	ori	v0,v0,0x1
9d0053d0:	aee30008 	sw	v1,8(s7)
9d0053d4:	ac620004 	sw	v0,4(v1)
9d0053d8:	8ec30004 	lw	v1,4(s6)
9d0053dc:	00e01021 	move	v0,a3
9d0053e0:	30630001 	andi	v1,v1,0x1
9d0053e4:	02439025 	or	s2,s2,v1
9d0053e8:	0b401450 	j	9d005140 <realloc+0x1e4>
9d0053ec:	aed20004 	sw	s2,4(s6)
9d0053f0:	8e030008 	lw	v1,8(s0)
9d0053f4:	8e02000c 	lw	v0,12(s0)
9d0053f8:	aec30008 	sw	v1,8(s6)
9d0053fc:	aec2000c 	sw	v0,12(s6)
9d005400:	24020024 	li	v0,36
9d005404:	50c20013 	beql	a2,v0,9d005454 <realloc+0x4f8>
9d005408:	8e030010 	lw	v1,16(s0)
9d00540c:	26c20010 	addiu	v0,s6,16
9d005410:	0b401486 	j	9d005218 <realloc+0x2bc>
9d005414:	26030010 	addiu	v1,s0,16
9d005418:	8ec2fffc 	lw	v0,-4(s6)
9d00541c:	0200a021 	move	s4,s0
9d005420:	7c020804 	ins	v0,zero,0x0,0x2
9d005424:	0b401445 	j	9d005114 <realloc+0x1b8>
9d005428:	02228821 	addu	s1,s1,v0
9d00542c:	8e020008 	lw	v0,8(s0)
9d005430:	aec20010 	sw	v0,16(s6)
9d005434:	8e02000c 	lw	v0,12(s0)
9d005438:	aec20014 	sw	v0,20(s6)
9d00543c:	24020024 	li	v0,36
9d005440:	50c2000a 	beql	a2,v0,9d00546c <realloc+0x510>
9d005444:	8e020010 	lw	v0,16(s0)
9d005448:	26c30018 	addiu	v1,s6,24
9d00544c:	0b401426 	j	9d005098 <realloc+0x13c>
9d005450:	26100010 	addiu	s0,s0,16
9d005454:	8e040014 	lw	a0,20(s0)
9d005458:	26c20018 	addiu	v0,s6,24
9d00545c:	aec30010 	sw	v1,16(s6)
9d005460:	26030018 	addiu	v1,s0,24
9d005464:	0b401486 	j	9d005218 <realloc+0x2bc>
9d005468:	aec40014 	sw	a0,20(s6)
9d00546c:	26c30020 	addiu	v1,s6,32
9d005470:	aec20018 	sw	v0,24(s6)
9d005474:	8e020014 	lw	v0,20(s0)
9d005478:	26100018 	addiu	s0,s0,24
9d00547c:	0b401426 	j	9d005098 <realloc+0x13c>
9d005480:	aec2001c 	sw	v0,28(s6)
9d005484:	00e02021 	move	a0,a3
9d005488:	0f402bb6 	jal	9d00aed8 <memmove>
9d00548c:	02002821 	move	a1,s0
9d005490:	0b4014f1 	j	9d0053c4 <realloc+0x468>
9d005494:	00403821 	move	a3,v0
9d005498:	0b401450 	j	9d005140 <realloc+0x1e4>
9d00549c:	00001021 	move	v0,zero
9d0054a0:	8e020008 	lw	v0,8(s0)
9d0054a4:	aec20010 	sw	v0,16(s6)
9d0054a8:	8e02000c 	lw	v0,12(s0)
9d0054ac:	aec20014 	sw	v0,20(s6)
9d0054b0:	24020024 	li	v0,36
9d0054b4:	50c20004 	beql	a2,v0,9d0054c8 <realloc+0x56c>
9d0054b8:	8e020010 	lw	v0,16(s0)
9d0054bc:	26c30018 	addiu	v1,s6,24
9d0054c0:	0b4014eb 	j	9d0053ac <realloc+0x450>
9d0054c4:	26100010 	addiu	s0,s0,16
9d0054c8:	26c30020 	addiu	v1,s6,32
9d0054cc:	aec20018 	sw	v0,24(s6)
9d0054d0:	8e020014 	lw	v0,20(s0)
9d0054d4:	26100018 	addiu	s0,s0,24
9d0054d8:	0b4014eb 	j	9d0053ac <realloc+0x450>
9d0054dc:	aec2001c 	sw	v0,28(s6)

Disassembly of section .text.dp32mul:

9d0054e0 <__divdf3>:
9d0054e0:	00055040 000a5542 00054ac0 00047d42     @P..BU...J..B}..
9d0054f0:	012f4825 000442c0 3c0e8000 012e4825     %H/..B.....<%H..
9d005500:	00076840 000d6d42 000762c0 00067d42     @h..Bm...b..B}..
9d005510:	018f6025 00065ac0 018e6025 00a72826     %`...Z..%`..&(..
9d005520:	00ae2824 254fffff 2de107fe 102000cb     $(....O%...-.. .
9d005530:	00000000                                ....

9d005534 <Dlab1>:
9d005534:	25afffff 	addiu	t7,t5,-1
9d005538:	2de107fe 	sltiu	at,t7,2046
9d00553c:	102000f4 	beqz	at,9d005910 <DspecB>
9d005540:	00000000 	nop

9d005544 <Dlab2>:
9d005544:	014d5023 	subu	t2,t2,t5
9d005548:	254a03ff 	addiu	t2,t2,1023
9d00554c:	00084042 	srl	t0,t0,0x1
9d005550:	00097fc0 	sll	t7,t1,0x1f
9d005554:	010f4025 	or	t0,t0,t7
9d005558:	00094842 	srl	t1,t1,0x1
9d00555c:	000c3c02 	srl	a3,t4,0x10
9d005560:	00e001f4 	teq	a3,zero,0x7
9d005564:	0127001b 	divu	zero,t1,a3
9d005568:	00007012 	mflo	t6
9d00556c:	00004810 	mfhi	t1
9d005570:	3186ffff 	andi	a2,t4,0xffff
9d005574:	00ce0019 	multu	a2,t6
9d005578:	00002012 	mflo	a0
9d00557c:	00094c00 	sll	t1,t1,0x10
9d005580:	00087c02 	srl	t7,t0,0x10
9d005584:	012f4825 	or	t1,t1,t7
9d005588:	0124782b 	sltu	t7,t1,a0
9d00558c:	11e00006 	beqz	t7,9d0055a8 <i20>
9d005590:	01244823 	subu	t1,t1,a0

9d005594 <b21>:
9d005594:	25ceffff 	addiu	t6,t6,-1
9d005598:	012c4821 	addu	t1,t1,t4
9d00559c:	012c082b 	sltu	at,t1,t4
9d0055a0:	1020fffc 	beqz	at,9d005594 <b21>
9d0055a4:	00000000 	nop

9d0055a8 <i20>:
9d0055a8:	00e001f4 	teq	a3,zero,0x7
9d0055ac:	0127001b 	divu	zero,t1,a3
9d0055b0:	00003812 	mflo	a3
9d0055b4:	00004810 	mfhi	t1
9d0055b8:	00c70019 	multu	a2,a3
9d0055bc:	00002012 	mflo	a0
9d0055c0:	00094c00 	sll	t1,t1,0x10
9d0055c4:	310fffff 	andi	t7,t0,0xffff
9d0055c8:	012f4825 	or	t1,t1,t7
9d0055cc:	0124782b 	sltu	t7,t1,a0
9d0055d0:	11e00006 	beqz	t7,9d0055ec <i22>
9d0055d4:	01244823 	subu	t1,t1,a0

9d0055d8 <b23>:
9d0055d8:	24e7ffff 	addiu	a3,a3,-1
9d0055dc:	012c4821 	addu	t1,t1,t4
9d0055e0:	012c082b 	sltu	at,t1,t4
9d0055e4:	1020fffc 	beqz	at,9d0055d8 <b23>
9d0055e8:	00000000 	nop

9d0055ec <i22>:
9d0055ec:	000e7400 	sll	t6,t6,0x10
9d0055f0:	01c77021 	addu	t6,t6,a3
9d0055f4:	01cb0019 	multu	t6,t3
9d0055f8:	00003812 	mflo	a3
9d0055fc:	00002010 	mfhi	a0
9d005600:	24080000 	li	t0,0
9d005604:	0107782b 	sltu	t7,t0,a3
9d005608:	01074023 	subu	t0,t0,a3
9d00560c:	012f102b 	sltu	v0,t1,t7
9d005610:	012f4823 	subu	t1,t1,t7
9d005614:	0124782b 	sltu	t7,t1,a0
9d005618:	01e27825 	or	t7,t7,v0
9d00561c:	11e0000b 	beqz	t7,9d00564c <i24>
9d005620:	01244823 	subu	t1,t1,a0

9d005624 <Dlab3>:
9d005624:	25ceffff 	addiu	t6,t6,-1
9d005628:	010b4021 	addu	t0,t0,t3
9d00562c:	010b782b 	sltu	t7,t0,t3
9d005630:	012c4821 	addu	t1,t1,t4
9d005634:	012f4821 	addu	t1,t1,t7
9d005638:	112c0002 	beq	t1,t4,9d005644 <L31>
9d00563c:	00000000 	nop
9d005640:	012c782b 	sltu	t7,t1,t4

9d005644 <L31>:
9d005644:	11e0fff7 	beqz	t7,9d005624 <Dlab3>
9d005648:	00000000 	nop

9d00564c <i24>:
9d00564c:	152c0006 	bne	t1,t4,9d005668 <i25>
9d005650:	00000000 	nop
9d005654:	000b2025 	or	a0,zero,t3
9d005658:	00084825 	or	t1,zero,t0
9d00565c:	240d0000 	li	t5,0
9d005660:	1000002a 	b	9d00570c <e25>
9d005664:	000d3825 	or	a3,zero,t5

9d005668 <i25>:
9d005668:	000c3c02 	srl	a3,t4,0x10
9d00566c:	00e001f4 	teq	a3,zero,0x7
9d005670:	0127001b 	divu	zero,t1,a3
9d005674:	00006812 	mflo	t5
9d005678:	00004810 	mfhi	t1
9d00567c:	3186ffff 	andi	a2,t4,0xffff
9d005680:	00cd0019 	multu	a2,t5
9d005684:	00002012 	mflo	a0
9d005688:	00094c00 	sll	t1,t1,0x10
9d00568c:	00087c02 	srl	t7,t0,0x10
9d005690:	012f4825 	or	t1,t1,t7
9d005694:	0124782b 	sltu	t7,t1,a0
9d005698:	11e00006 	beqz	t7,9d0056b4 <i26>
9d00569c:	01244823 	subu	t1,t1,a0

9d0056a0 <b27>:
9d0056a0:	25adffff 	addiu	t5,t5,-1
9d0056a4:	012c4821 	addu	t1,t1,t4
9d0056a8:	012c082b 	sltu	at,t1,t4
9d0056ac:	1020fffc 	beqz	at,9d0056a0 <b27>
9d0056b0:	00000000 	nop

9d0056b4 <i26>:
9d0056b4:	00e001f4 	teq	a3,zero,0x7
9d0056b8:	0127001b 	divu	zero,t1,a3
9d0056bc:	00003812 	mflo	a3
9d0056c0:	00004810 	mfhi	t1
9d0056c4:	00c70019 	multu	a2,a3
9d0056c8:	00002012 	mflo	a0
9d0056cc:	00094c00 	sll	t1,t1,0x10
9d0056d0:	310fffff 	andi	t7,t0,0xffff
9d0056d4:	012f4825 	or	t1,t1,t7
9d0056d8:	0124782b 	sltu	t7,t1,a0
9d0056dc:	11e00006 	beqz	t7,9d0056f8 <i28>
9d0056e0:	01244823 	subu	t1,t1,a0

9d0056e4 <b29>:
9d0056e4:	24e7ffff 	addiu	a3,a3,-1
9d0056e8:	012c4821 	addu	t1,t1,t4
9d0056ec:	012c082b 	sltu	at,t1,t4
9d0056f0:	1020fffc 	beqz	at,9d0056e4 <b29>
9d0056f4:	00000000 	nop

9d0056f8 <i28>:
9d0056f8:	000d6c00 	sll	t5,t5,0x10
9d0056fc:	01a76821 	addu	t5,t5,a3
9d005700:	01ab0019 	multu	t5,t3
9d005704:	00003812 	mflo	a3
9d005708:	00002010 	mfhi	a0

9d00570c <e25>:
9d00570c:	24080000 	li	t0,0
9d005710:	0107782b 	sltu	t7,t0,a3
9d005714:	01074023 	subu	t0,t0,a3
9d005718:	012f102b 	sltu	v0,t1,t7
9d00571c:	012f4823 	subu	t1,t1,t7
9d005720:	0124782b 	sltu	t7,t1,a0
9d005724:	01e27825 	or	t7,t7,v0
9d005728:	11e0000b 	beqz	t7,9d005758 <i30>
9d00572c:	01244823 	subu	t1,t1,a0

9d005730 <Dlab4>:
9d005730:	25adffff 	addiu	t5,t5,-1
9d005734:	010b4021 	addu	t0,t0,t3
9d005738:	010b782b 	sltu	t7,t0,t3
9d00573c:	012c4821 	addu	t1,t1,t4
9d005740:	012f4821 	addu	t1,t1,t7
9d005744:	112c0002 	beq	t1,t4,9d005750 <L32>
9d005748:	00000000 	nop
9d00574c:	012c782b 	sltu	t7,t1,t4

9d005750 <L32>:
9d005750:	11e0fff7 	beqz	t7,9d005730 <Dlab4>
9d005754:	00000000 	nop

9d005758 <i30>:
9d005758:	05c00006 	bltz	t6,9d005774 <i31>
9d00575c:	00000000 	nop
9d005760:	01a0782a 	slt	t7,t5,zero
9d005764:	01ad6821 	addu	t5,t5,t5
9d005768:	01ce7021 	addu	t6,t6,t6
9d00576c:	01cf7021 	addu	t6,t6,t7
9d005770:	254affff 	addiu	t2,t2,-1

9d005774 <i31>:
9d005774:	01287825 	or	t7,t1,t0
9d005778:	11e00002 	beqz	t7,9d005784 <i32>
9d00577c:	00000000 	nop
9d005780:	35ad0001 	ori	t5,t5,0x1

9d005784 <i32>:
9d005784:	000e4825 	or	t1,zero,t6
9d005788:	000d4025 	or	t0,zero,t5
9d00578c:	254fffff 	addiu	t7,t2,-1
9d005790:	2de107fe 	sltiu	at,t7,2046
9d005794:	10200015 	beqz	at,9d0057ec <Doveund>
9d005798:	00000000 	nop
9d00579c:	25080400 	addiu	t0,t0,1024
9d0057a0:	2d0f0400 	sltiu	t7,t0,1024
9d0057a4:	012f4821 	addu	t1,t1,t7
9d0057a8:	012f782b 	sltu	t7,t1,t7
9d0057ac:	014f5021 	addu	t2,t2,t7

9d0057b0 <Dlab8>:
9d0057b0:	00087ac2 	srl	t7,t0,0xb
9d0057b4:	31ef0001 	andi	t7,t7,0x1
9d0057b8:	010f4023 	subu	t0,t0,t7
9d0057bc:	000822c2 	srl	a0,t0,0xb
9d0057c0:	00097d40 	sll	t7,t1,0x15
9d0057c4:	008f2025 	or	a0,a0,t7
9d0057c8:	00097840 	sll	t7,t1,0x1
9d0057cc:	000f7b02 	srl	t7,t7,0xc
9d0057d0:	00af2825 	or	a1,a1,t7
9d0057d4:	000a7d00 	sll	t7,t2,0x14
9d0057d8:	00af2825 	or	a1,a1,t7

9d0057dc <Dret>:
9d0057dc:	00041025 	or	v0,zero,a0
9d0057e0:	00051825 	or	v1,zero,a1

9d0057e4 <D999>:
9d0057e4:	03e00008 	jr	ra
9d0057e8:	00000000 	nop

9d0057ec <Doveund>:
9d0057ec:	1d400044 	bgtz	t2,9d005900 <Dinf>
9d0057f0:	00000000 	nop
9d0057f4:	240e0001 	li	t6,1
9d0057f8:	01ca7023 	subu	t6,t6,t2

9d0057fc <L33>:
9d0057fc:	2dc10020 	sltiu	at,t6,32
9d005800:	14200007 	bnez	at,9d005820 <L34>
9d005804:	00000000 	nop
9d005808:	21ceffe0 	addi	t6,t6,-32
9d00580c:	0008202b 	sltu	a0,zero,t0
9d005810:	1009000d 	beq	zero,t1,9d005848 <L35>
9d005814:	01244025 	or	t0,t1,a0
9d005818:	1000fff8 	b	9d0057fc <L33>
9d00581c:	34090000 	li	t1,0x0

9d005820 <L34>:
9d005820:	11c00009 	beqz	t6,9d005848 <L35>
9d005824:	00000000 	nop
9d005828:	000e3022 	neg	a2,t6
9d00582c:	00c82004 	sllv	a0,t0,a2
9d005830:	00c93004 	sllv	a2,t1,a2
9d005834:	01c84006 	srlv	t0,t0,t6
9d005838:	01c94806 	srlv	t1,t1,t6
9d00583c:	10800002 	beqz	a0,9d005848 <L35>
9d005840:	00c84025 	or	t0,a2,t0
9d005844:	35080002 	ori	t0,t0,0x2

9d005848 <L35>:
9d005848:	25080400 	addiu	t0,t0,1024
9d00584c:	2d0f0400 	sltiu	t7,t0,1024
9d005850:	012f4821 	addu	t1,t1,t7
9d005854:	1000ffd6 	b	9d0057b0 <Dlab8>
9d005858:	000957c2 	srl	t2,t1,0x1f

9d00585c <DspecA>:
9d00585c:	0100782a 	slt	t7,t0,zero
9d005860:	01084021 	addu	t0,t0,t0
9d005864:	01294821 	addu	t1,t1,t1
9d005868:	15400017 	bnez	t2,9d0058c8 <i33>
9d00586c:	012f4821 	addu	t1,t1,t7
9d005870:	01287825 	or	t7,t1,t0
9d005874:	11e00014 	beqz	t7,9d0058c8 <i33>
9d005878:	00000000 	nop
9d00587c:	15200008 	bnez	t1,9d0058a0 <L36>
9d005880:	00000000 	nop
9d005884:	15000003 	bnez	t0,9d005894 <L37>
9d005888:	00000000 	nop
9d00588c:	1000ff29 	b	9d005534 <Dlab1>
9d005890:	240a0000 	li	t2,0

9d005894 <L37>:
9d005894:	01004825 	move	t1,t0
9d005898:	24080000 	li	t0,0
9d00589c:	254affe0 	addiu	t2,t2,-32

9d0058a0 <L36>:
9d0058a0:	712e7020 	clz	t6,t1
9d0058a4:	11c0ff23 	beqz	t6,9d005534 <Dlab1>
9d0058a8:	00000000 	nop
9d0058ac:	014e5023 	subu	t2,t2,t6
9d0058b0:	000e3022 	neg	a2,t6
9d0058b4:	00c83006 	srlv	a2,t0,a2
9d0058b8:	01c84004 	sllv	t0,t0,t6
9d0058bc:	01c94804 	sllv	t1,t1,t6
9d0058c0:	1000ff1c 	b	9d005534 <Dlab1>
9d0058c4:	01264825 	or	t1,t1,a2

9d0058c8 <i33>:
9d0058c8:	154d0005 	bne	t2,t5,9d0058e0 <i35>
9d0058cc:	00000000 	nop
9d0058d0:	000c7840 	sll	t7,t4,0x1
9d0058d4:	01eb7825 	or	t7,t7,t3
9d0058d8:	11e0002b 	beqz	t7,9d005988 <Dnan>
9d0058dc:	00000000 	nop

9d0058e0 <i35>:
9d0058e0:	240107ff 	li	at,2047
9d0058e4:	11a1000a 	beq	t5,at,9d005910 <DspecB>
9d0058e8:	00000000 	nop
9d0058ec:	1140ffbb 	beqz	t2,9d0057dc <Dret>
9d0058f0:	00000000 	nop
9d0058f4:	01287825 	or	t7,t1,t0
9d0058f8:	15e00023 	bnez	t7,9d005988 <Dnan>
9d0058fc:	00000000 	nop

9d005900 <Dinf>:
9d005900:	3c017ff0 	lui	at,0x7ff0
9d005904:	00a12825 	or	a1,a1,at
9d005908:	1000ffb4 	b	9d0057dc <Dret>
9d00590c:	24040000 	li	a0,0

9d005910 <DspecB>:
9d005910:	0160782a 	slt	t7,t3,zero
9d005914:	016b5821 	addu	t3,t3,t3
9d005918:	018c6021 	addu	t4,t4,t4
9d00591c:	15a00017 	bnez	t5,9d00597c <i36>
9d005920:	018f6021 	addu	t4,t4,t7
9d005924:	018b7825 	or	t7,t4,t3
9d005928:	11e0fff5 	beqz	t7,9d005900 <Dinf>
9d00592c:	00000000 	nop
9d005930:	15800008 	bnez	t4,9d005954 <L39>
9d005934:	00000000 	nop
9d005938:	15600003 	bnez	t3,9d005948 <L40>
9d00593c:	00000000 	nop
9d005940:	1000ff00 	b	9d005544 <Dlab2>
9d005944:	240d0000 	li	t5,0

9d005948 <L40>:
9d005948:	01606025 	move	t4,t3
9d00594c:	240b0000 	li	t3,0
9d005950:	25adffe0 	addiu	t5,t5,-32

9d005954 <L39>:
9d005954:	718e7020 	clz	t6,t4
9d005958:	11c0fefa 	beqz	t6,9d005544 <Dlab2>
9d00595c:	00000000 	nop
9d005960:	01ae6823 	subu	t5,t5,t6
9d005964:	000e3022 	neg	a2,t6
9d005968:	00cb3006 	srlv	a2,t3,a2
9d00596c:	01cb5804 	sllv	t3,t3,t6
9d005970:	01cc6004 	sllv	t4,t4,t6
9d005974:	1000fef3 	b	9d005544 <Dlab2>
9d005978:	01866025 	or	t4,t4,a2

9d00597c <i36>:
9d00597c:	018b7825 	or	t7,t4,t3
9d005980:	11e00002 	beqz	t7,9d00598c <i38>
9d005984:	00000000 	nop

9d005988 <Dnan>:
9d005988:	3c05fff8 	lui	a1,0xfff8

9d00598c <i38>:
9d00598c:	1000ff93 	b	9d0057dc <Dret>
9d005990:	24040000 	li	a0,0
9d005994:	00000000 	nop

Disassembly of section .text:

9d005998 <__divdi3>:
9d005998:	04a00052 	bltz	a1,9d005ae4 <.LBE15+0x38>
9d00599c:	00004821 	move	t1,zero
9d0059a0:	04e20057 	bltzl	a3,9d005b00 <.LBE15+0x54>
9d0059a4:	00063023 	negu	a2,a2

9d0059a8 <.LBB13>:
9d0059a8:	00c04021 	move	t0,a2
9d0059ac:	00805021 	move	t2,a0
9d0059b0:	14e00046 	bnez	a3,9d005acc <.LBE15+0x20>
9d0059b4:	00a01821 	move	v1,a1
9d0059b8:	00a6102b 	sltu	v0,a1,a2
9d0059bc:	1040005d 	beqz	v0,9d005b34 <.LBE15+0x88>
9d0059c0:	70c21020 	clz	v0,a2
9d0059c4:	50400008 	beqzl	v0,9d0059e8 <.LBB15+0x4>
9d0059c8:	00082c02 	srl	a1,t0,0x10
9d0059cc:	00022023 	negu	a0,v0
9d0059d0:	008a2006 	srlv	a0,t2,a0
9d0059d4:	00451804 	sllv	v1,a1,v0
9d0059d8:	00464004 	sllv	t0,a2,v0
9d0059dc:	00831825 	or	v1,a0,v1
9d0059e0:	004a5004 	sllv	t2,t2,v0

9d0059e4 <.LBB15>:
9d0059e4:	00082c02 	srl	a1,t0,0x10
9d0059e8:	0065001b 	divu	zero,v1,a1
9d0059ec:	00a001f4 	teq	a1,zero,0x7
9d0059f0:	00006010 	mfhi	t4
9d0059f4:	00005812 	mflo	t3
9d0059f8:	3107ffff 	andi	a3,t0,0xffff
9d0059fc:	000a2402 	srl	a0,t2,0x10
9d005a00:	00001012 	mflo	v0
9d005a04:	71673002 	mul	a2,t3,a3
9d005a08:	000c6400 	sll	t4,t4,0x10
9d005a0c:	01842025 	or	a0,t4,a0
9d005a10:	0086602b 	sltu	t4,a0,a2
9d005a14:	0065001b 	divu	zero,v1,a1
9d005a18:	00a001f4 	teq	a1,zero,0x7
9d005a1c:	1180000b 	beqz	t4,9d005a4c <.LBB15+0x68>
9d005a20:	00861823 	subu	v1,a0,a2
9d005a24:	00882021 	addu	a0,a0,t0
9d005a28:	0088182b 	sltu	v1,a0,t0
9d005a2c:	14600006 	bnez	v1,9d005a48 <.LBB15+0x64>
9d005a30:	2562ffff 	addiu	v0,t3,-1
9d005a34:	0086182b 	sltu	v1,a0,a2
9d005a38:	10600004 	beqz	v1,9d005a4c <.LBB15+0x68>
9d005a3c:	00861823 	subu	v1,a0,a2
9d005a40:	2562fffe 	addiu	v0,t3,-2
9d005a44:	00882021 	addu	a0,a0,t0
9d005a48:	00861823 	subu	v1,a0,a2
9d005a4c:	314affff 	andi	t2,t2,0xffff
9d005a50:	0065001b 	divu	zero,v1,a1
9d005a54:	00a001f4 	teq	a1,zero,0x7
9d005a58:	00005810 	mfhi	t3
9d005a5c:	00003012 	mflo	a2
9d005a60:	00002012 	mflo	a0
9d005a64:	70c73802 	mul	a3,a2,a3
9d005a68:	000b5c00 	sll	t3,t3,0x10
9d005a6c:	016a5025 	or	t2,t3,t2
9d005a70:	0147582b 	sltu	t3,t2,a3
9d005a74:	0065001b 	divu	zero,v1,a1
9d005a78:	00a001f4 	teq	a1,zero,0x7
9d005a7c:	51600009 	beqzl	t3,9d005aa4 <.LBB15+0xc0>
9d005a80:	00021400 	sll	v0,v0,0x10
9d005a84:	01485021 	addu	t2,t2,t0
9d005a88:	0148402b 	sltu	t0,t2,t0
9d005a8c:	15000004 	bnez	t0,9d005aa0 <.LBB15+0xbc>
9d005a90:	24c4ffff 	addiu	a0,a2,-1
9d005a94:	0147382b 	sltu	a3,t2,a3
9d005a98:	24c6fffe 	addiu	a2,a2,-2
9d005a9c:	00c7200b 	movn	a0,a2,a3
9d005aa0:	00021400 	sll	v0,v0,0x10
9d005aa4:	00821025 	or	v0,a0,v0
9d005aa8:	00001821 	move	v1,zero

9d005aac <.LBE15>:
9d005aac:	11200005 	beqz	t1,9d005ac4 <.LBE15+0x18>
9d005ab0:	00000000 	nop
9d005ab4:	00021023 	negu	v0,v0
9d005ab8:	0002202b 	sltu	a0,zero,v0
9d005abc:	00031823 	negu	v1,v1
9d005ac0:	00641823 	subu	v1,v1,a0
9d005ac4:	03e00008 	jr	ra
9d005ac8:	00000000 	nop
9d005acc:	00a7102b 	sltu	v0,a1,a3
9d005ad0:	10400010 	beqz	v0,9d005b14 <.LBE15+0x68>
9d005ad4:	70e84020 	clz	t0,a3
9d005ad8:	00001821 	move	v1,zero
9d005adc:	0b4016ab 	j	9d005aac <.LBE15>
9d005ae0:	00001021 	move	v0,zero
9d005ae4:	00042023 	negu	a0,a0
9d005ae8:	0004102b 	sltu	v0,zero,a0
9d005aec:	00052823 	negu	a1,a1
9d005af0:	00a22823 	subu	a1,a1,v0
9d005af4:	04e1ffac 	bgez	a3,9d0059a8 <.LBB13>
9d005af8:	2409ffff 	li	t1,-1
9d005afc:	00063023 	negu	a2,a2
9d005b00:	0006102b 	sltu	v0,zero,a2
9d005b04:	00073823 	negu	a3,a3
9d005b08:	00094827 	nor	t1,zero,t1
9d005b0c:	0b40166a 	j	9d0059a8 <.LBB13>
9d005b10:	00e23823 	subu	a3,a3,v0
9d005b14:	1500007e 	bnez	t0,9d005d10 <.LBE16+0xf8>
9d005b18:	24020020 	li	v0,32
9d005b1c:	00e5282b 	sltu	a1,a3,a1
9d005b20:	14a000c6 	bnez	a1,9d005e3c <.LBE23+0x34>
9d005b24:	00001821 	move	v1,zero
9d005b28:	0086102b 	sltu	v0,a0,a2
9d005b2c:	0b4016ab 	j	9d005aac <.LBE15>
9d005b30:	38420001 	xori	v0,v0,0x1
9d005b34:	14c00006 	bnez	a2,9d005b50 <.LBE15+0xa4>
9d005b38:	71021020 	clz	v0,t0
9d005b3c:	24080001 	li	t0,1
9d005b40:	0107001b 	divu	zero,t0,a3
9d005b44:	00e001f4 	teq	a3,zero,0x7
9d005b48:	00004012 	mflo	t0
9d005b4c:	71021020 	clz	v0,t0
9d005b50:	54400033 	bnezl	v0,9d005c20 <.LBE16+0x8>
9d005b54:	00484004 	sllv	t0,t0,v0
9d005b58:	00a82023 	subu	a0,a1,t0
9d005b5c:	00083c02 	srl	a3,t0,0x10
9d005b60:	310cffff 	andi	t4,t0,0xffff
9d005b64:	24030001 	li	v1,1

9d005b68 <.LBB16>:
9d005b68:	000a3402 	srl	a2,t2,0x10
9d005b6c:	0087001b 	divu	zero,a0,a3
9d005b70:	00e001f4 	teq	a3,zero,0x7
9d005b74:	00007010 	mfhi	t6
9d005b78:	00006812 	mflo	t5
9d005b7c:	00001012 	mflo	v0
9d005b80:	71ac5802 	mul	t3,t5,t4
9d005b84:	000e7400 	sll	t6,t6,0x10
9d005b88:	01c63025 	or	a2,t6,a2
9d005b8c:	00cb702b 	sltu	t6,a2,t3
9d005b90:	0087001b 	divu	zero,a0,a3
9d005b94:	00e001f4 	teq	a3,zero,0x7
9d005b98:	11c00009 	beqz	t6,9d005bc0 <.LBB16+0x58>
9d005b9c:	00cb2823 	subu	a1,a2,t3
9d005ba0:	00c83021 	addu	a2,a2,t0
9d005ba4:	00c8202b 	sltu	a0,a2,t0
9d005ba8:	14800004 	bnez	a0,9d005bbc <.LBB16+0x54>
9d005bac:	25a2ffff 	addiu	v0,t5,-1
9d005bb0:	00cb202b 	sltu	a0,a2,t3
9d005bb4:	548000a3 	bnezl	a0,9d005e44 <.LBE23+0x3c>
9d005bb8:	25a2fffe 	addiu	v0,t5,-2
9d005bbc:	00cb2823 	subu	a1,a2,t3
9d005bc0:	314affff 	andi	t2,t2,0xffff
9d005bc4:	00a7001b 	divu	zero,a1,a3
9d005bc8:	00e001f4 	teq	a3,zero,0x7
9d005bcc:	00005810 	mfhi	t3
9d005bd0:	00003012 	mflo	a2
9d005bd4:	00002012 	mflo	a0
9d005bd8:	70cc6002 	mul	t4,a2,t4
9d005bdc:	000b5c00 	sll	t3,t3,0x10
9d005be0:	016a5025 	or	t2,t3,t2
9d005be4:	014c582b 	sltu	t3,t2,t4
9d005be8:	00a7001b 	divu	zero,a1,a3
9d005bec:	00e001f4 	teq	a3,zero,0x7
9d005bf0:	51600009 	beqzl	t3,9d005c18 <.LBE16>
9d005bf4:	00021400 	sll	v0,v0,0x10
9d005bf8:	01485021 	addu	t2,t2,t0
9d005bfc:	0148402b 	sltu	t0,t2,t0
9d005c00:	15000004 	bnez	t0,9d005c14 <.LBB16+0xac>
9d005c04:	24c4ffff 	addiu	a0,a2,-1
9d005c08:	014c502b 	sltu	t2,t2,t4
9d005c0c:	24c6fffe 	addiu	a2,a2,-2
9d005c10:	00ca200b 	movn	a0,a2,t2
9d005c14:	00021400 	sll	v0,v0,0x10

9d005c18 <.LBE16>:
9d005c18:	0b4016ab 	j	9d005aac <.LBE15>
9d005c1c:	00821025 	or	v0,a0,v0
9d005c20:	24030020 	li	v1,32
9d005c24:	00621823 	subu	v1,v1,v0
9d005c28:	00653006 	srlv	a2,a1,v1
9d005c2c:	00083c02 	srl	a3,t0,0x10
9d005c30:	00c7001b 	divu	zero,a2,a3
9d005c34:	00e001f4 	teq	a3,zero,0x7
9d005c38:	00007810 	mfhi	t7
9d005c3c:	00006812 	mflo	t5
9d005c40:	310cffff 	andi	t4,t0,0xffff
9d005c44:	00452804 	sllv	a1,a1,v0
9d005c48:	00641806 	srlv	v1,a0,v1
9d005c4c:	00652825 	or	a1,v1,a1
9d005c50:	00057402 	srl	t6,a1,0x10
9d005c54:	00445004 	sllv	t2,a0,v0
9d005c58:	00001812 	mflo	v1
9d005c5c:	71ac5802 	mul	t3,t5,t4
9d005c60:	000f1400 	sll	v0,t7,0x10
9d005c64:	01c21025 	or	v0,t6,v0
9d005c68:	004b202b 	sltu	a0,v0,t3
9d005c6c:	00c7001b 	divu	zero,a2,a3
9d005c70:	00e001f4 	teq	a3,zero,0x7
9d005c74:	5080000b 	beqzl	a0,9d005ca4 <.LBE16+0x8c>
9d005c78:	004b1023 	subu	v0,v0,t3
9d005c7c:	00481021 	addu	v0,v0,t0
9d005c80:	0048202b 	sltu	a0,v0,t0
9d005c84:	14800006 	bnez	a0,9d005ca0 <.LBE16+0x88>
9d005c88:	25a3ffff 	addiu	v1,t5,-1
9d005c8c:	004b202b 	sltu	a0,v0,t3
9d005c90:	50800004 	beqzl	a0,9d005ca4 <.LBE16+0x8c>
9d005c94:	004b1023 	subu	v0,v0,t3
9d005c98:	25a3fffe 	addiu	v1,t5,-2
9d005c9c:	00481021 	addu	v0,v0,t0
9d005ca0:	004b1023 	subu	v0,v0,t3
9d005ca4:	30adffff 	andi	t5,a1,0xffff
9d005ca8:	0047001b 	divu	zero,v0,a3
9d005cac:	00e001f4 	teq	a3,zero,0x7
9d005cb0:	00002010 	mfhi	a0
9d005cb4:	00005812 	mflo	t3
9d005cb8:	00003012 	mflo	a2
9d005cbc:	716c2802 	mul	a1,t3,t4
9d005cc0:	00042400 	sll	a0,a0,0x10
9d005cc4:	008d2025 	or	a0,a0,t5
9d005cc8:	0085682b 	sltu	t5,a0,a1
9d005ccc:	0047001b 	divu	zero,v0,a3
9d005cd0:	00e001f4 	teq	a3,zero,0x7
9d005cd4:	51a0000b 	beqzl	t5,9d005d04 <.LBE16+0xec>
9d005cd8:	00031c00 	sll	v1,v1,0x10
9d005cdc:	00882021 	addu	a0,a0,t0
9d005ce0:	0088102b 	sltu	v0,a0,t0
9d005ce4:	14400006 	bnez	v0,9d005d00 <.LBE16+0xe8>
9d005ce8:	2566ffff 	addiu	a2,t3,-1
9d005cec:	0085102b 	sltu	v0,a0,a1
9d005cf0:	50400004 	beqzl	v0,9d005d04 <.LBE16+0xec>
9d005cf4:	00031c00 	sll	v1,v1,0x10
9d005cf8:	2566fffe 	addiu	a2,t3,-2
9d005cfc:	00882021 	addu	a0,a0,t0
9d005d00:	00031c00 	sll	v1,v1,0x10
9d005d04:	00852023 	subu	a0,a0,a1
9d005d08:	0b4016da 	j	9d005b68 <.LBB16>
9d005d0c:	00c31825 	or	v1,a2,v1
9d005d10:	00481023 	subu	v0,v0,t0
9d005d14:	01073804 	sllv	a3,a3,t0
9d005d18:	00461806 	srlv	v1,a2,v0
9d005d1c:	00673825 	or	a3,v1,a3
9d005d20:	00455806 	srlv	t3,a1,v0
9d005d24:	00071c02 	srl	v1,a3,0x10
9d005d28:	0163001b 	divu	zero,t3,v1
9d005d2c:	006001f4 	teq	v1,zero,0x7
9d005d30:	00005010 	mfhi	t2
9d005d34:	00007012 	mflo	t6
9d005d38:	30ecffff 	andi	t4,a3,0xffff
9d005d3c:	01052804 	sllv	a1,a1,t0
9d005d40:	00441006 	srlv	v0,a0,v0
9d005d44:	00452825 	or	a1,v0,a1
9d005d48:	00057c02 	srl	t7,a1,0x10
9d005d4c:	00001012 	mflo	v0
9d005d50:	71cc6802 	mul	t5,t6,t4
9d005d54:	000a5400 	sll	t2,t2,0x10
9d005d58:	014f5025 	or	t2,t2,t7
9d005d5c:	014d782b 	sltu	t7,t2,t5
9d005d60:	0163001b 	divu	zero,t3,v1
9d005d64:	006001f4 	teq	v1,zero,0x7
9d005d68:	11e0000a 	beqz	t7,9d005d94 <.LBE16+0x17c>
9d005d6c:	01063004 	sllv	a2,a2,t0
9d005d70:	01475021 	addu	t2,t2,a3
9d005d74:	0147582b 	sltu	t3,t2,a3
9d005d78:	15600006 	bnez	t3,9d005d94 <.LBE16+0x17c>
9d005d7c:	25c2ffff 	addiu	v0,t6,-1
9d005d80:	014d582b 	sltu	t3,t2,t5
9d005d84:	51600004 	beqzl	t3,9d005d98 <.LBE16+0x180>
9d005d88:	014d5023 	subu	t2,t2,t5
9d005d8c:	25c2fffe 	addiu	v0,t6,-2
9d005d90:	01475021 	addu	t2,t2,a3
9d005d94:	014d5023 	subu	t2,t2,t5
9d005d98:	30a5ffff 	andi	a1,a1,0xffff
9d005d9c:	0143001b 	divu	zero,t2,v1
9d005da0:	006001f4 	teq	v1,zero,0x7
9d005da4:	00007010 	mfhi	t6
9d005da8:	00006812 	mflo	t5
9d005dac:	00005812 	mflo	t3
9d005db0:	71ac6002 	mul	t4,t5,t4
9d005db4:	000e7400 	sll	t6,t6,0x10
9d005db8:	01c52825 	or	a1,t6,a1
9d005dbc:	00ac702b 	sltu	t6,a1,t4
9d005dc0:	0143001b 	divu	zero,t2,v1
9d005dc4:	006001f4 	teq	v1,zero,0x7
9d005dc8:	51c0000b 	beqzl	t6,9d005df8 <.LBE16+0x1e0>
9d005dcc:	00021400 	sll	v0,v0,0x10
9d005dd0:	00a72821 	addu	a1,a1,a3
9d005dd4:	00a7182b 	sltu	v1,a1,a3
9d005dd8:	14600006 	bnez	v1,9d005df4 <.LBE16+0x1dc>
9d005ddc:	25abffff 	addiu	t3,t5,-1
9d005de0:	00ac182b 	sltu	v1,a1,t4
9d005de4:	50600004 	beqzl	v1,9d005df8 <.LBE16+0x1e0>
9d005de8:	00021400 	sll	v0,v0,0x10
9d005dec:	25abfffe 	addiu	t3,t5,-2
9d005df0:	00a72821 	addu	a1,a1,a3
9d005df4:	00021400 	sll	v0,v0,0x10
9d005df8:	01621025 	or	v0,t3,v0
9d005dfc:	00ac2823 	subu	a1,a1,t4

9d005e00 <.LBB23>:
9d005e00:	00460019 	multu	v0,a2
9d005e04:	00003810 	mfhi	a3

9d005e08 <.LBE23>:
9d005e08:	00a7182b 	sltu	v1,a1,a3
9d005e0c:	14600008 	bnez	v1,9d005e30 <.LBE23+0x28>
9d005e10:	00003012 	mflo	a2
9d005e14:	50a70003 	beql	a1,a3,9d005e24 <.LBE23+0x1c>
9d005e18:	01042004 	sllv	a0,a0,t0
9d005e1c:	0b4016ab 	j	9d005aac <.LBE15>
9d005e20:	00001821 	move	v1,zero
9d005e24:	0086302b 	sltu	a2,a0,a2
9d005e28:	50c0ff20 	beqzl	a2,9d005aac <.LBE15>
9d005e2c:	00001821 	move	v1,zero
9d005e30:	2442ffff 	addiu	v0,v0,-1
9d005e34:	0b4016ab 	j	9d005aac <.LBE15>
9d005e38:	00001821 	move	v1,zero
9d005e3c:	0b4016ab 	j	9d005aac <.LBE15>
9d005e40:	24020001 	li	v0,1
9d005e44:	0b4016ef 	j	9d005bbc <.LBB16+0x54>
9d005e48:	00c83021 	addu	a2,a2,t0

9d005e4c <__umoddi3>:
9d005e4c:	00c04021 	move	t0,a2
9d005e50:	00804821 	move	t1,a0
9d005e54:	14e0003b 	bnez	a3,9d005f44 <.LBE15+0xc>
9d005e58:	00a01821 	move	v1,a1
9d005e5c:	00a6102b 	sltu	v0,a1,a2
9d005e60:	10400048 	beqz	v0,9d005f84 <.LBE16+0x8>
9d005e64:	70c21020 	clz	v0,a2
9d005e68:	50400008 	beqzl	v0,9d005e8c <.LBB15+0x4>
9d005e6c:	00083402 	srl	a2,t0,0x10
9d005e70:	00021823 	negu	v1,v0
9d005e74:	00452804 	sllv	a1,a1,v0
9d005e78:	00641806 	srlv	v1,a0,v1
9d005e7c:	00464004 	sllv	t0,a2,v0
9d005e80:	00651825 	or	v1,v1,a1
9d005e84:	00444804 	sllv	t1,a0,v0

9d005e88 <.LBB15>:
9d005e88:	00083402 	srl	a2,t0,0x10
9d005e8c:	0066001b 	divu	zero,v1,a2
9d005e90:	00c001f4 	teq	a2,zero,0x7
9d005e94:	00002010 	mfhi	a0
9d005e98:	00005812 	mflo	t3
9d005e9c:	310cffff 	andi	t4,t0,0xffff
9d005ea0:	00095402 	srl	t2,t1,0x10
9d005ea4:	716c5802 	mul	t3,t3,t4
9d005ea8:	00042400 	sll	a0,a0,0x10
9d005eac:	008a5025 	or	t2,a0,t2
9d005eb0:	014b682b 	sltu	t5,t2,t3
9d005eb4:	0066001b 	divu	zero,v1,a2
9d005eb8:	00c001f4 	teq	a2,zero,0x7
9d005ebc:	51a00009 	beqzl	t5,9d005ee4 <.LBB15+0x5c>
9d005ec0:	014b5023 	subu	t2,t2,t3
9d005ec4:	01485021 	addu	t2,t2,t0
9d005ec8:	0148182b 	sltu	v1,t2,t0
9d005ecc:	54600005 	bnezl	v1,9d005ee4 <.LBB15+0x5c>
9d005ed0:	014b5023 	subu	t2,t2,t3
9d005ed4:	014b202b 	sltu	a0,t2,t3
9d005ed8:	01481821 	addu	v1,t2,t0
9d005edc:	0064500b 	movn	t2,v1,a0
9d005ee0:	014b5023 	subu	t2,t2,t3
9d005ee4:	3123ffff 	andi	v1,t1,0xffff
9d005ee8:	0146001b 	divu	zero,t2,a2
9d005eec:	00c001f4 	teq	a2,zero,0x7
9d005ef0:	00004810 	mfhi	t1
9d005ef4:	00002012 	mflo	a0
9d005ef8:	708c2002 	mul	a0,a0,t4
9d005efc:	00094c00 	sll	t1,t1,0x10
9d005f00:	01234825 	or	t1,t1,v1
9d005f04:	0124182b 	sltu	v1,t1,a0
9d005f08:	0146001b 	divu	zero,t2,a2
9d005f0c:	00c001f4 	teq	a2,zero,0x7
9d005f10:	50600009 	beqzl	v1,9d005f38 <.LBE15>
9d005f14:	01244823 	subu	t1,t1,a0
9d005f18:	01284821 	addu	t1,t1,t0
9d005f1c:	0128182b 	sltu	v1,t1,t0
9d005f20:	54600005 	bnezl	v1,9d005f38 <.LBE15>
9d005f24:	01244823 	subu	t1,t1,a0
9d005f28:	0124182b 	sltu	v1,t1,a0
9d005f2c:	01284021 	addu	t0,t1,t0
9d005f30:	0103480b 	movn	t1,t0,v1
9d005f34:	01244823 	subu	t1,t1,a0

9d005f38 <.LBE15>:
9d005f38:	00491006 	srlv	v0,t1,v0
9d005f3c:	03e00008 	jr	ra
9d005f40:	00001821 	move	v1,zero
9d005f44:	00a7102b 	sltu	v0,a1,a3
9d005f48:	14400047 	bnez	v0,9d006068 <.LBE17+0xc>
9d005f4c:	70ea5020 	clz	t2,a3
9d005f50:	15400048 	bnez	t2,9d006074 <.LBE17+0x18>
9d005f54:	240b0020 	li	t3,32
9d005f58:	00e5102b 	sltu	v0,a3,a1
9d005f5c:	14400005 	bnez	v0,9d005f74 <.LBB16+0x4>
9d005f60:	00861023 	subu	v0,a0,a2
9d005f64:	0086402b 	sltu	t0,a0,a2
9d005f68:	15000089 	bnez	t0,9d006190 <.LBE24+0x10>
9d005f6c:	00801021 	move	v0,a0

9d005f70 <.LBB16>:
9d005f70:	00861023 	subu	v0,a0,a2
9d005f74:	00a72823 	subu	a1,a1,a3
9d005f78:	0082202b 	sltu	a0,a0,v0

9d005f7c <.LBE16>:
9d005f7c:	03e00008 	jr	ra
9d005f80:	00a41823 	subu	v1,a1,a0
9d005f84:	14c00006 	bnez	a2,9d005fa0 <.LBE16+0x24>
9d005f88:	71021020 	clz	v0,t0
9d005f8c:	24020001 	li	v0,1
9d005f90:	0046001b 	divu	zero,v0,a2
9d005f94:	00c001f4 	teq	a2,zero,0x7
9d005f98:	00004012 	mflo	t0
9d005f9c:	71021020 	clz	v0,t0
9d005fa0:	5440007d 	bnezl	v0,9d006198 <.LBE24+0x18>
9d005fa4:	00484004 	sllv	t0,t0,v0
9d005fa8:	00a82823 	subu	a1,a1,t0
9d005fac:	00081c02 	srl	v1,t0,0x10
9d005fb0:	3107ffff 	andi	a3,t0,0xffff

9d005fb4 <.LBB17>:
9d005fb4:	00092402 	srl	a0,t1,0x10
9d005fb8:	00a3001b 	divu	zero,a1,v1
9d005fbc:	006001f4 	teq	v1,zero,0x7
9d005fc0:	00005010 	mfhi	t2
9d005fc4:	00003012 	mflo	a2
9d005fc8:	70c73002 	mul	a2,a2,a3
9d005fcc:	000a5400 	sll	t2,t2,0x10
9d005fd0:	01442025 	or	a0,t2,a0
9d005fd4:	0086502b 	sltu	t2,a0,a2
9d005fd8:	00a3001b 	divu	zero,a1,v1
9d005fdc:	006001f4 	teq	v1,zero,0x7
9d005fe0:	51400009 	beqzl	t2,9d006008 <.LBB17+0x54>
9d005fe4:	00862023 	subu	a0,a0,a2
9d005fe8:	00882021 	addu	a0,a0,t0
9d005fec:	0088282b 	sltu	a1,a0,t0
9d005ff0:	54a00005 	bnezl	a1,9d006008 <.LBB17+0x54>
9d005ff4:	00862023 	subu	a0,a0,a2
9d005ff8:	0086502b 	sltu	t2,a0,a2
9d005ffc:	00882821 	addu	a1,a0,t0
9d006000:	00aa200b 	movn	a0,a1,t2
9d006004:	00862023 	subu	a0,a0,a2
9d006008:	3126ffff 	andi	a2,t1,0xffff
9d00600c:	0083001b 	divu	zero,a0,v1
9d006010:	006001f4 	teq	v1,zero,0x7
9d006014:	00004810 	mfhi	t1
9d006018:	00002812 	mflo	a1
9d00601c:	70a72802 	mul	a1,a1,a3
9d006020:	00094c00 	sll	t1,t1,0x10
9d006024:	01264825 	or	t1,t1,a2
9d006028:	0125302b 	sltu	a2,t1,a1
9d00602c:	0083001b 	divu	zero,a0,v1
9d006030:	006001f4 	teq	v1,zero,0x7
9d006034:	50c00009 	beqzl	a2,9d00605c <.LBE17>
9d006038:	01254823 	subu	t1,t1,a1
9d00603c:	01284821 	addu	t1,t1,t0
9d006040:	0128182b 	sltu	v1,t1,t0
9d006044:	54600005 	bnezl	v1,9d00605c <.LBE17>
9d006048:	01254823 	subu	t1,t1,a1
9d00604c:	0125182b 	sltu	v1,t1,a1
9d006050:	01284021 	addu	t0,t1,t0
9d006054:	0103480b 	movn	t1,t0,v1
9d006058:	01254823 	subu	t1,t1,a1

9d00605c <.LBE17>:
9d00605c:	00491006 	srlv	v0,t1,v0
9d006060:	03e00008 	jr	ra
9d006064:	00001821 	move	v1,zero
9d006068:	00801021 	move	v0,a0
9d00606c:	03e00008 	jr	ra
9d006070:	00a01821 	move	v1,a1
9d006074:	016a5823 	subu	t3,t3,t2
9d006078:	01473804 	sllv	a3,a3,t2
9d00607c:	01661006 	srlv	v0,a2,t3
9d006080:	00473825 	or	a3,v0,a3
9d006084:	01656806 	srlv	t5,a1,t3
9d006088:	00074c02 	srl	t1,a3,0x10
9d00608c:	01a9001b 	divu	zero,t5,t1
9d006090:	012001f4 	teq	t1,zero,0x7
9d006094:	00006010 	mfhi	t4
9d006098:	00001812 	mflo	v1
9d00609c:	30eeffff 	andi	t6,a3,0xffff
9d0060a0:	01452804 	sllv	a1,a1,t2
9d0060a4:	01641006 	srlv	v0,a0,t3
9d0060a8:	00451025 	or	v0,v0,a1
9d0060ac:	00022c02 	srl	a1,v0,0x10
9d0060b0:	01463004 	sllv	a2,a2,t2
9d0060b4:	00004012 	mflo	t0
9d0060b8:	706e7802 	mul	t7,v1,t6
9d0060bc:	000c6400 	sll	t4,t4,0x10
9d0060c0:	01856025 	or	t4,t4,a1
9d0060c4:	018f282b 	sltu	a1,t4,t7
9d0060c8:	01a9001b 	divu	zero,t5,t1
9d0060cc:	012001f4 	teq	t1,zero,0x7
9d0060d0:	10a0000a 	beqz	a1,9d0060fc <.LBE17+0xa0>
9d0060d4:	01442004 	sllv	a0,a0,t2
9d0060d8:	01876021 	addu	t4,t4,a3
9d0060dc:	0187282b 	sltu	a1,t4,a3
9d0060e0:	14a00006 	bnez	a1,9d0060fc <.LBE17+0xa0>
9d0060e4:	2468ffff 	addiu	t0,v1,-1
9d0060e8:	018f282b 	sltu	a1,t4,t7
9d0060ec:	50a00004 	beqzl	a1,9d006100 <.LBE17+0xa4>
9d0060f0:	018f6023 	subu	t4,t4,t7
9d0060f4:	2468fffe 	addiu	t0,v1,-2
9d0060f8:	01876021 	addu	t4,t4,a3
9d0060fc:	018f6023 	subu	t4,t4,t7
9d006100:	3042ffff 	andi	v0,v0,0xffff
9d006104:	0189001b 	divu	zero,t4,t1
9d006108:	012001f4 	teq	t1,zero,0x7
9d00610c:	00002810 	mfhi	a1
9d006110:	00001812 	mflo	v1
9d006114:	00006812 	mflo	t5
9d006118:	706e7002 	mul	t6,v1,t6
9d00611c:	00052c00 	sll	a1,a1,0x10
9d006120:	00a21025 	or	v0,a1,v0
9d006124:	004e282b 	sltu	a1,v0,t6
9d006128:	0189001b 	divu	zero,t4,t1
9d00612c:	012001f4 	teq	t1,zero,0x7
9d006130:	50a00006 	beqzl	a1,9d00614c <.LBE17+0xf0>
9d006134:	00084400 	sll	t0,t0,0x10
9d006138:	00471021 	addu	v0,v0,a3
9d00613c:	0047282b 	sltu	a1,v0,a3
9d006140:	10a0004c 	beqz	a1,9d006274 <.LBE25>
9d006144:	246dffff 	addiu	t5,v1,-1
9d006148:	00084400 	sll	t0,t0,0x10
9d00614c:	01a84025 	or	t0,t5,t0
9d006150:	004e1023 	subu	v0,v0,t6
9d006154:	01060019 	multu	t0,a2
9d006158:	00004810 	mfhi	t1
9d00615c:	0049182b 	sltu	v1,v0,t1
9d006160:	1460003e 	bnez	v1,9d00625c <.LBB25>
9d006164:	00004012 	mflo	t0
9d006168:	1049004b 	beq	v0,t1,9d006298 <.LBE25+0x24>
9d00616c:	00491823 	subu	v1,v0,t1
9d006170:	00003012 	mflo	a2

9d006174 <.LBB24>:
9d006174:	00863023 	subu	a2,a0,a2
9d006178:	0086202b 	sltu	a0,a0,a2
9d00617c:	00641823 	subu	v1,v1,a0

9d006180 <.LBE24>:
9d006180:	01631004 	sllv	v0,v1,t3
9d006184:	01463006 	srlv	a2,a2,t2
9d006188:	00461025 	or	v0,v0,a2
9d00618c:	01431806 	srlv	v1,v1,t2
9d006190:	03e00008 	jr	ra
9d006194:	00000000 	nop
9d006198:	24090020 	li	t1,32
9d00619c:	01224823 	subu	t1,t1,v0
9d0061a0:	01255006 	srlv	t2,a1,t1
9d0061a4:	00081c02 	srl	v1,t0,0x10
9d0061a8:	0143001b 	divu	zero,t2,v1
9d0061ac:	006001f4 	teq	v1,zero,0x7
9d0061b0:	00003010 	mfhi	a2
9d0061b4:	00005812 	mflo	t3
9d0061b8:	3107ffff 	andi	a3,t0,0xffff
9d0061bc:	00452804 	sllv	a1,a1,v0
9d0061c0:	01244806 	srlv	t1,a0,t1
9d0061c4:	01252825 	or	a1,t1,a1
9d0061c8:	00056402 	srl	t4,a1,0x10
9d0061cc:	00444804 	sllv	t1,a0,v0
9d0061d0:	71675802 	mul	t3,t3,a3
9d0061d4:	00063400 	sll	a2,a2,0x10
9d0061d8:	01863025 	or	a2,t4,a2
9d0061dc:	00cb202b 	sltu	a0,a2,t3
9d0061e0:	0143001b 	divu	zero,t2,v1
9d0061e4:	006001f4 	teq	v1,zero,0x7
9d0061e8:	50800006 	beqzl	a0,9d006204 <.LBE24+0x84>
9d0061ec:	00cb3023 	subu	a2,a2,t3
9d0061f0:	00c83021 	addu	a2,a2,t0
9d0061f4:	00c8202b 	sltu	a0,a2,t0
9d0061f8:	10800024 	beqz	a0,9d00628c <.LBE25+0x18>
9d0061fc:	00cb502b 	sltu	t2,a2,t3
9d006200:	00cb3023 	subu	a2,a2,t3
9d006204:	30aaffff 	andi	t2,a1,0xffff
9d006208:	00c3001b 	divu	zero,a2,v1
9d00620c:	006001f4 	teq	v1,zero,0x7
9d006210:	00002010 	mfhi	a0
9d006214:	00002812 	mflo	a1
9d006218:	70a72802 	mul	a1,a1,a3
9d00621c:	00042400 	sll	a0,a0,0x10
9d006220:	008a2025 	or	a0,a0,t2
9d006224:	0085502b 	sltu	t2,a0,a1
9d006228:	00c3001b 	divu	zero,a2,v1
9d00622c:	006001f4 	teq	v1,zero,0x7
9d006230:	5140ff60 	beqzl	t2,9d005fb4 <.LBB17>
9d006234:	00852823 	subu	a1,a0,a1
9d006238:	00882021 	addu	a0,a0,t0
9d00623c:	0088302b 	sltu	a2,a0,t0
9d006240:	54c0ff5c 	bnezl	a2,9d005fb4 <.LBB17>
9d006244:	00852823 	subu	a1,a0,a1
9d006248:	0085502b 	sltu	t2,a0,a1
9d00624c:	00883021 	addu	a2,a0,t0
9d006250:	00ca200b 	movn	a0,a2,t2
9d006254:	0b4017ed 	j	9d005fb4 <.LBB17>
9d006258:	00852823 	subu	a1,a0,a1

9d00625c <.LBB25>:
9d00625c:	01063023 	subu	a2,t0,a2
9d006260:	01271823 	subu	v1,t1,a3
9d006264:	0106402b 	sltu	t0,t0,a2
9d006268:	00681823 	subu	v1,v1,t0
9d00626c:	0b40185d 	j	9d006174 <.LBB24>
9d006270:	00431823 	subu	v1,v0,v1

9d006274 <.LBE25>:
9d006274:	004e282b 	sltu	a1,v0,t6
9d006278:	50a0ffb4 	beqzl	a1,9d00614c <.LBE17+0xf0>
9d00627c:	00084400 	sll	t0,t0,0x10
9d006280:	246dfffe 	addiu	t5,v1,-2
9d006284:	0b401852 	j	9d006148 <.LBE17+0xec>
9d006288:	00471021 	addu	v0,v0,a3
9d00628c:	00c82021 	addu	a0,a2,t0
9d006290:	0b401880 	j	9d006200 <.LBE24+0x80>
9d006294:	008a300b 	movn	a2,a0,t2
9d006298:	0088182b 	sltu	v1,a0,t0
9d00629c:	5460fff0 	bnezl	v1,9d006260 <.LBB25+0x4>
9d0062a0:	01063023 	subu	a2,t0,a2
9d0062a4:	00003012 	mflo	a2
9d0062a8:	0b40185d 	j	9d006174 <.LBB24>
9d0062ac:	00001821 	move	v1,zero

Disassembly of section .text:

9d0062b0 <__udivdi3>:
9d0062b0:	00c04021 	move	t0,a2
9d0062b4:	00801021 	move	v0,a0
9d0062b8:	14e0003f 	bnez	a3,9d0063b8 <.LBE15+0x8>
9d0062bc:	00a04821 	move	t1,a1
9d0062c0:	00a6182b 	sltu	v1,a1,a2
9d0062c4:	10600047 	beqz	v1,9d0063e4 <.LBE15+0x34>
9d0062c8:	70c31820 	clz	v1,a2
9d0062cc:	50600008 	beqzl	v1,9d0062f0 <.LBB15+0x4>
9d0062d0:	00081c02 	srl	v1,t0,0x10
9d0062d4:	00034823 	negu	t1,v1
9d0062d8:	00652804 	sllv	a1,a1,v1
9d0062dc:	01244806 	srlv	t1,a0,t1
9d0062e0:	00664004 	sllv	t0,a2,v1
9d0062e4:	01254825 	or	t1,t1,a1
9d0062e8:	00641004 	sllv	v0,a0,v1

9d0062ec <.LBB15>:
9d0062ec:	00081c02 	srl	v1,t0,0x10
9d0062f0:	0123001b 	divu	zero,t1,v1
9d0062f4:	006001f4 	teq	v1,zero,0x7
9d0062f8:	00006010 	mfhi	t4
9d0062fc:	00005812 	mflo	t3
9d006300:	310affff 	andi	t2,t0,0xffff
9d006304:	00022402 	srl	a0,v0,0x10
9d006308:	00003012 	mflo	a2
9d00630c:	716a3802 	mul	a3,t3,t2
9d006310:	000c6400 	sll	t4,t4,0x10
9d006314:	01842025 	or	a0,t4,a0
9d006318:	0087602b 	sltu	t4,a0,a3
9d00631c:	0123001b 	divu	zero,t1,v1
9d006320:	006001f4 	teq	v1,zero,0x7
9d006324:	1180000b 	beqz	t4,9d006354 <.LBB15+0x68>
9d006328:	00872823 	subu	a1,a0,a3
9d00632c:	00882021 	addu	a0,a0,t0
9d006330:	0088282b 	sltu	a1,a0,t0
9d006334:	14a00006 	bnez	a1,9d006350 <.LBB15+0x64>
9d006338:	2566ffff 	addiu	a2,t3,-1
9d00633c:	0087282b 	sltu	a1,a0,a3
9d006340:	10a00004 	beqz	a1,9d006354 <.LBB15+0x68>
9d006344:	00872823 	subu	a1,a0,a3
9d006348:	2566fffe 	addiu	a2,t3,-2
9d00634c:	00882021 	addu	a0,a0,t0
9d006350:	00872823 	subu	a1,a0,a3
9d006354:	3042ffff 	andi	v0,v0,0xffff
9d006358:	00a3001b 	divu	zero,a1,v1
9d00635c:	006001f4 	teq	v1,zero,0x7
9d006360:	00004810 	mfhi	t1
9d006364:	00003812 	mflo	a3
9d006368:	00002012 	mflo	a0
9d00636c:	70ea5002 	mul	t2,a3,t2
9d006370:	00094c00 	sll	t1,t1,0x10
9d006374:	01221025 	or	v0,t1,v0
9d006378:	004a482b 	sltu	t1,v0,t2
9d00637c:	00a3001b 	divu	zero,a1,v1
9d006380:	006001f4 	teq	v1,zero,0x7
9d006384:	51200009 	beqzl	t1,9d0063ac <.LBB15+0xc0>
9d006388:	00061400 	sll	v0,a2,0x10
9d00638c:	00481021 	addu	v0,v0,t0
9d006390:	0048402b 	sltu	t0,v0,t0
9d006394:	15000004 	bnez	t0,9d0063a8 <.LBB15+0xbc>
9d006398:	24e4ffff 	addiu	a0,a3,-1
9d00639c:	004a502b 	sltu	t2,v0,t2
9d0063a0:	24e7fffe 	addiu	a3,a3,-2
9d0063a4:	00ea200b 	movn	a0,a3,t2
9d0063a8:	00061400 	sll	v0,a2,0x10
9d0063ac:	00821025 	or	v0,a0,v0

9d0063b0 <.LBE15>:
9d0063b0:	03e00008 	jr	ra
9d0063b4:	00001821 	move	v1,zero
9d0063b8:	00a7102b 	sltu	v0,a1,a3
9d0063bc:	14400044 	bnez	v0,9d0064d0 <.LBE16+0x8>
9d0063c0:	70e84020 	clz	t0,a3
9d0063c4:	55000045 	bnezl	t0,9d0064dc <.LBE16+0x14>
9d0063c8:	24020020 	li	v0,32
9d0063cc:	00e5282b 	sltu	a1,a3,a1
9d0063d0:	14a000c8 	bnez	a1,9d0066f4 <.LBE20+0x120>
9d0063d4:	0086302b 	sltu	a2,a0,a2
9d0063d8:	38c20001 	xori	v0,a2,0x1
9d0063dc:	03e00008 	jr	ra
9d0063e0:	00001821 	move	v1,zero
9d0063e4:	14c00006 	bnez	a2,9d006400 <.LBE15+0x50>
9d0063e8:	71031820 	clz	v1,t0
9d0063ec:	24030001 	li	v1,1
9d0063f0:	0066001b 	divu	zero,v1,a2
9d0063f4:	00c001f4 	teq	a2,zero,0x7
9d0063f8:	00004012 	mflo	t0
9d0063fc:	71031820 	clz	v1,t0
9d006400:	5460007b 	bnezl	v1,9d0065f0 <.LBE20+0x1c>
9d006404:	00684004 	sllv	t0,t0,v1
9d006408:	00a82023 	subu	a0,a1,t0
9d00640c:	00083c02 	srl	a3,t0,0x10
9d006410:	310bffff 	andi	t3,t0,0xffff
9d006414:	24030001 	li	v1,1

9d006418 <.LBB16>:
9d006418:	00023402 	srl	a2,v0,0x10
9d00641c:	0087001b 	divu	zero,a0,a3
9d006420:	00e001f4 	teq	a3,zero,0x7
9d006424:	00006810 	mfhi	t5
9d006428:	00006012 	mflo	t4
9d00642c:	00004812 	mflo	t1
9d006430:	718b5002 	mul	t2,t4,t3
9d006434:	000d6c00 	sll	t5,t5,0x10
9d006438:	01a63025 	or	a2,t5,a2
9d00643c:	00ca682b 	sltu	t5,a2,t2
9d006440:	0087001b 	divu	zero,a0,a3
9d006444:	00e001f4 	teq	a3,zero,0x7
9d006448:	11a00009 	beqz	t5,9d006470 <.LBB16+0x58>
9d00644c:	00ca2823 	subu	a1,a2,t2
9d006450:	00c83021 	addu	a2,a2,t0
9d006454:	00c8202b 	sltu	a0,a2,t0
9d006458:	14800004 	bnez	a0,9d00646c <.LBB16+0x54>
9d00645c:	2589ffff 	addiu	t1,t4,-1
9d006460:	00ca202b 	sltu	a0,a2,t2
9d006464:	548000a6 	bnezl	a0,9d006700 <.LBE20+0x12c>
9d006468:	2589fffe 	addiu	t1,t4,-2
9d00646c:	00ca2823 	subu	a1,a2,t2
9d006470:	3042ffff 	andi	v0,v0,0xffff
9d006474:	00a7001b 	divu	zero,a1,a3
9d006478:	00e001f4 	teq	a3,zero,0x7
9d00647c:	00005010 	mfhi	t2
9d006480:	00003012 	mflo	a2
9d006484:	00002012 	mflo	a0
9d006488:	70cb5802 	mul	t3,a2,t3
9d00648c:	000a5400 	sll	t2,t2,0x10
9d006490:	01421025 	or	v0,t2,v0
9d006494:	004b502b 	sltu	t2,v0,t3
9d006498:	00a7001b 	divu	zero,a1,a3
9d00649c:	00e001f4 	teq	a3,zero,0x7
9d0064a0:	51400009 	beqzl	t2,9d0064c8 <.LBE16>
9d0064a4:	00091400 	sll	v0,t1,0x10
9d0064a8:	00481021 	addu	v0,v0,t0
9d0064ac:	0048402b 	sltu	t0,v0,t0
9d0064b0:	15000004 	bnez	t0,9d0064c4 <.LBB16+0xac>
9d0064b4:	24c4ffff 	addiu	a0,a2,-1
9d0064b8:	004b582b 	sltu	t3,v0,t3
9d0064bc:	24c6fffe 	addiu	a2,a2,-2
9d0064c0:	00cb200b 	movn	a0,a2,t3
9d0064c4:	00091400 	sll	v0,t1,0x10

9d0064c8 <.LBE16>:
9d0064c8:	03e00008 	jr	ra
9d0064cc:	00821025 	or	v0,a0,v0
9d0064d0:	00001821 	move	v1,zero
9d0064d4:	03e00008 	jr	ra
9d0064d8:	00001021 	move	v0,zero
9d0064dc:	00481023 	subu	v0,v0,t0
9d0064e0:	01073804 	sllv	a3,a3,t0
9d0064e4:	00461806 	srlv	v1,a2,v0
9d0064e8:	00673825 	or	a3,v1,a3
9d0064ec:	00455006 	srlv	t2,a1,v0
9d0064f0:	00071c02 	srl	v1,a3,0x10
9d0064f4:	0143001b 	divu	zero,t2,v1
9d0064f8:	006001f4 	teq	v1,zero,0x7
9d0064fc:	00004810 	mfhi	t1
9d006500:	00006812 	mflo	t5
9d006504:	30ebffff 	andi	t3,a3,0xffff
9d006508:	01052804 	sllv	a1,a1,t0
9d00650c:	00441006 	srlv	v0,a0,v0
9d006510:	00452825 	or	a1,v0,a1
9d006514:	00057402 	srl	t6,a1,0x10
9d006518:	00001012 	mflo	v0
9d00651c:	71ab6002 	mul	t4,t5,t3
9d006520:	00094c00 	sll	t1,t1,0x10
9d006524:	012e4825 	or	t1,t1,t6
9d006528:	012c702b 	sltu	t6,t1,t4
9d00652c:	0143001b 	divu	zero,t2,v1
9d006530:	006001f4 	teq	v1,zero,0x7
9d006534:	11c0000a 	beqz	t6,9d006560 <.LBE16+0x98>
9d006538:	01063004 	sllv	a2,a2,t0
9d00653c:	01274821 	addu	t1,t1,a3
9d006540:	0127502b 	sltu	t2,t1,a3
9d006544:	15400006 	bnez	t2,9d006560 <.LBE16+0x98>
9d006548:	25a2ffff 	addiu	v0,t5,-1
9d00654c:	012c502b 	sltu	t2,t1,t4
9d006550:	51400004 	beqzl	t2,9d006564 <.LBE16+0x9c>
9d006554:	012c4823 	subu	t1,t1,t4
9d006558:	25a2fffe 	addiu	v0,t5,-2
9d00655c:	01274821 	addu	t1,t1,a3
9d006560:	012c4823 	subu	t1,t1,t4
9d006564:	30a5ffff 	andi	a1,a1,0xffff
9d006568:	0123001b 	divu	zero,t1,v1
9d00656c:	006001f4 	teq	v1,zero,0x7
9d006570:	00006810 	mfhi	t5
9d006574:	00006012 	mflo	t4
9d006578:	00005012 	mflo	t2
9d00657c:	718b5802 	mul	t3,t4,t3
9d006580:	000d6c00 	sll	t5,t5,0x10
9d006584:	01a52825 	or	a1,t5,a1
9d006588:	00ab682b 	sltu	t5,a1,t3
9d00658c:	0123001b 	divu	zero,t1,v1
9d006590:	006001f4 	teq	v1,zero,0x7
9d006594:	51a0000b 	beqzl	t5,9d0065c4 <.LBE16+0xfc>
9d006598:	00021400 	sll	v0,v0,0x10
9d00659c:	00a72821 	addu	a1,a1,a3
9d0065a0:	00a7182b 	sltu	v1,a1,a3
9d0065a4:	14600006 	bnez	v1,9d0065c0 <.LBE16+0xf8>
9d0065a8:	258affff 	addiu	t2,t4,-1
9d0065ac:	00ab182b 	sltu	v1,a1,t3
9d0065b0:	50600004 	beqzl	v1,9d0065c4 <.LBE16+0xfc>
9d0065b4:	00021400 	sll	v0,v0,0x10
9d0065b8:	258afffe 	addiu	t2,t4,-2
9d0065bc:	00a72821 	addu	a1,a1,a3
9d0065c0:	00021400 	sll	v0,v0,0x10
9d0065c4:	01421025 	or	v0,t2,v0
9d0065c8:	00ab2823 	subu	a1,a1,t3

9d0065cc <.LBB20>:
9d0065cc:	00460019 	multu	v0,a2
9d0065d0:	00003810 	mfhi	a3

9d0065d4 <.LBE20>:
9d0065d4:	00a7182b 	sltu	v1,a1,a3
9d0065d8:	14600044 	bnez	v1,9d0066ec <.LBE20+0x118>
9d0065dc:	00003012 	mflo	a2
9d0065e0:	10a7003f 	beq	a1,a3,9d0066e0 <.LBE20+0x10c>
9d0065e4:	01042004 	sllv	a0,a0,t0
9d0065e8:	03e00008 	jr	ra
9d0065ec:	00001821 	move	v1,zero
9d0065f0:	24020020 	li	v0,32
9d0065f4:	00431023 	subu	v0,v0,v1
9d0065f8:	00454806 	srlv	t1,a1,v0
9d0065fc:	00083c02 	srl	a3,t0,0x10
9d006600:	0127001b 	divu	zero,t1,a3
9d006604:	00e001f4 	teq	a3,zero,0x7
9d006608:	00003010 	mfhi	a2
9d00660c:	00006012 	mflo	t4
9d006610:	310bffff 	andi	t3,t0,0xffff
9d006614:	00652804 	sllv	a1,a1,v1
9d006618:	00441006 	srlv	v0,a0,v0
9d00661c:	00452825 	or	a1,v0,a1
9d006620:	00056c02 	srl	t5,a1,0x10
9d006624:	00641004 	sllv	v0,a0,v1
9d006628:	00001812 	mflo	v1
9d00662c:	718b5002 	mul	t2,t4,t3
9d006630:	00063400 	sll	a2,a2,0x10
9d006634:	01a63025 	or	a2,t5,a2
9d006638:	00ca202b 	sltu	a0,a2,t2
9d00663c:	0127001b 	divu	zero,t1,a3
9d006640:	00e001f4 	teq	a3,zero,0x7
9d006644:	5080000b 	beqzl	a0,9d006674 <.LBE20+0xa0>
9d006648:	00ca3023 	subu	a2,a2,t2
9d00664c:	00c83021 	addu	a2,a2,t0
9d006650:	00c8202b 	sltu	a0,a2,t0
9d006654:	14800006 	bnez	a0,9d006670 <.LBE20+0x9c>
9d006658:	2583ffff 	addiu	v1,t4,-1
9d00665c:	00ca202b 	sltu	a0,a2,t2
9d006660:	50800004 	beqzl	a0,9d006674 <.LBE20+0xa0>
9d006664:	00ca3023 	subu	a2,a2,t2
9d006668:	2583fffe 	addiu	v1,t4,-2
9d00666c:	00c83021 	addu	a2,a2,t0
9d006670:	00ca3023 	subu	a2,a2,t2
9d006674:	30acffff 	andi	t4,a1,0xffff
9d006678:	00c7001b 	divu	zero,a2,a3
9d00667c:	00e001f4 	teq	a3,zero,0x7
9d006680:	00002010 	mfhi	a0
9d006684:	00005012 	mflo	t2
9d006688:	00004812 	mflo	t1
9d00668c:	714b2802 	mul	a1,t2,t3
9d006690:	00042400 	sll	a0,a0,0x10
9d006694:	008c2025 	or	a0,a0,t4
9d006698:	0085602b 	sltu	t4,a0,a1
9d00669c:	00c7001b 	divu	zero,a2,a3
9d0066a0:	00e001f4 	teq	a3,zero,0x7
9d0066a4:	5180000b 	beqzl	t4,9d0066d4 <.LBE20+0x100>
9d0066a8:	00031c00 	sll	v1,v1,0x10
9d0066ac:	00882021 	addu	a0,a0,t0
9d0066b0:	0088302b 	sltu	a2,a0,t0
9d0066b4:	14c00006 	bnez	a2,9d0066d0 <.LBE20+0xfc>
9d0066b8:	2549ffff 	addiu	t1,t2,-1
9d0066bc:	0085302b 	sltu	a2,a0,a1
9d0066c0:	50c00004 	beqzl	a2,9d0066d4 <.LBE20+0x100>
9d0066c4:	00031c00 	sll	v1,v1,0x10
9d0066c8:	2549fffe 	addiu	t1,t2,-2
9d0066cc:	00882021 	addu	a0,a0,t0
9d0066d0:	00031c00 	sll	v1,v1,0x10
9d0066d4:	00852023 	subu	a0,a0,a1
9d0066d8:	0b401906 	j	9d006418 <.LBB16>
9d0066dc:	01231825 	or	v1,t1,v1
9d0066e0:	0086302b 	sltu	a2,a0,a2
9d0066e4:	10c0ffc0 	beqz	a2,9d0065e8 <.LBE20+0x14>
9d0066e8:	00000000 	nop
9d0066ec:	0b40197a 	j	9d0065e8 <.LBE20+0x14>
9d0066f0:	2442ffff 	addiu	v0,v0,-1
9d0066f4:	00001821 	move	v1,zero
9d0066f8:	03e00008 	jr	ra
9d0066fc:	24020001 	li	v0,1
9d006700:	0b40191b 	j	9d00646c <.LBB16+0x54>
9d006704:	00c83021 	addu	a2,a2,t0

9d006708 <waitPMP>:

// wait for the peripheral master port (PMP) to be ready
// should be called before every read and write operation
static void waitPMP(void)
{
  while(PMMODEbits.BUSY) { ; }
9d006708:	3c03bf80 	lui	v1,0xbf80
9d00670c:	8c627010 	lw	v0,28688(v1)
9d006710:	30428000 	andi	v0,v0,0x8000
9d006714:	1440fffd 	bnez	v0,9d00670c <waitPMP+0x4>
9d006718:	00000000 	nop
}
9d00671c:	03e00008 	jr	ra
9d006720:	00000000 	nop

9d006724 <LCD_Read>:
  PMDIN = data;        // send the data
}

// read data from the LCD.  
// rs : the value of the RS signal 0 for instructions status, 1 for data
unsigned char LCD_Read(int rs) {
9d006724:	27bdffe0 	addiu	sp,sp,-32
9d006728:	afbf001c 	sw	ra,28(sp)
9d00672c:	afb00018 	sw	s0,24(sp)
  volatile unsigned char val = 0; // volatile so 1st read doesn't get optimized away
9d006730:	a3a00010 	sb	zero,16(sp)
  if(rs) { // 1 to read data
9d006734:	10800005 	beqz	a0,9d00674c <LCD_Read+0x28>
9d006738:	24030400 	li	v1,1024
    PMADDRSET = 1 << PMABIT;
9d00673c:	3c02bf80 	lui	v0,0xbf80
9d006740:	ac437028 	sw	v1,28712(v0)
9d006744:	0b4019d5 	j	9d006754 <LCD_Read+0x30>
9d006748:	00000000 	nop
  } else { // 0 to read command status
    PMADDRCLR = 1 << PMABIT;
9d00674c:	3c02bf80 	lui	v0,0xbf80
9d006750:	ac437024 	sw	v1,28708(v0)
  }
  // from the PIC32 reference manual, you must read twice to actually get the data
  waitPMP();                  // wait for the PMP to be ready
9d006754:	0f4019c2 	jal	9d006708 <waitPMP>
9d006758:	3c10bf80 	lui	s0,0xbf80

9d00675c <.LVL1>:
  val = PMDIN;
9d00675c:	8e027040 	lw	v0,28736(s0)
9d006760:	304200ff 	andi	v0,v0,0xff
9d006764:	a3a20010 	sb	v0,16(sp)
  waitPMP();
9d006768:	0f4019c2 	jal	9d006708 <waitPMP>
9d00676c:	00000000 	nop

9d006770 <.LVL2>:
  val = PMDIN;
9d006770:	8e027040 	lw	v0,28736(s0)
9d006774:	304200ff 	andi	v0,v0,0xff
9d006778:	a3a20010 	sb	v0,16(sp)
  return val;
9d00677c:	93a20010 	lbu	v0,16(sp)
}
9d006780:	304200ff 	andi	v0,v0,0xff
9d006784:	8fbf001c 	lw	ra,28(sp)
9d006788:	8fb00018 	lw	s0,24(sp)
9d00678c:	03e00008 	jr	ra
9d006790:	27bd0020 	addiu	sp,sp,32

9d006794 <LCD_Write>:
}

// Write data to the LCD and wait for it to finish by checking the busy flag. 
// rs : the value of the RS signal, 0 for an instruction 1 for data
// data : the byte to send
void LCD_Write(int rs, unsigned char data) {
9d006794:	27bdffd8 	addiu	sp,sp,-40
9d006798:	afbf0024 	sw	ra,36(sp)
9d00679c:	afb10020 	sw	s1,32(sp)
9d0067a0:	afb0001c 	sw	s0,28(sp)
9d0067a4:	00808021 	move	s0,a0
9d0067a8:	00a08821 	move	s1,a1

9d0067ac <.LBB4>:
}

// wait for the LCD to finish its command.
// We check this by reading from the LCD
static void waitLCD() {
  volatile unsigned char val = 0x80;
9d0067ac:	2402ff80 	li	v0,-128
9d0067b0:	a3a20010 	sb	v0,16(sp)
  
  // Read from the LCD until the Busy flag (BF, 7th bit) is 0
  while (val & 0x80) {
9d0067b4:	93a20010 	lbu	v0,16(sp)
9d0067b8:	7c021420 	seb	v0,v0
9d0067bc:	04410008 	bgez	v0,9d0067e0 <.LVL5+0x14>
9d0067c0:	24020032 	li	v0,50
    val = LCD_Read(0);
9d0067c4:	0f4019c9 	jal	9d006724 <LCD_Read>
9d0067c8:	00002021 	move	a0,zero

9d0067cc <.LVL5>:
9d0067cc:	a3a20010 	sb	v0,16(sp)
// We check this by reading from the LCD
static void waitLCD() {
  volatile unsigned char val = 0x80;
  
  // Read from the LCD until the Busy flag (BF, 7th bit) is 0
  while (val & 0x80) {
9d0067d0:	93a20010 	lbu	v0,16(sp)
9d0067d4:	7c021420 	seb	v0,v0
9d0067d8:	0440fffa 	bltz	v0,9d0067c4 <.LBB4+0x18>
9d0067dc:	24020032 	li	v0,50
    val = LCD_Read(0);
  }
  int i = 0;
  for(i = 0; i < 50; ++i) { // slight delay
    _nop();
9d0067e0:	00000040 	ssnop
9d0067e4:	2442ffff 	addiu	v0,v0,-1
  // Read from the LCD until the Busy flag (BF, 7th bit) is 0
  while (val & 0x80) {
    val = LCD_Read(0);
  }
  int i = 0;
  for(i = 0; i < 50; ++i) { // slight delay
9d0067e8:	1440fffd 	bnez	v0,9d0067e0 <.LVL5+0x14>
9d0067ec:	00000000 	nop

9d0067f0 <.LBE4>:
// Write data to the LCD and wait for it to finish by checking the busy flag. 
// rs : the value of the RS signal, 0 for an instruction 1 for data
// data : the byte to send
void LCD_Write(int rs, unsigned char data) {
  waitLCD();           // wait for the LCD to be ready
  if(rs) { // 1 for data
9d0067f0:	12000004 	beqz	s0,9d006804 <.LBE4+0x14>
9d0067f4:	24030400 	li	v1,1024
    PMADDRSET = 1 << PMABIT;
9d0067f8:	3c02bf80 	lui	v0,0xbf80
9d0067fc:	0b401a03 	j	9d00680c <.LBE4+0x1c>
9d006800:	ac437028 	sw	v1,28712(v0)
  } else { // 0 for command
    PMADDRCLR = 1 << PMABIT; 
9d006804:	3c02bf80 	lui	v0,0xbf80
9d006808:	ac437024 	sw	v1,28708(v0)
  }
  waitPMP();           // Wait for the PMP to be ready
9d00680c:	0f4019c2 	jal	9d006708 <waitPMP>
9d006810:	00000000 	nop

9d006814 <.LVL12>:
  PMDIN = data;        // send the data
9d006814:	3c02bf80 	lui	v0,0xbf80
9d006818:	ac517040 	sw	s1,28736(v0)
}
9d00681c:	0b401a09 	j	9d006824 <.LVL12+0x10>
9d006820:	8fbf0024 	lw	ra,36(sp)
9d006824:	8fb10020 	lw	s1,32(sp)
9d006828:	8fb0001c 	lw	s0,28(sp)
9d00682c:	03e00008 	jr	ra
9d006830:	27bd0028 	addiu	sp,sp,40

9d006834 <LCD_Clear>:
    __builtin_enable_interrupts();
  }
}

// Clears the display and returns to the home position (0,0)
void LCD_Clear(void) {
9d006834:	27bdffe8 	addiu	sp,sp,-24
9d006838:	afbf0014 	sw	ra,20(sp)
  LCD_Write(0,0x01); //clear the whole screen
9d00683c:	00002021 	move	a0,zero
9d006840:	0f4019e5 	jal	9d006794 <LCD_Write>
9d006844:	24050001 	li	a1,1

9d006848 <.LVL15>:
}
9d006848:	8fbf0014 	lw	ra,20(sp)
9d00684c:	03e00008 	jr	ra
9d006850:	27bd0018 	addiu	sp,sp,24

9d006854 <LCD_Home>:

// Return the cursor and display to the home position (0,0)
void LCD_Home(void) {
9d006854:	27bdffe8 	addiu	sp,sp,-24
9d006858:	afbf0014 	sw	ra,20(sp)
  LCD_Write(0,0x02);
9d00685c:	00002021 	move	a0,zero
9d006860:	0f4019e5 	jal	9d006794 <LCD_Write>
9d006864:	24050002 	li	a1,2

9d006868 <.LVL16>:
}
9d006868:	8fbf0014 	lw	ra,20(sp)
9d00686c:	03e00008 	jr	ra
9d006870:	27bd0018 	addiu	sp,sp,24

9d006874 <LCD_Entry>:

// Issue the LCD entry mode set command
// This tells the LCD what to do after writing a character
// id : 1 increment cursor, 0 decrement cursor
// s : 1 shift display right, 0 don't shift display
void LCD_Entry(int id, int s) {
9d006874:	27bdffe8 	addiu	sp,sp,-24
9d006878:	afbf0014 	sw	ra,20(sp)
  LCD_Write(0, 0x04 | (id << 1) | s);
9d00687c:	34a50004 	ori	a1,a1,0x4
9d006880:	00042040 	sll	a0,a0,0x1
9d006884:	00a42825 	or	a1,a1,a0
9d006888:	00002021 	move	a0,zero
9d00688c:	0f4019e5 	jal	9d006794 <LCD_Write>
9d006890:	30a500ff 	andi	a1,a1,0xff

9d006894 <.LVL20>:
}
9d006894:	8fbf0014 	lw	ra,20(sp)
9d006898:	03e00008 	jr	ra
9d00689c:	27bd0018 	addiu	sp,sp,24

9d0068a0 <LCD_Display>:
// Issue the LCD Display command
// Changes display settings
// d : 1 display on, 0 display off
// c : 1 cursor on, 0 cursor off
// b : 1 cursor blinks, 0 cursor doesn't blink
void LCD_Display(int d, int c, int b) {
9d0068a0:	27bdffe8 	addiu	sp,sp,-24
9d0068a4:	afbf0014 	sw	ra,20(sp)
  LCD_Write(0, 0x08 | (d << 2) | (c << 1) | b);
9d0068a8:	34c60008 	ori	a2,a2,0x8
9d0068ac:	00052840 	sll	a1,a1,0x1
9d0068b0:	00c53025 	or	a2,a2,a1
9d0068b4:	00042080 	sll	a0,a0,0x2
9d0068b8:	00c42825 	or	a1,a2,a0
9d0068bc:	00002021 	move	a0,zero
9d0068c0:	0f4019e5 	jal	9d006794 <LCD_Write>
9d0068c4:	30a500ff 	andi	a1,a1,0xff

9d0068c8 <.LVL25>:
}
9d0068c8:	8fbf0014 	lw	ra,20(sp)
9d0068cc:	03e00008 	jr	ra
9d0068d0:	27bd0018 	addiu	sp,sp,24

9d0068d4 <LCD_Shift>:

// Issue the LCD display shift command
// Move the cursor or the display right or left
// sc : 0 shift cursor, 1 shift display
// rl : 0 to the left, 1 to the right
void LCD_Shift(int sc, int rl) {
9d0068d4:	27bdffe8 	addiu	sp,sp,-24
9d0068d8:	afbf0014 	sw	ra,20(sp)
  LCD_Write(0,0x1 | (sc << 3) | (rl << 2));
9d0068dc:	00052880 	sll	a1,a1,0x2
9d0068e0:	34a50001 	ori	a1,a1,0x1
9d0068e4:	000420c0 	sll	a0,a0,0x3
9d0068e8:	00a42825 	or	a1,a1,a0
9d0068ec:	00002021 	move	a0,zero
9d0068f0:	0f4019e5 	jal	9d006794 <LCD_Write>
9d0068f4:	30a500fd 	andi	a1,a1,0xfd

9d0068f8 <.LVL29>:
}
9d0068f8:	8fbf0014 	lw	ra,20(sp)
9d0068fc:	03e00008 	jr	ra
9d006900:	27bd0018 	addiu	sp,sp,24

9d006904 <LCD_Function>:
// Issue the LCD Functions set command
// This controls some LCD settings
// You may want to clear the screen after calling this
// n : 0 one line, 1 two lines
// f : 0 small font, 1 large font (only if n == 0)
void LCD_Function(int n, int f) {
9d006904:	27bdffe8 	addiu	sp,sp,-24
9d006908:	afbf0014 	sw	ra,20(sp)
  LCD_Write(0, 0x30 | (n << 3) | (f << 2));
9d00690c:	00052880 	sll	a1,a1,0x2
9d006910:	34a50030 	ori	a1,a1,0x30
9d006914:	000420c0 	sll	a0,a0,0x3
9d006918:	00a42825 	or	a1,a1,a0
9d00691c:	00002021 	move	a0,zero
9d006920:	0f4019e5 	jal	9d006794 <LCD_Write>
9d006924:	30a500fc 	andi	a1,a1,0xfc

9d006928 <.LVL33>:
}
9d006928:	8fbf0014 	lw	ra,20(sp)
9d00692c:	03e00008 	jr	ra
9d006930:	27bd0018 	addiu	sp,sp,24

9d006934 <LCD_Move>:

// Move the cursor to the desired line and column
// Does this by issuing a DDRAM Move instruction
// line : line 0 or line 1
// col  : the desired column
void LCD_Move(int line, int col) {
9d006934:	27bdffe8 	addiu	sp,sp,-24
9d006938:	afbf0014 	sw	ra,20(sp)
  LCD_Write(0, 0x80 | (line << 6) | col);
9d00693c:	2402ff80 	li	v0,-128
9d006940:	00a22825 	or	a1,a1,v0
9d006944:	00042180 	sll	a0,a0,0x6
9d006948:	00a42825 	or	a1,a1,a0
9d00694c:	00002021 	move	a0,zero
9d006950:	0f4019e5 	jal	9d006794 <LCD_Write>
9d006954:	30a500ff 	andi	a1,a1,0xff

9d006958 <.LVL37>:
}
9d006958:	8fbf0014 	lw	ra,20(sp)
9d00695c:	03e00008 	jr	ra
9d006960:	27bd0018 	addiu	sp,sp,24

9d006964 <LCD_CMove>:

// Sets the CGRAM address, used for creating custom
// characters
// addr address in the CGRAM to make current
void LCD_CMove(unsigned char addr) {
9d006964:	27bdffe8 	addiu	sp,sp,-24
9d006968:	afbf0014 	sw	ra,20(sp)
  LCD_Write(0, 0x40 | addr);
9d00696c:	34850040 	ori	a1,a0,0x40
9d006970:	0f4019e5 	jal	9d006794 <LCD_Write>
9d006974:	00002021 	move	a0,zero

9d006978 <.LVL40>:
}
9d006978:	8fbf0014 	lw	ra,20(sp)
9d00697c:	03e00008 	jr	ra
9d006980:	27bd0018 	addiu	sp,sp,24

9d006984 <LCD_WriteChar>:

// Writes the character to the LCD at the current position
void LCD_WriteChar(char c) {         
9d006984:	27bdffe8 	addiu	sp,sp,-24
9d006988:	afbf0014 	sw	ra,20(sp)
  LCD_Write(1, c); 
9d00698c:	308500ff 	andi	a1,a0,0xff
9d006990:	0f4019e5 	jal	9d006794 <LCD_Write>
9d006994:	24040001 	li	a0,1

9d006998 <.LVL43>:
}
9d006998:	8fbf0014 	lw	ra,20(sp)
9d00699c:	03e00008 	jr	ra
9d0069a0:	27bd0018 	addiu	sp,sp,24

9d0069a4 <LCD_WriteString>:

// Write a string to the LCD starting at the current cursor
void LCD_WriteString(const char *str) {
9d0069a4:	27bdffe8 	addiu	sp,sp,-24
9d0069a8:	afbf0014 	sw	ra,20(sp)
9d0069ac:	afb00010 	sw	s0,16(sp)
9d0069b0:	00808021 	move	s0,a0
  while(*str) {
9d0069b4:	80840000 	lb	a0,0(a0)
9d0069b8:	10800006 	beqz	a0,9d0069d4 <.LVL46+0xc>
9d0069bc:	8fbf0014 	lw	ra,20(sp)
    LCD_WriteChar(*str); // increment string pointer after char sent
9d0069c0:	0f401a61 	jal	9d006984 <LCD_WriteChar>
9d0069c4:	26100001 	addiu	s0,s0,1

9d0069c8 <.LVL46>:
  LCD_Write(1, c); 
}

// Write a string to the LCD starting at the current cursor
void LCD_WriteString(const char *str) {
  while(*str) {
9d0069c8:	82040000 	lb	a0,0(s0)
9d0069cc:	1480fffc 	bnez	a0,9d0069c0 <LCD_WriteString+0x1c>
9d0069d0:	8fbf0014 	lw	ra,20(sp)
    LCD_WriteChar(*str); // increment string pointer after char sent
    ++str;
  }
}
9d0069d4:	8fb00010 	lw	s0,16(sp)
9d0069d8:	03e00008 	jr	ra
9d0069dc:	27bd0018 	addiu	sp,sp,24

9d0069e0 <LCD_CustomChar>:
// Make val a custom character.  This only implements 
// The small font version
// val : between 0 and 7
// data : 7 character array.  The first 5 bits of each character
//        determine whether that pixel is on or off
void LCD_CustomChar(unsigned char val, const char * data) {
9d0069e0:	27bdffd8 	addiu	sp,sp,-40
9d0069e4:	afbf0024 	sw	ra,36(sp)
9d0069e8:	afb30020 	sw	s3,32(sp)
9d0069ec:	afb2001c 	sw	s2,28(sp)
9d0069f0:	afb10018 	sw	s1,24(sp)
9d0069f4:	afb00014 	sw	s0,20(sp)
9d0069f8:	00a09821 	move	s3,a1
  int i = 0;
  for(i = 0; i < 7; ++i) {
    LCD_CMove(((val & 7) << 2) | i);
9d0069fc:	30840007 	andi	a0,a0,0x7
9d006a00:	00049080 	sll	s2,a0,0x2
// val : between 0 and 7
// data : 7 character array.  The first 5 bits of each character
//        determine whether that pixel is on or off
void LCD_CustomChar(unsigned char val, const char * data) {
  int i = 0;
  for(i = 0; i < 7; ++i) {
9d006a04:	00008021 	move	s0,zero
9d006a08:	24110007 	li	s1,7
    LCD_CMove(((val & 7) << 2) | i);
9d006a0c:	02502025 	or	a0,s2,s0
9d006a10:	0f401a59 	jal	9d006964 <LCD_CMove>
9d006a14:	308400ff 	andi	a0,a0,0xff

9d006a18 <.LVL52>:
9d006a18:	02701021 	addu	v0,s3,s0
    LCD_Write(1, data[i]);
9d006a1c:	24040001 	li	a0,1
9d006a20:	0f4019e5 	jal	9d006794 <LCD_Write>
9d006a24:	90450000 	lbu	a1,0(v0)

9d006a28 <.LVL53>:
// val : between 0 and 7
// data : 7 character array.  The first 5 bits of each character
//        determine whether that pixel is on or off
void LCD_CustomChar(unsigned char val, const char * data) {
  int i = 0;
  for(i = 0; i < 7; ++i) {
9d006a28:	26100001 	addiu	s0,s0,1
9d006a2c:	1611fff8 	bne	s0,s1,9d006a10 <LCD_CustomChar+0x30>
9d006a30:	02502025 	or	a0,s2,s0
    LCD_CMove(((val & 7) << 2) | i);
    LCD_Write(1, data[i]);
  }
}
9d006a34:	8fbf0024 	lw	ra,36(sp)
9d006a38:	8fb30020 	lw	s3,32(sp)
9d006a3c:	8fb2001c 	lw	s2,28(sp)
9d006a40:	8fb10018 	lw	s1,24(sp)
9d006a44:	8fb00014 	lw	s0,20(sp)
9d006a48:	03e00008 	jr	ra
9d006a4c:	27bd0028 	addiu	sp,sp,40

9d006a50 <LCD_Setup>:
// pins RE0 - RE7 (PMD0 - PMD7) connect to LCD pins D0 - D7
// pin RD4 (PMENB) connects to LCD pin E
// pin RD5 (PMRD/PMWR) Connects to LCD pin R/W
// pin RB13 (PMA10) Connects to RS.
// interrupts will be disabled while this function executes
void LCD_Setup() {
9d006a50:	27bdffe8 	addiu	sp,sp,-24
9d006a54:	afbf0014 	sw	ra,20(sp)
9d006a58:	afb00010 	sw	s0,16(sp)
  int en = __builtin_disable_interrupts();  // disable interrupts, remember initial state
9d006a5c:	41706000 	di	s0
9d006a60:	000000c0 	ehb
  
  IEC1bits.PMPIE = 0;    // disable PMP interrupts
9d006a64:	3c02bf88 	lui	v0,0xbf88
9d006a68:	8c431070 	lw	v1,4208(v0)
9d006a6c:	7c031084 	ins	v1,zero,0x2,0x1
9d006a70:	ac431070 	sw	v1,4208(v0)
  PMCON = 0;             // clear PMCON, like it is on reset
9d006a74:	3c02bf80 	lui	v0,0xbf80
9d006a78:	ac407000 	sw	zero,28672(v0)
  PMCONbits.PTWREN = 1;  // PMENB strobe enabled
9d006a7c:	3c02bf80 	lui	v0,0xbf80
9d006a80:	94437000 	lhu	v1,28672(v0)
9d006a84:	24040001 	li	a0,1
9d006a88:	7c834a44 	ins	v1,a0,0x9,0x1
9d006a8c:	a4437000 	sh	v1,28672(v0)
  PMCONbits.PTRDEN = 1;  // PMRD/PMWR enabled
9d006a90:	94437000 	lhu	v1,28672(v0)
9d006a94:	7c834204 	ins	v1,a0,0x8,0x1
9d006a98:	a4437000 	sh	v1,28672(v0)
  PMCONbits.WRSP = 1;    // Read/write strobe is active high
9d006a9c:	94437000 	lhu	v1,28672(v0)
9d006aa0:	7c830844 	ins	v1,a0,0x1,0x1
9d006aa4:	a4437000 	sh	v1,28672(v0)
  PMCONbits.RDSP = 1;    // Read/write strobe is active high
9d006aa8:	94437000 	lhu	v1,28672(v0)
9d006aac:	7c830004 	ins	v1,a0,0x0,0x1
9d006ab0:	a4437000 	sh	v1,28672(v0)

  PMMODE = 0;            // clear PMMODE like it is on reset
9d006ab4:	3c03bf80 	lui	v1,0xbf80
9d006ab8:	ac607010 	sw	zero,28688(v1)
  PMMODEbits.MODE = 0x3; // set master mode 1, which uses a single strobe
9d006abc:	3c03bf80 	lui	v1,0xbf80
9d006ac0:	94657010 	lhu	a1,28688(v1)
9d006ac4:	24060003 	li	a2,3
9d006ac8:	7cc54a04 	ins	a1,a2,0x8,0x2
9d006acc:	a4657010 	sh	a1,28688(v1)
  // The cycle is started when reading from or writing to the PMDIN SFR.
  // Note that the wait states for writes start with minimum of 1 (except WAITE)
  // We add some extra wait states to make sure we meet the time and
  // account for variations in timing amongst different HD44780 compatible parts.
  // The timing we use here is for the KS066U which is faster than the HD44780.
  PMMODEbits.WAITB = 0x3;  // Tas in the LCD datasheet is 60 ns 
9d006ad0:	94657010 	lhu	a1,28688(v1)
9d006ad4:	7cc53984 	ins	a1,a2,0x6,0x2
9d006ad8:	a4657010 	sh	a1,28688(v1)
  PMMODEbits.WAITM = 0xF;  // PWeh in the data sheet is 230 ns (we don't quite meet this)
9d006adc:	94657010 	lhu	a1,28688(v1)
9d006ae0:	2406000f 	li	a2,15
9d006ae4:	7cc52884 	ins	a1,a2,0x2,0x4
9d006ae8:	a4657010 	sh	a1,28688(v1)
                           // If not working for your LCD you may need to reduce PBCLK
  PMMODEbits.WAITE = 0x1;  // after E is low wait Tah (10ns)
9d006aec:	94657010 	lhu	a1,28688(v1)
9d006af0:	7c850804 	ins	a1,a0,0x0,0x2
9d006af4:	a4657010 	sh	a1,28688(v1)

  PMAEN |= 1 << PMABIT;   // PMA is an address line
9d006af8:	3c03bf80 	lui	v1,0xbf80
9d006afc:	8c657050 	lw	a1,28752(v1)
9d006b00:	34a50400 	ori	a1,a1,0x400
9d006b04:	ac657050 	sw	a1,28752(v1)
  
  PMCONbits.ON = 1;        // enable the PMP peripheral
9d006b08:	94437000 	lhu	v1,28672(v0)
9d006b0c:	7c837bc4 	ins	v1,a0,0xf,0x1
9d006b10:	a4437000 	sh	v1,28672(v0)

9d006b14 <.LBB12>:
// This controls some LCD settings
// You may want to clear the screen after calling this
// n : 0 one line, 1 two lines
// f : 0 small font, 1 large font (only if n == 0)
void LCD_Function(int n, int f) {
  LCD_Write(0, 0x30 | (n << 3) | (f << 2));
9d006b14:	00002021 	move	a0,zero
9d006b18:	0f4019e5 	jal	9d006794 <LCD_Write>
9d006b1c:	24050038 	li	a1,56

9d006b20 <.LBB14>:
// Changes display settings
// d : 1 display on, 0 display off
// c : 1 cursor on, 0 cursor off
// b : 1 cursor blinks, 0 cursor doesn't blink
void LCD_Display(int d, int c, int b) {
  LCD_Write(0, 0x08 | (d << 2) | (c << 1) | b);
9d006b20:	00002021 	move	a0,zero
9d006b24:	0f4019e5 	jal	9d006794 <LCD_Write>
9d006b28:	2405000c 	li	a1,12

9d006b2c <.LBE14>:
  
  PMCONbits.ON = 1;        // enable the PMP peripheral
  // perform the initialization sequence
  LCD_Function(1,0);       // 2 line mode, small font
  LCD_Display(1, 0, 0);    // Display control: display on, cursor off, blinking cursor off
  LCD_Clear();             // clear the LCD 
9d006b2c:	0f401a0d 	jal	9d006834 <LCD_Clear>
9d006b30:	32100001 	andi	s0,s0,0x1

9d006b34 <.LBB16>:
// Issue the LCD entry mode set command
// This tells the LCD what to do after writing a character
// id : 1 increment cursor, 0 decrement cursor
// s : 1 shift display right, 0 don't shift display
void LCD_Entry(int id, int s) {
  LCD_Write(0, 0x04 | (id << 1) | s);
9d006b34:	00002021 	move	a0,zero
9d006b38:	0f4019e5 	jal	9d006794 <LCD_Write>
9d006b3c:	24050006 	li	a1,6

9d006b40 <.LBE16>:
  LCD_Function(1,0);       // 2 line mode, small font
  LCD_Display(1, 0, 0);    // Display control: display on, cursor off, blinking cursor off
  LCD_Clear();             // clear the LCD 
  LCD_Entry(1, 0);         // Cursor moves left to right. do not shift the display
  
  if(en & 0x1)             // if interrupts were enabled before, re-enable them
9d006b40:	12000003 	beqz	s0,9d006b50 <.LBE16+0x10>
9d006b44:	8fbf0014 	lw	ra,20(sp)
  {
    __builtin_enable_interrupts();
9d006b48:	41626020 	ei	v0
  }
}
9d006b4c:	8fbf0014 	lw	ra,20(sp)
9d006b50:	8fb00010 	lw	s0,16(sp)
9d006b54:	03e00008 	jr	ra
9d006b58:	27bd0018 	addiu	sp,sp,24

Disassembly of section .text.dp32subadd:

9d006b5c <__subdf3>:
9d006b5c:	3c018000 00e13826                       ...<&8..

9d006b64 <__adddf3>:
9d006b64:	00055840 000b5d42 000552c0 00047d42     @X..B]...R..B}..
9d006b74:	014f5025 00044ac0 3c088000 01485025     %PO..J.....<%PH.
9d006b84:	00077040 000e7542 00076ac0 00067d42     @p..Bu...j..B}..
9d006b94:	01af6825 000662c0 01a86825 256fffff     %h...b..%h....o%
9d006ba4:	2de107fe 1020008d 00000000              ...-.. .....

9d006bb0 <Blab1>:
9d006bb0:	25cfffff 	addiu	t7,t6,-1
9d006bb4:	2de107fe 	sltiu	at,t7,2046
9d006bb8:	102000bb 	beqz	at,9d006ea8 <BspecB>
9d006bbc:	00000000 	nop

9d006bc0 <Blab2>:
9d006bc0:	3c018000 	lui	at,0x8000
9d006bc4:	00a12824 	and	a1,a1,at
9d006bc8:	016e4023 	subu	t0,t3,t6
9d006bcc:	1100002c 	beqz	t0,9d006c80 <Badd3>
9d006bd0:	00000000 	nop
9d006bd4:	19000015 	blez	t0,9d006c2c <i1>
9d006bd8:	00000000 	nop

9d006bdc <L1>:
9d006bdc:	2d010020 	sltiu	at,t0,32
9d006be0:	14200007 	bnez	at,9d006c00 <L2>
9d006be4:	00000000 	nop
9d006be8:	2108ffe0 	addi	t0,t0,-32
9d006bec:	000c302b 	sltu	a2,zero,t4
9d006bf0:	100d0023 	beq	zero,t5,9d006c80 <Badd3>
9d006bf4:	01a66025 	or	t4,t5,a2
9d006bf8:	1000fff8 	b	9d006bdc <L1>
9d006bfc:	340d0000 	li	t5,0x0

9d006c00 <L2>:
9d006c00:	1100001f 	beqz	t0,9d006c80 <Badd3>
9d006c04:	00000000 	nop
9d006c08:	00082022 	neg	a0,t0
9d006c0c:	008c3004 	sllv	a2,t4,a0
9d006c10:	008d2004 	sllv	a0,t5,a0
9d006c14:	010c6006 	srlv	t4,t4,t0
9d006c18:	010d6806 	srlv	t5,t5,t0
9d006c1c:	10c00018 	beqz	a2,9d006c80 <Badd3>
9d006c20:	008c6025 	or	t4,a0,t4
9d006c24:	10000016 	b	9d006c80 <Badd3>
9d006c28:	358c0002 	ori	t4,t4,0x2

9d006c2c <i1>:
9d006c2c:	000e5825 	or	t3,zero,t6
9d006c30:	00084023 	negu	t0,t0

9d006c34 <L4>:
9d006c34:	2d010020 	sltiu	at,t0,32
9d006c38:	14200007 	bnez	at,9d006c58 <L5>
9d006c3c:	00000000 	nop
9d006c40:	2108ffe0 	addi	t0,t0,-32
9d006c44:	0009302b 	sltu	a2,zero,t1
9d006c48:	100a000d 	beq	zero,t2,9d006c80 <Badd3>
9d006c4c:	01464825 	or	t1,t2,a2
9d006c50:	1000fff8 	b	9d006c34 <L4>
9d006c54:	340a0000 	li	t2,0x0

9d006c58 <L5>:
9d006c58:	11000009 	beqz	t0,9d006c80 <Badd3>
9d006c5c:	00000000 	nop
9d006c60:	00082022 	neg	a0,t0
9d006c64:	00893004 	sllv	a2,t1,a0
9d006c68:	008a2004 	sllv	a0,t2,a0
9d006c6c:	01094806 	srlv	t1,t1,t0
9d006c70:	010a5006 	srlv	t2,t2,t0
9d006c74:	10c00002 	beqz	a2,9d006c80 <Badd3>
9d006c78:	00894825 	or	t1,a0,t1
9d006c7c:	35290002 	ori	t1,t1,0x2

9d006c80 <Badd3>:
9d006c80:	00a77826 	xor	t7,a1,a3
9d006c84:	05e0001c 	bltz	t7,9d006cf8 <Bsub1>
9d006c88:	00000000 	nop
9d006c8c:	012c4821 	addu	t1,t1,t4
9d006c90:	012c782b 	sltu	t7,t1,t4
9d006c94:	014d5021 	addu	t2,t2,t5
9d006c98:	014f5021 	addu	t2,t2,t7
9d006c9c:	114d0002 	beq	t2,t5,9d006ca8 <L7>
9d006ca0:	00000000 	nop
9d006ca4:	014d782b 	sltu	t7,t2,t5

9d006ca8 <L7>:
9d006ca8:	11e00037 	beqz	t7,9d006d88 <Bres>
9d006cac:	00000000 	nop
9d006cb0:	312f0001 	andi	t7,t1,0x1
9d006cb4:	11e00002 	beqz	t7,9d006cc0 <i3>
9d006cb8:	00000000 	nop
9d006cbc:	35290002 	ori	t1,t1,0x2

9d006cc0 <i3>:
9d006cc0:	00094842 	srl	t1,t1,0x1
9d006cc4:	000a7fc0 	sll	t7,t2,0x1f
9d006cc8:	012f4825 	or	t1,t1,t7
9d006ccc:	000a5042 	srl	t2,t2,0x1
9d006cd0:	3c018000 	lui	at,0x8000
9d006cd4:	01415025 	or	t2,t2,at
9d006cd8:	256b0001 	addiu	t3,t3,1
9d006cdc:	240107ff 	li	at,2047
9d006ce0:	15610029 	bne	t3,at,9d006d88 <Bres>
9d006ce4:	00000000 	nop
9d006ce8:	3c017ff0 	lui	at,0x7ff0
9d006cec:	00a12825 	or	a1,a1,at
9d006cf0:	10000037 	b	9d006dd0 <BretA>
9d006cf4:	24040000 	li	a0,0

9d006cf8 <Bsub1>:
9d006cf8:	012c782b 	sltu	t7,t1,t4
9d006cfc:	012c4823 	subu	t1,t1,t4
9d006d00:	014f102b 	sltu	v0,t2,t7
9d006d04:	014f5023 	subu	t2,t2,t7
9d006d08:	014d782b 	sltu	t7,t2,t5
9d006d0c:	01e27825 	or	t7,t7,v0
9d006d10:	11e00007 	beqz	t7,9d006d30 <i5>
9d006d14:	014d5023 	subu	t2,t2,t5
9d006d18:	3c018000 	lui	at,0x8000
9d006d1c:	00a12826 	xor	a1,a1,at
9d006d20:	0009782b 	sltu	t7,zero,t1
9d006d24:	00094823 	negu	t1,t1
9d006d28:	000a5023 	negu	t2,t2
9d006d2c:	014f5023 	subu	t2,t2,t7

9d006d30 <i5>:
9d006d30:	15400008 	bnez	t2,9d006d54 <L8>
9d006d34:	00000000 	nop
9d006d38:	15200003 	bnez	t1,9d006d48 <L9>
9d006d3c:	00000000 	nop
9d006d40:	1000000d 	b	9d006d78 <L10>
9d006d44:	240b0000 	li	t3,0

9d006d48 <L9>:
9d006d48:	01205025 	move	t2,t1
9d006d4c:	24090000 	li	t1,0
9d006d50:	256bffe0 	addiu	t3,t3,-32

9d006d54 <L8>:
9d006d54:	71484020 	clz	t0,t2
9d006d58:	11000007 	beqz	t0,9d006d78 <L10>
9d006d5c:	00000000 	nop
9d006d60:	01685823 	subu	t3,t3,t0
9d006d64:	00082022 	neg	a0,t0
9d006d68:	00892006 	srlv	a0,t1,a0
9d006d6c:	01094804 	sllv	t1,t1,t0
9d006d70:	010a5004 	sllv	t2,t2,t0
9d006d74:	01445025 	or	t2,t2,a0

9d006d78 <L10>:
9d006d78:	01497825 	or	t7,t2,t1
9d006d7c:	15e00002 	bnez	t7,9d006d88 <Bres>
9d006d80:	00000000 	nop
9d006d84:	24050000 	li	a1,0

9d006d88 <Bres>:
9d006d88:	19600068 	blez	t3,9d006f2c <Bund>
9d006d8c:	00000000 	nop

9d006d90 <Blab8>:
9d006d90:	25290400 	addiu	t1,t1,1024
9d006d94:	2d2f0400 	sltiu	t7,t1,1024
9d006d98:	014f5021 	addu	t2,t2,t7
9d006d9c:	014f782b 	sltu	t7,t2,t7
9d006da0:	016f5821 	addu	t3,t3,t7
9d006da4:	00097ac2 	srl	t7,t1,0xb
9d006da8:	31ef0001 	andi	t7,t7,0x1
9d006dac:	012f4823 	subu	t1,t1,t7
9d006db0:	000922c2 	srl	a0,t1,0xb
9d006db4:	000a7d40 	sll	t7,t2,0x15
9d006db8:	008f2025 	or	a0,a0,t7
9d006dbc:	000a7840 	sll	t7,t2,0x1
9d006dc0:	000f7b02 	srl	t7,t7,0xc
9d006dc4:	00af2825 	or	a1,a1,t7
9d006dc8:	000b7d00 	sll	t7,t3,0x14
9d006dcc:	00af2825 	or	a1,a1,t7

9d006dd0 <BretA>:
9d006dd0:	00041025 	or	v0,zero,a0
9d006dd4:	00051825 	or	v1,zero,a1

9d006dd8 <B999>:
9d006dd8:	03e00008 	jr	ra
9d006ddc:	00000000 	nop

9d006de0 <BspecA>:
9d006de0:	0120782a 	slt	t7,t1,zero
9d006de4:	01294821 	addu	t1,t1,t1
9d006de8:	014a5021 	addu	t2,t2,t2
9d006dec:	15600023 	bnez	t3,9d006e7c <i7>
9d006df0:	014f5021 	addu	t2,t2,t7
9d006df4:	01497825 	or	t7,t2,t1
9d006df8:	11e00014 	beqz	t7,9d006e4c <i8>
9d006dfc:	00000000 	nop
9d006e00:	15400008 	bnez	t2,9d006e24 <L11>
9d006e04:	00000000 	nop
9d006e08:	15200003 	bnez	t1,9d006e18 <L12>
9d006e0c:	00000000 	nop
9d006e10:	1000ff67 	b	9d006bb0 <Blab1>
9d006e14:	240b0000 	li	t3,0

9d006e18 <L12>:
9d006e18:	01205025 	move	t2,t1
9d006e1c:	24090000 	li	t1,0
9d006e20:	256bffe0 	addiu	t3,t3,-32

9d006e24 <L11>:
9d006e24:	71484020 	clz	t0,t2
9d006e28:	1100ff61 	beqz	t0,9d006bb0 <Blab1>
9d006e2c:	00000000 	nop
9d006e30:	01685823 	subu	t3,t3,t0
9d006e34:	00082022 	neg	a0,t0
9d006e38:	00892006 	srlv	a0,t1,a0
9d006e3c:	01094804 	sllv	t1,t1,t0
9d006e40:	010a5004 	sllv	t2,t2,t0
9d006e44:	1000ff5a 	b	9d006bb0 <Blab1>
9d006e48:	01445025 	or	t2,t2,a0

9d006e4c <i8>:
9d006e4c:	240107ff 	li	at,2047
9d006e50:	11c10015 	beq	t6,at,9d006ea8 <BspecB>
9d006e54:	00000000 	nop
9d006e58:	00e74021 	addu	t0,a3,a3
9d006e5c:	01067825 	or	t7,t0,a2
9d006e60:	15e00003 	bnez	t7,9d006e70 <BretB>
9d006e64:	00000000 	nop
9d006e68:	04e0ffd9 	bltz	a3,9d006dd0 <BretA>
9d006e6c:	00000000 	nop

9d006e70 <BretB>:
9d006e70:	00061025 	or	v0,zero,a2
9d006e74:	1000ffd8 	b	9d006dd8 <B999>
9d006e78:	00071825 	or	v1,zero,a3

9d006e7c <i7>:
9d006e7c:	01497825 	or	t7,t2,t1
9d006e80:	15e00027 	bnez	t7,9d006f20 <Bnan>
9d006e84:	00000000 	nop
9d006e88:	240107ff 	li	at,2047
9d006e8c:	15c1ffd0 	bne	t6,at,9d006dd0 <BretA>
9d006e90:	00000000 	nop
9d006e94:	00a77826 	xor	t7,a1,a3
9d006e98:	05e00021 	bltz	t7,9d006f20 <Bnan>
9d006e9c:	00000000 	nop
9d006ea0:	1000fff3 	b	9d006e70 <BretB>
9d006ea4:	00000000 	nop

9d006ea8 <BspecB>:
9d006ea8:	0180782a 	slt	t7,t4,zero
9d006eac:	018c6021 	addu	t4,t4,t4
9d006eb0:	01ad6821 	addu	t5,t5,t5
9d006eb4:	15c00017 	bnez	t6,9d006f14 <i11>
9d006eb8:	01af6821 	addu	t5,t5,t7
9d006ebc:	01ac7825 	or	t7,t5,t4
9d006ec0:	11e0ffc3 	beqz	t7,9d006dd0 <BretA>
9d006ec4:	00000000 	nop
9d006ec8:	15a00008 	bnez	t5,9d006eec <L14>
9d006ecc:	00000000 	nop
9d006ed0:	15800003 	bnez	t4,9d006ee0 <L15>
9d006ed4:	00000000 	nop
9d006ed8:	1000ff39 	b	9d006bc0 <Blab2>
9d006edc:	240e0000 	li	t6,0

9d006ee0 <L15>:
9d006ee0:	01806825 	move	t5,t4
9d006ee4:	240c0000 	li	t4,0
9d006ee8:	25ceffe0 	addiu	t6,t6,-32

9d006eec <L14>:
9d006eec:	71a84020 	clz	t0,t5
9d006ef0:	1100ff33 	beqz	t0,9d006bc0 <Blab2>
9d006ef4:	00000000 	nop
9d006ef8:	01c87023 	subu	t6,t6,t0
9d006efc:	00082022 	neg	a0,t0
9d006f00:	008c2006 	srlv	a0,t4,a0
9d006f04:	010c6004 	sllv	t4,t4,t0
9d006f08:	010d6804 	sllv	t5,t5,t0
9d006f0c:	1000ff2c 	b	9d006bc0 <Blab2>
9d006f10:	01a46825 	or	t5,t5,a0

9d006f14 <i11>:
9d006f14:	01ac7825 	or	t7,t5,t4
9d006f18:	11e0ffd5 	beqz	t7,9d006e70 <BretB>
9d006f1c:	00000000 	nop

9d006f20 <Bnan>:
9d006f20:	3c05fff8 	lui	a1,0xfff8
9d006f24:	1000ffaa 	b	9d006dd0 <BretA>
9d006f28:	24040000 	li	a0,0

9d006f2c <Bund>:
9d006f2c:	24080001 	li	t0,1
9d006f30:	010b4023 	subu	t0,t0,t3

9d006f34 <L17>:
9d006f34:	2d010020 	sltiu	at,t0,32
9d006f38:	14200007 	bnez	at,9d006f58 <L18>
9d006f3c:	00000000 	nop
9d006f40:	2108ffe0 	addi	t0,t0,-32
9d006f44:	0009302b 	sltu	a2,zero,t1
9d006f48:	100a000d 	beq	zero,t2,9d006f80 <L19>
9d006f4c:	01464825 	or	t1,t2,a2
9d006f50:	1000fff8 	b	9d006f34 <L17>
9d006f54:	340a0000 	li	t2,0x0

9d006f58 <L18>:
9d006f58:	11000009 	beqz	t0,9d006f80 <L19>
9d006f5c:	00000000 	nop
9d006f60:	00082022 	neg	a0,t0
9d006f64:	00893004 	sllv	a2,t1,a0
9d006f68:	008a2004 	sllv	a0,t2,a0
9d006f6c:	01094806 	srlv	t1,t1,t0
9d006f70:	010a5006 	srlv	t2,t2,t0
9d006f74:	10c00002 	beqz	a2,9d006f80 <L19>
9d006f78:	00894825 	or	t1,a0,t1
9d006f7c:	35290002 	ori	t1,t1,0x2

9d006f80 <L19>:
9d006f80:	1000ff83 	b	9d006d90 <Blab8>
9d006f84:	240b0000 	li	t3,0
9d006f88:	00000000 	nop

Disassembly of section .text.__strtod:

9d006f8c <__strtod>:
9d006f8c:	27bdffc8 	addiu	sp,sp,-56

9d006f90 <.LCFI0>:
9d006f90:	afbf0034 	sw	ra,52(sp)
9d006f94:	afbe0030 	sw	s8,48(sp)
9d006f98:	afb7002c 	sw	s7,44(sp)
9d006f9c:	afb60028 	sw	s6,40(sp)
9d006fa0:	afb50024 	sw	s5,36(sp)
9d006fa4:	afb40020 	sw	s4,32(sp)
9d006fa8:	afb3001c 	sw	s3,28(sp)
9d006fac:	afb20018 	sw	s2,24(sp)
9d006fb0:	afb10014 	sw	s1,20(sp)
9d006fb4:	afb00010 	sw	s0,16(sp)
9d006fb8:	0080b821 	move	s7,a0
9d006fbc:	80820000 	lb	v0,0(a0)
9d006fc0:	3c1e9d01 	lui	s8,0x9d01
9d006fc4:	27de9b9d 	addiu	s8,s8,-25699
9d006fc8:	03c21821 	addu	v1,s8,v0
9d006fcc:	80630000 	lb	v1,0(v1)
9d006fd0:	00a0a821 	move	s5,a1
9d006fd4:	30630088 	andi	v1,v1,0x88
9d006fd8:	10600008 	beqz	v1,9d006ffc <.LCFI0+0x6c>
9d006fdc:	0080a021 	move	s4,a0
9d006fe0:	26940001 	addiu	s4,s4,1
9d006fe4:	82820000 	lb	v0,0(s4)
9d006fe8:	03c21821 	addu	v1,s8,v0
9d006fec:	80630000 	lb	v1,0(v1)
9d006ff0:	30630088 	andi	v1,v1,0x88
9d006ff4:	5460fffb 	bnezl	v1,9d006fe4 <.LCFI0+0x54>
9d006ff8:	26940001 	addiu	s4,s4,1
9d006ffc:	2403002d 	li	v1,45
9d007000:	10430098 	beq	v0,v1,9d007264 <.LCFI0+0x2d4>
9d007004:	3842002b 	xori	v0,v0,0x2b
9d007008:	2c420001 	sltiu	v0,v0,1
9d00700c:	00009821 	move	s3,zero
9d007010:	0282a021 	addu	s4,s4,v0
9d007014:	82860000 	lb	a2,0(s4)
9d007018:	03c61021 	addu	v0,s8,a2
9d00701c:	90420000 	lbu	v0,0(v0)
9d007020:	30420004 	andi	v0,v0,0x4
9d007024:	00008821 	move	s1,zero
9d007028:	104000bc 	beqz	v0,9d00731c <.LCFI0+0x38c>
9d00702c:	00008021 	move	s0,zero
9d007030:	00009021 	move	s2,zero
9d007034:	24d6ffd0 	addiu	s6,a2,-48
9d007038:	02002821 	move	a1,s0
9d00703c:	02202021 	move	a0,s1
9d007040:	00003021 	move	a2,zero
9d007044:	0f401e8f 	jal	9d007a3c <.LFE23>
9d007048:	3c074024 	lui	a3,0x4024
9d00704c:	00408021 	move	s0,v0
9d007050:	00608821 	move	s1,v1
9d007054:	0f402b46 	jal	9d00ad18 <__floatsidf>
9d007058:	02c02021 	move	a0,s6
9d00705c:	02002021 	move	a0,s0
9d007060:	02202821 	move	a1,s1
9d007064:	00403021 	move	a2,v0
9d007068:	00603821 	move	a3,v1
9d00706c:	0f401ad9 	jal	9d006b64 <__adddf3>
9d007070:	26940001 	addiu	s4,s4,1
9d007074:	00408821 	move	s1,v0
9d007078:	00608021 	move	s0,v1
9d00707c:	82860000 	lb	a2,0(s4)
9d007080:	03c61021 	addu	v0,s8,a2
9d007084:	90420000 	lbu	v0,0(v0)
9d007088:	30420004 	andi	v0,v0,0x4
9d00708c:	1440ffe9 	bnez	v0,9d007034 <.LCFI0+0xa4>
9d007090:	02569025 	or	s2,s2,s6
9d007094:	24030001 	li	v1,1
9d007098:	2402002e 	li	v0,46
9d00709c:	50c20048 	beql	a2,v0,9d0071c0 <.LCFI0+0x230>
9d0070a0:	82820001 	lb	v0,1(s4)
9d0070a4:	54600072 	bnezl	v1,9d007270 <.LCFI0+0x2e0>
9d0070a8:	82820000 	lb	v0,0(s4)
9d0070ac:	12a0002a 	beqz	s5,9d007158 <.LCFI0+0x1c8>
9d0070b0:	00000000 	nop
9d0070b4:	02e0a021 	move	s4,s7
9d0070b8:	0000b821 	move	s7,zero
9d0070bc:	aeb40000 	sw	s4,0(s5)
9d0070c0:	12e00025 	beqz	s7,9d007158 <.LCFI0+0x1c8>
9d0070c4:	00004021 	move	t0,zero
9d0070c8:	001717c3 	sra	v0,s7,0x1f
9d0070cc:	0057b026 	xor	s6,v0,s7
9d0070d0:	02c2b023 	subu	s6,s6,v0
9d0070d4:	3c159d01 	lui	s5,0x9d01
9d0070d8:	26b5b2d8 	addiu	s5,s5,-19752
9d0070dc:	3c093ff0 	lui	t1,0x3ff0
9d0070e0:	0b401c3c 	j	9d0070f0 <.LCFI0+0x160>
9d0070e4:	24140009 	li	s4,9
9d0070e8:	1280000e 	beqz	s4,9d007124 <.LCFI0+0x194>
9d0070ec:	26b5fff8 	addiu	s5,s5,-8
9d0070f0:	2694ffff 	addiu	s4,s4,-1
9d0070f4:	02961007 	srav	v0,s6,s4
9d0070f8:	30420001 	andi	v0,v0,0x1
9d0070fc:	1040fffa 	beqz	v0,9d0070e8 <.LCFI0+0x158>
9d007100:	01002021 	move	a0,t0
9d007104:	8ea60000 	lw	a2,0(s5)
9d007108:	8ea70004 	lw	a3,4(s5)
9d00710c:	0f401e8f 	jal	9d007a3c <.LFE23>
9d007110:	01202821 	move	a1,t1
9d007114:	00404021 	move	t0,v0
9d007118:	00604821 	move	t1,v1
9d00711c:	1680fff4 	bnez	s4,9d0070f0 <.LCFI0+0x160>
9d007120:	26b5fff8 	addiu	s5,s5,-8
9d007124:	02202021 	move	a0,s1
9d007128:	02002821 	move	a1,s0
9d00712c:	01003021 	move	a2,t0
9d007130:	06e00075 	bltz	s7,9d007308 <.LCFI0+0x378>
9d007134:	01203821 	move	a3,t1
9d007138:	0f401e8f 	jal	9d007a3c <.LFE23>
9d00713c:	00000000 	nop
9d007140:	00402021 	move	a0,v0
9d007144:	00602821 	move	a1,v1
9d007148:	0f4024a6 	jal	9d009298 <__ldexp>
9d00714c:	02e03021 	move	a2,s7
9d007150:	00408821 	move	s1,v0
9d007154:	00608021 	move	s0,v1
9d007158:	1220007b 	beqz	s1,9d007348 <.LCFI0+0x3b8>
9d00715c:	7e02f000 	ext	v0,s0,0x0,0x1f
9d007160:	02301025 	or	v0,s1,s0
9d007164:	10400073 	beqz	v0,9d007334 <.LCFI0+0x3a4>
9d007168:	00000000 	nop
9d00716c:	12600007 	beqz	s3,9d00718c <.LCFI0+0x1fc>
9d007170:	02201021 	move	v0,s1
9d007174:	02202021 	move	a0,s1
9d007178:	0f402db3 	jal	9d00b6cc <__negdf2>
9d00717c:	02002821 	move	a1,s0
9d007180:	00408821 	move	s1,v0
9d007184:	00608021 	move	s0,v1
9d007188:	02201021 	move	v0,s1
9d00718c:	02001821 	move	v1,s0
9d007190:	8fbf0034 	lw	ra,52(sp)
9d007194:	8fbe0030 	lw	s8,48(sp)
9d007198:	8fb7002c 	lw	s7,44(sp)
9d00719c:	8fb60028 	lw	s6,40(sp)
9d0071a0:	8fb50024 	lw	s5,36(sp)
9d0071a4:	8fb40020 	lw	s4,32(sp)
9d0071a8:	8fb3001c 	lw	s3,28(sp)
9d0071ac:	8fb20018 	lw	s2,24(sp)
9d0071b0:	8fb10014 	lw	s1,20(sp)
9d0071b4:	8fb00010 	lw	s0,16(sp)
9d0071b8:	03e00008 	jr	ra
9d0071bc:	27bd0038 	addiu	sp,sp,56
9d0071c0:	03c22021 	addu	a0,s8,v0
9d0071c4:	90840000 	lbu	a0,0(a0)
9d0071c8:	30840004 	andi	a0,a0,0x4
9d0071cc:	1080ffb5 	beqz	a0,9d0070a4 <.LCFI0+0x114>
9d0071d0:	26940001 	addiu	s4,s4,1
9d0071d4:	0000b821 	move	s7,zero
9d0071d8:	2456ffd0 	addiu	s6,v0,-48
9d0071dc:	02002821 	move	a1,s0
9d0071e0:	02202021 	move	a0,s1
9d0071e4:	00003021 	move	a2,zero
9d0071e8:	0f401e8f 	jal	9d007a3c <.LFE23>
9d0071ec:	3c074024 	lui	a3,0x4024
9d0071f0:	00408021 	move	s0,v0
9d0071f4:	00608821 	move	s1,v1
9d0071f8:	0f402b46 	jal	9d00ad18 <__floatsidf>
9d0071fc:	02c02021 	move	a0,s6
9d007200:	02002021 	move	a0,s0
9d007204:	02202821 	move	a1,s1
9d007208:	00403021 	move	a2,v0
9d00720c:	00603821 	move	a3,v1
9d007210:	0f401ad9 	jal	9d006b64 <__adddf3>
9d007214:	26940001 	addiu	s4,s4,1
9d007218:	00408821 	move	s1,v0
9d00721c:	00608021 	move	s0,v1
9d007220:	82820000 	lb	v0,0(s4)
9d007224:	02569025 	or	s2,s2,s6
9d007228:	03c21821 	addu	v1,s8,v0
9d00722c:	90630000 	lbu	v1,0(v1)
9d007230:	30630004 	andi	v1,v1,0x4
9d007234:	1460ffe8 	bnez	v1,9d0071d8 <.LCFI0+0x248>
9d007238:	26f7ffff 	addiu	s7,s7,-1
9d00723c:	2404ffdf 	li	a0,-33
9d007240:	00441824 	and	v1,v0,a0
9d007244:	7c031c20 	seb	v1,v1
9d007248:	24020045 	li	v0,69
9d00724c:	5062000f 	beql	v1,v0,9d00728c <.LCFI0+0x2fc>
9d007250:	82830001 	lb	v1,1(s4)
9d007254:	56a0ff9a 	bnezl	s5,9d0070c0 <.LCFI0+0x130>
9d007258:	aeb40000 	sw	s4,0(s5)
9d00725c:	0b401c30 	j	9d0070c0 <.LCFI0+0x130>
9d007260:	00000000 	nop
9d007264:	26940001 	addiu	s4,s4,1
9d007268:	0b401c05 	j	9d007014 <.LCFI0+0x84>
9d00726c:	24130001 	li	s3,1
9d007270:	2404ffdf 	li	a0,-33
9d007274:	00441824 	and	v1,v0,a0
9d007278:	7c031c20 	seb	v1,v1
9d00727c:	24020045 	li	v0,69
9d007280:	1462fff4 	bne	v1,v0,9d007254 <.LCFI0+0x2c4>
9d007284:	0000b821 	move	s7,zero
9d007288:	82830001 	lb	v1,1(s4)
9d00728c:	2402002d 	li	v0,45
9d007290:	10620019 	beq	v1,v0,9d0072f8 <.LCFI0+0x368>
9d007294:	2402002b 	li	v0,43
9d007298:	50620023 	beql	v1,v0,9d007328 <.LCFI0+0x398>
9d00729c:	82830002 	lb	v1,2(s4)
9d0072a0:	26940001 	addiu	s4,s4,1
9d0072a4:	00003821 	move	a3,zero
9d0072a8:	03c31021 	addu	v0,s8,v1
9d0072ac:	90420000 	lbu	v0,0(v0)
9d0072b0:	30420004 	andi	v0,v0,0x4
9d0072b4:	1040000c 	beqz	v0,9d0072e8 <.LCFI0+0x358>
9d0072b8:	00001021 	move	v0,zero
9d0072bc:	26940001 	addiu	s4,s4,1
9d0072c0:	2465ffd0 	addiu	a1,v1,-48
9d0072c4:	82830000 	lb	v1,0(s4)
9d0072c8:	00023040 	sll	a2,v0,0x1
9d0072cc:	000210c0 	sll	v0,v0,0x3
9d0072d0:	03c32021 	addu	a0,s8,v1
9d0072d4:	90840000 	lbu	a0,0(a0)
9d0072d8:	00c21021 	addu	v0,a2,v0
9d0072dc:	30840004 	andi	a0,a0,0x4
9d0072e0:	1480fff6 	bnez	a0,9d0072bc <.LCFI0+0x32c>
9d0072e4:	00451021 	addu	v0,v0,a1
9d0072e8:	00021823 	negu	v1,v0
9d0072ec:	0067100b 	movn	v0,v1,a3
9d0072f0:	0b401c95 	j	9d007254 <.LCFI0+0x2c4>
9d0072f4:	02e2b821 	addu	s7,s7,v0
9d0072f8:	82830002 	lb	v1,2(s4)
9d0072fc:	24070001 	li	a3,1
9d007300:	0b401caa 	j	9d0072a8 <.LCFI0+0x318>
9d007304:	26940002 	addiu	s4,s4,2
9d007308:	0f401538 	jal	9d0054e0 <__divdf3>
9d00730c:	00000000 	nop
9d007310:	00402021 	move	a0,v0
9d007314:	0b401c52 	j	9d007148 <.LCFI0+0x1b8>
9d007318:	00602821 	move	a1,v1
9d00731c:	00001821 	move	v1,zero
9d007320:	0b401c26 	j	9d007098 <.LCFI0+0x108>
9d007324:	00009021 	move	s2,zero
9d007328:	00003821 	move	a3,zero
9d00732c:	0b401caa 	j	9d0072a8 <.LCFI0+0x318>
9d007330:	26940002 	addiu	s4,s4,2
9d007334:	1240ff8d 	beqz	s2,9d00716c <.LCFI0+0x1dc>
9d007338:	24030022 	li	v1,34
9d00733c:	3c02a000 	lui	v0,0xa000
9d007340:	0b401c5b 	j	9d00716c <.LCFI0+0x1dc>
9d007344:	ac430030 	sw	v1,48(v0)
9d007348:	3c037ff0 	lui	v1,0x7ff0
9d00734c:	1443ff85 	bne	v0,v1,9d007164 <.LCFI0+0x1d4>
9d007350:	02301025 	or	v0,s1,s0
9d007354:	0b401ccf 	j	9d00733c <.LCFI0+0x3ac>
9d007358:	24030022 	li	v1,34

Disassembly of section .text.strtoll:

9d00735c <strtoll>:
9d00735c:	27bdffd0 	addiu	sp,sp,-48
9d007360:	afbf002c 	sw	ra,44(sp)
9d007364:	afb60028 	sw	s6,40(sp)
9d007368:	afb50024 	sw	s5,36(sp)
9d00736c:	afb40020 	sw	s4,32(sp)
9d007370:	afb3001c 	sw	s3,28(sp)
9d007374:	afb20018 	sw	s2,24(sp)
9d007378:	afb10014 	sw	s1,20(sp)
9d00737c:	afb00010 	sw	s0,16(sp)
9d007380:	00809821 	move	s3,a0
9d007384:	80820000 	lb	v0,0(a0)
9d007388:	00a0a021 	move	s4,a1
9d00738c:	104000c0 	beqz	v0,9d007690 <strtoll+0x334>
9d007390:	00c09021 	move	s2,a2
9d007394:	3c049d01 	lui	a0,0x9d01
9d007398:	24849b9d 	addiu	a0,a0,-25699
9d00739c:	00821821 	addu	v1,a0,v0
9d0073a0:	80630000 	lb	v1,0(v1)
9d0073a4:	30630088 	andi	v1,v1,0x88
9d0073a8:	14600007 	bnez	v1,9d0073c8 <strtoll+0x6c>
9d0073ac:	02608821 	move	s1,s3
9d0073b0:	0b401d72 	j	9d0075c8 <strtoll+0x26c>
9d0073b4:	2403002b 	li	v1,43
9d0073b8:	80630000 	lb	v1,0(v1)
9d0073bc:	30630088 	andi	v1,v1,0x88
9d0073c0:	50600081 	beqzl	v1,9d0075c8 <strtoll+0x26c>
9d0073c4:	2403002b 	li	v1,43
9d0073c8:	26310001 	addiu	s1,s1,1
9d0073cc:	82220000 	lb	v0,0(s1)
9d0073d0:	1440fff9 	bnez	v0,9d0073b8 <strtoll+0x5c>
9d0073d4:	00821821 	addu	v1,a0,v0
9d0073d8:	00008021 	move	s0,zero
9d0073dc:	0000b021 	move	s6,zero
9d0073e0:	16400063 	bnez	s2,9d007570 <strtoll+0x214>
9d0073e4:	24020010 	li	v0,16
9d0073e8:	24020030 	li	v0,48
9d0073ec:	12020090 	beq	s0,v0,9d007630 <strtoll+0x2d4>
9d0073f0:	3c0fcccc 	lui	t7,0xcccc
9d0073f4:	35efcccc 	ori	t7,t7,0xcccc
9d0073f8:	3c0b0ccc 	lui	t3,0xccc
9d0073fc:	356bcccc 	ori	t3,t3,0xcccc
9d007400:	240c000a 	li	t4,10
9d007404:	0000a821 	move	s5,zero
9d007408:	00002021 	move	a0,zero
9d00740c:	2412000a 	li	s2,10
9d007410:	2628ffff 	addiu	t0,s1,-1
9d007414:	00002821 	move	a1,zero
9d007418:	00001021 	move	v0,zero
9d00741c:	00001821 	move	v1,zero
9d007420:	3c079d01 	lui	a3,0x9d01
9d007424:	24e79b9d 	addiu	a3,a3,-25699
9d007428:	240e0061 	li	t6,97
9d00742c:	240d0041 	li	t5,65
9d007430:	3c187fff 	lui	t8,0x7fff
9d007434:	3718ffff 	ori	t8,t8,0xffff
9d007438:	1200002c 	beqz	s0,9d0074ec <strtoll+0x190>
9d00743c:	25080001 	addiu	t0,t0,1
9d007440:	02074821 	addu	t1,s0,a3
9d007444:	91290000 	lbu	t1,0(t1)
9d007448:	312a0004 	andi	t2,t1,0x4
9d00744c:	11400041 	beqz	t2,9d007554 <strtoll+0x1f8>
9d007450:	31260003 	andi	a2,t1,0x3
9d007454:	2610ffd0 	addiu	s0,s0,-48
9d007458:	06000024 	bltz	s0,9d0074ec <strtoll+0x190>
9d00745c:	0212482a 	slt	t1,s0,s2
9d007460:	11200022 	beqz	t1,9d0074ec <strtoll+0x190>
9d007464:	0163482a 	slt	t1,t3,v1
9d007468:	55200037 	bnezl	t1,9d007548 <strtoll+0x1ec>
9d00746c:	24050001 	li	a1,1
9d007470:	146b0003 	bne	v1,t3,9d007480 <strtoll+0x124>
9d007474:	01e2202b 	sltu	a0,t7,v0
9d007478:	54800033 	bnezl	a0,9d007548 <strtoll+0x1ec>
9d00747c:	24050001 	li	a1,1
9d007480:	14a00030 	bnez	a1,9d007544 <strtoll+0x1e8>
9d007484:	02a20018 	mult	s5,v0
9d007488:	001027c3 	sra	a0,s0,0x1f
9d00748c:	71830000 	madd	t4,v1
9d007490:	00003012 	mflo	a2
9d007494:	004c0019 	multu	v0,t4
9d007498:	00001012 	mflo	v0
9d00749c:	00001810 	mfhi	v1
9d0074a0:	00c31821 	addu	v1,a2,v1
9d0074a4:	03033023 	subu	a2,t8,v1
9d0074a8:	00c4482a 	slt	t1,a2,a0
9d0074ac:	15200025 	bnez	t1,9d007544 <strtoll+0x1e8>
9d0074b0:	00025027 	nor	t2,zero,v0
9d0074b4:	54860005 	bnel	a0,a2,9d0074cc <strtoll+0x170>
9d0074b8:	02028021 	addu	s0,s0,v0
9d0074bc:	0150502b 	sltu	t2,t2,s0
9d0074c0:	55400021 	bnezl	t2,9d007548 <strtoll+0x1ec>
9d0074c4:	24050001 	li	a1,1
9d0074c8:	02028021 	addu	s0,s0,v0
9d0074cc:	0202302b 	sltu	a2,s0,v0
9d0074d0:	00642021 	addu	a0,v1,a0
9d0074d4:	02001021 	move	v0,s0
9d0074d8:	00c41821 	addu	v1,a2,a0
9d0074dc:	81100001 	lb	s0,1(t0)
9d0074e0:	24040001 	li	a0,1
9d0074e4:	1600ffd6 	bnez	s0,9d007440 <strtoll+0xe4>
9d0074e8:	25080001 	addiu	t0,t0,1
9d0074ec:	12c0002d 	beqz	s6,9d0075a4 <strtoll+0x248>
9d0074f0:	00000000 	nop
9d0074f4:	54a0003b 	bnezl	a1,9d0075e4 <strtoll+0x288>
9d0074f8:	24030022 	li	v1,34
9d0074fc:	00023823 	negu	a3,v0
9d007500:	0007282b 	sltu	a1,zero,a3
9d007504:	00033023 	negu	a2,v1
9d007508:	00e01021 	move	v0,a3
9d00750c:	00c51823 	subu	v1,a2,a1
9d007510:	12800002 	beqz	s4,9d00751c <strtoll+0x1c0>
9d007514:	0264400a 	movz	t0,s3,a0
9d007518:	ae880000 	sw	t0,0(s4)
9d00751c:	8fbf002c 	lw	ra,44(sp)
9d007520:	8fb60028 	lw	s6,40(sp)
9d007524:	8fb50024 	lw	s5,36(sp)
9d007528:	8fb40020 	lw	s4,32(sp)
9d00752c:	8fb3001c 	lw	s3,28(sp)
9d007530:	8fb20018 	lw	s2,24(sp)
9d007534:	8fb10014 	lw	s1,20(sp)
9d007538:	8fb00010 	lw	s0,16(sp)
9d00753c:	03e00008 	jr	ra
9d007540:	27bd0030 	addiu	sp,sp,48
9d007544:	24050001 	li	a1,1
9d007548:	81100001 	lb	s0,1(t0)
9d00754c:	0b401d39 	j	9d0074e4 <strtoll+0x188>
9d007550:	24040001 	li	a0,1
9d007554:	10c0ffe5 	beqz	a2,9d0074ec <strtoll+0x190>
9d007558:	31290001 	andi	t1,t1,0x1
9d00755c:	01a03021 	move	a2,t5
9d007560:	01c9300a 	movz	a2,t6,t1
9d007564:	02068023 	subu	s0,s0,a2
9d007568:	0b401d16 	j	9d007458 <strtoll+0xfc>
9d00756c:	2610000a 	addiu	s0,s0,10
9d007570:	12420026 	beq	s2,v0,9d00760c <strtoll+0x2b0>
9d007574:	0012afc3 	sra	s5,s2,0x1f
9d007578:	2404ffff 	li	a0,-1
9d00757c:	3c057fff 	lui	a1,0x7fff
9d007580:	34a5ffff 	ori	a1,a1,0xffff
9d007584:	02403021 	move	a2,s2
9d007588:	0f401666 	jal	9d005998 <__divdi3>
9d00758c:	02a03821 	move	a3,s5
9d007590:	02406021 	move	t4,s2
9d007594:	00407821 	move	t7,v0
9d007598:	00605821 	move	t3,v1
9d00759c:	0b401d04 	j	9d007410 <strtoll+0xb4>
9d0075a0:	00002021 	move	a0,zero
9d0075a4:	10a0ffda 	beqz	a1,9d007510 <strtoll+0x1b4>
9d0075a8:	00000000 	nop
9d0075ac:	24030022 	li	v1,34
9d0075b0:	3c02a000 	lui	v0,0xa000
9d0075b4:	ac430030 	sw	v1,48(v0)
9d0075b8:	2402ffff 	li	v0,-1
9d0075bc:	3c037fff 	lui	v1,0x7fff
9d0075c0:	0b401d44 	j	9d007510 <strtoll+0x1b4>
9d0075c4:	3463ffff 	ori	v1,v1,0xffff
9d0075c8:	5443000b 	bnel	v0,v1,9d0075f8 <strtoll+0x29c>
9d0075cc:	2403002d 	li	v1,45
9d0075d0:	3842002d 	xori	v0,v0,0x2d
9d0075d4:	82300001 	lb	s0,1(s1)
9d0075d8:	2c560001 	sltiu	s6,v0,1
9d0075dc:	0b401cf8 	j	9d0073e0 <strtoll+0x84>
9d0075e0:	26310001 	addiu	s1,s1,1
9d0075e4:	3c02a000 	lui	v0,0xa000
9d0075e8:	ac430030 	sw	v1,48(v0)
9d0075ec:	00001021 	move	v0,zero
9d0075f0:	0b401d44 	j	9d007510 <strtoll+0x1b4>
9d0075f4:	3c038000 	lui	v1,0x8000
9d0075f8:	5043fff6 	beql	v0,v1,9d0075d4 <strtoll+0x278>
9d0075fc:	3842002d 	xori	v0,v0,0x2d
9d007600:	82300000 	lb	s0,0(s1)
9d007604:	0b401cf8 	j	9d0073e0 <strtoll+0x84>
9d007608:	0000b021 	move	s6,zero
9d00760c:	24020030 	li	v0,48
9d007610:	12020023 	beq	s0,v0,9d0076a0 <strtoll+0x344>
9d007614:	240fffff 	li	t7,-1
9d007618:	3c0b07ff 	lui	t3,0x7ff
9d00761c:	356bffff 	ori	t3,t3,0xffff
9d007620:	240c0010 	li	t4,16
9d007624:	0000a821 	move	s5,zero
9d007628:	0b401d04 	j	9d007410 <strtoll+0xb4>
9d00762c:	00002021 	move	a0,zero
9d007630:	82300001 	lb	s0,1(s1)
9d007634:	2402ffdf 	li	v0,-33
9d007638:	02021824 	and	v1,s0,v0
9d00763c:	24020058 	li	v0,88
9d007640:	5062000a 	beql	v1,v0,9d00766c <strtoll+0x310>
9d007644:	82300002 	lb	s0,2(s1)
9d007648:	26310001 	addiu	s1,s1,1
9d00764c:	240fffff 	li	t7,-1
9d007650:	3c0b0fff 	lui	t3,0xfff
9d007654:	356bffff 	ori	t3,t3,0xffff
9d007658:	240c0008 	li	t4,8
9d00765c:	0000a821 	move	s5,zero
9d007660:	24040001 	li	a0,1
9d007664:	0b401d04 	j	9d007410 <strtoll+0xb4>
9d007668:	24120008 	li	s2,8
9d00766c:	240fffff 	li	t7,-1
9d007670:	26310002 	addiu	s1,s1,2
9d007674:	3c0b07ff 	lui	t3,0x7ff
9d007678:	356bffff 	ori	t3,t3,0xffff
9d00767c:	240c0010 	li	t4,16
9d007680:	0000a821 	move	s5,zero
9d007684:	24040001 	li	a0,1
9d007688:	0b401d04 	j	9d007410 <strtoll+0xb4>
9d00768c:	24120010 	li	s2,16
9d007690:	00008021 	move	s0,zero
9d007694:	00808821 	move	s1,a0
9d007698:	0b401cf8 	j	9d0073e0 <strtoll+0x84>
9d00769c:	0000b021 	move	s6,zero
9d0076a0:	82300001 	lb	s0,1(s1)
9d0076a4:	2406ffdf 	li	a2,-33
9d0076a8:	02061824 	and	v1,s0,a2
9d0076ac:	24020058 	li	v0,88
9d0076b0:	50620009 	beql	v1,v0,9d0076d8 <strtoll+0x37c>
9d0076b4:	82300002 	lb	s0,2(s1)
9d0076b8:	26310001 	addiu	s1,s1,1
9d0076bc:	240fffff 	li	t7,-1
9d0076c0:	3c0b07ff 	lui	t3,0x7ff
9d0076c4:	356bffff 	ori	t3,t3,0xffff
9d0076c8:	240c0010 	li	t4,16
9d0076cc:	0000a821 	move	s5,zero
9d0076d0:	0b401d04 	j	9d007410 <strtoll+0xb4>
9d0076d4:	24040001 	li	a0,1
9d0076d8:	240fffff 	li	t7,-1
9d0076dc:	0b401db0 	j	9d0076c0 <strtoll+0x364>
9d0076e0:	26310002 	addiu	s1,s1,2

Disassembly of section .text.__strtof:

9d0076e4 <__strtof>:
9d0076e4:	27bdffc8 	addiu	sp,sp,-56

9d0076e8 <.LCFI0>:
9d0076e8:	afbf0034 	sw	ra,52(sp)
9d0076ec:	afb70030 	sw	s7,48(sp)
9d0076f0:	afb6002c 	sw	s6,44(sp)
9d0076f4:	afb50028 	sw	s5,40(sp)
9d0076f8:	afb40024 	sw	s4,36(sp)
9d0076fc:	afb30020 	sw	s3,32(sp)
9d007700:	afb2001c 	sw	s2,28(sp)
9d007704:	afb10018 	sw	s1,24(sp)
9d007708:	afb00014 	sw	s0,20(sp)
9d00770c:	0080a821 	move	s5,a0
9d007710:	80820000 	lb	v0,0(a0)
9d007714:	3c139d01 	lui	s3,0x9d01
9d007718:	26739b9d 	addiu	s3,s3,-25699
9d00771c:	02621821 	addu	v1,s3,v0
9d007720:	80630000 	lb	v1,0(v1)
9d007724:	00a0b021 	move	s6,a1
9d007728:	30630088 	andi	v1,v1,0x88
9d00772c:	10600008 	beqz	v1,9d007750 <.LCFI0+0x68>
9d007730:	00808021 	move	s0,a0
9d007734:	26100001 	addiu	s0,s0,1
9d007738:	82020000 	lb	v0,0(s0)
9d00773c:	02621821 	addu	v1,s3,v0
9d007740:	80630000 	lb	v1,0(v1)
9d007744:	30630088 	andi	v1,v1,0x88
9d007748:	5460fffb 	bnezl	v1,9d007738 <.LCFI0+0x50>
9d00774c:	26100001 	addiu	s0,s0,1
9d007750:	2403002d 	li	v1,45
9d007754:	10430081 	beq	v0,v1,9d00795c <.LCFI0+0x274>
9d007758:	3842002b 	xori	v0,v0,0x2b
9d00775c:	2c420001 	sltiu	v0,v0,1
9d007760:	0000b821 	move	s7,zero
9d007764:	02028021 	addu	s0,s0,v0
9d007768:	82030000 	lb	v1,0(s0)
9d00776c:	02631021 	addu	v0,s3,v1
9d007770:	90420000 	lbu	v0,0(v0)
9d007774:	30420004 	andi	v0,v0,0x4
9d007778:	104000a5 	beqz	v0,9d007a10 <.LCFI0+0x328>
9d00777c:	00008821 	move	s1,zero
9d007780:	0000a021 	move	s4,zero
9d007784:	2472ffd0 	addiu	s2,v1,-48
9d007788:	02202021 	move	a0,s1
9d00778c:	0f402437 	jal	9d0090dc <.LFE9>
9d007790:	3c054120 	lui	a1,0x4120
9d007794:	00408821 	move	s1,v0
9d007798:	0f402c1c 	jal	9d00b070 <__floatsisf>
9d00779c:	02402021 	move	a0,s2
9d0077a0:	02202021 	move	a0,s1
9d0077a4:	00402821 	move	a1,v0
9d0077a8:	0f40229e 	jal	9d008a78 <__addsf3>
9d0077ac:	26100001 	addiu	s0,s0,1
9d0077b0:	00408821 	move	s1,v0
9d0077b4:	82030000 	lb	v1,0(s0)
9d0077b8:	02631021 	addu	v0,s3,v1
9d0077bc:	90420000 	lbu	v0,0(v0)
9d0077c0:	30420004 	andi	v0,v0,0x4
9d0077c4:	1440ffef 	bnez	v0,9d007784 <.LCFI0+0x9c>
9d0077c8:	0292a025 	or	s4,s4,s2
9d0077cc:	24040001 	li	a0,1
9d0077d0:	2402002e 	li	v0,46
9d0077d4:	5062003e 	beql	v1,v0,9d0078d0 <.LCFI0+0x1e8>
9d0077d8:	82020001 	lb	v0,1(s0)
9d0077dc:	54800062 	bnezl	a0,9d007968 <.LCFI0+0x280>
9d0077e0:	82020000 	lb	v0,0(s0)
9d0077e4:	12c00024 	beqz	s6,9d007878 <.LCFI0+0x190>
9d0077e8:	00111840 	sll	v1,s1,0x1
9d0077ec:	02a08021 	move	s0,s5
9d0077f0:	00009021 	move	s2,zero
9d0077f4:	aed00000 	sw	s0,0(s6)
9d0077f8:	1240001f 	beqz	s2,9d007878 <.LCFI0+0x190>
9d0077fc:	00111840 	sll	v1,s1,0x1
9d007800:	001217c3 	sra	v0,s2,0x1f
9d007804:	0052a826 	xor	s5,v0,s2
9d007808:	02a2a823 	subu	s5,s5,v0
9d00780c:	3c139d01 	lui	s3,0x9d01
9d007810:	2673b714 	addiu	s3,s3,-18668
9d007814:	24100006 	li	s0,6
9d007818:	0b401e0a 	j	9d007828 <.LCFI0+0x140>
9d00781c:	3c023f80 	lui	v0,0x3f80
9d007820:	1200000b 	beqz	s0,9d007850 <.LCFI0+0x168>
9d007824:	2673fffc 	addiu	s3,s3,-4
9d007828:	2610ffff 	addiu	s0,s0,-1
9d00782c:	02151807 	srav	v1,s5,s0
9d007830:	30630001 	andi	v1,v1,0x1
9d007834:	1060fffa 	beqz	v1,9d007820 <.LCFI0+0x138>
9d007838:	00000000 	nop
9d00783c:	8e650000 	lw	a1,0(s3)
9d007840:	0f402437 	jal	9d0090dc <.LFE9>
9d007844:	00402021 	move	a0,v0
9d007848:	1600fff7 	bnez	s0,9d007828 <.LCFI0+0x140>
9d00784c:	2673fffc 	addiu	s3,s3,-4
9d007850:	02202021 	move	a0,s1
9d007854:	0640006a 	bltz	s2,9d007a00 <.LCFI0+0x318>
9d007858:	00402821 	move	a1,v0
9d00785c:	0f402437 	jal	9d0090dc <.LFE9>
9d007860:	00000000 	nop
9d007864:	00402021 	move	a0,v0
9d007868:	0f402769 	jal	9d009da4 <__ldexpf>
9d00786c:	02402821 	move	a1,s2
9d007870:	00408821 	move	s1,v0
9d007874:	00111840 	sll	v1,s1,0x1
9d007878:	3c02ff00 	lui	v0,0xff00
9d00787c:	5062006c 	beql	v1,v0,9d007a30 <.LCFI0+0x348>
9d007880:	24030022 	li	v1,34
9d007884:	12200068 	beqz	s1,9d007a28 <.LCFI0+0x340>
9d007888:	00000000 	nop
9d00788c:	12e00005 	beqz	s7,9d0078a4 <.LCFI0+0x1bc>
9d007890:	02201021 	move	v0,s1
9d007894:	0f402dda 	jal	9d00b768 <__negsf2>
9d007898:	02202021 	move	a0,s1
9d00789c:	00408821 	move	s1,v0
9d0078a0:	02201021 	move	v0,s1
9d0078a4:	8fbf0034 	lw	ra,52(sp)
9d0078a8:	8fb70030 	lw	s7,48(sp)
9d0078ac:	8fb6002c 	lw	s6,44(sp)
9d0078b0:	8fb50028 	lw	s5,40(sp)
9d0078b4:	8fb40024 	lw	s4,36(sp)
9d0078b8:	8fb30020 	lw	s3,32(sp)
9d0078bc:	8fb2001c 	lw	s2,28(sp)
9d0078c0:	8fb10018 	lw	s1,24(sp)
9d0078c4:	8fb00014 	lw	s0,20(sp)
9d0078c8:	03e00008 	jr	ra
9d0078cc:	27bd0038 	addiu	sp,sp,56
9d0078d0:	02621821 	addu	v1,s3,v0
9d0078d4:	90630000 	lbu	v1,0(v1)
9d0078d8:	30630004 	andi	v1,v1,0x4
9d0078dc:	1060ffbf 	beqz	v1,9d0077dc <.LCFI0+0xf4>
9d0078e0:	26100001 	addiu	s0,s0,1
9d0078e4:	00009021 	move	s2,zero
9d0078e8:	2455ffd0 	addiu	s5,v0,-48
9d0078ec:	02202021 	move	a0,s1
9d0078f0:	0f402437 	jal	9d0090dc <.LFE9>
9d0078f4:	3c054120 	lui	a1,0x4120
9d0078f8:	00408821 	move	s1,v0
9d0078fc:	0f402c1c 	jal	9d00b070 <__floatsisf>
9d007900:	02a02021 	move	a0,s5
9d007904:	02202021 	move	a0,s1
9d007908:	00402821 	move	a1,v0
9d00790c:	0f40229e 	jal	9d008a78 <__addsf3>
9d007910:	26100001 	addiu	s0,s0,1
9d007914:	00408821 	move	s1,v0
9d007918:	82020000 	lb	v0,0(s0)
9d00791c:	0295a025 	or	s4,s4,s5
9d007920:	02621821 	addu	v1,s3,v0
9d007924:	90630000 	lbu	v1,0(v1)
9d007928:	30630004 	andi	v1,v1,0x4
9d00792c:	1460ffee 	bnez	v1,9d0078e8 <.LCFI0+0x200>
9d007930:	2652ffff 	addiu	s2,s2,-1
9d007934:	2404ffdf 	li	a0,-33
9d007938:	00441824 	and	v1,v0,a0
9d00793c:	7c031c20 	seb	v1,v1
9d007940:	24020045 	li	v0,69
9d007944:	5062000f 	beql	v1,v0,9d007984 <.LCFI0+0x29c>
9d007948:	82030001 	lb	v1,1(s0)
9d00794c:	56c0ffaa 	bnezl	s6,9d0077f8 <.LCFI0+0x110>
9d007950:	aed00000 	sw	s0,0(s6)
9d007954:	0b401dfe 	j	9d0077f8 <.LCFI0+0x110>
9d007958:	00000000 	nop
9d00795c:	26100001 	addiu	s0,s0,1
9d007960:	0b401dda 	j	9d007768 <.LCFI0+0x80>
9d007964:	24170001 	li	s7,1
9d007968:	2404ffdf 	li	a0,-33
9d00796c:	00441824 	and	v1,v0,a0
9d007970:	7c031c20 	seb	v1,v1
9d007974:	24020045 	li	v0,69
9d007978:	1462fff4 	bne	v1,v0,9d00794c <.LCFI0+0x264>
9d00797c:	00009021 	move	s2,zero
9d007980:	82030001 	lb	v1,1(s0)
9d007984:	2402002d 	li	v0,45
9d007988:	10620019 	beq	v1,v0,9d0079f0 <.LCFI0+0x308>
9d00798c:	2402002b 	li	v0,43
9d007990:	50620022 	beql	v1,v0,9d007a1c <.LCFI0+0x334>
9d007994:	82030002 	lb	v1,2(s0)
9d007998:	26100001 	addiu	s0,s0,1
9d00799c:	00003821 	move	a3,zero
9d0079a0:	02631021 	addu	v0,s3,v1
9d0079a4:	90420000 	lbu	v0,0(v0)
9d0079a8:	30420004 	andi	v0,v0,0x4
9d0079ac:	1040000c 	beqz	v0,9d0079e0 <.LCFI0+0x2f8>
9d0079b0:	00001021 	move	v0,zero
9d0079b4:	26100001 	addiu	s0,s0,1
9d0079b8:	2465ffd0 	addiu	a1,v1,-48
9d0079bc:	82030000 	lb	v1,0(s0)
9d0079c0:	00023040 	sll	a2,v0,0x1
9d0079c4:	000210c0 	sll	v0,v0,0x3
9d0079c8:	02632021 	addu	a0,s3,v1
9d0079cc:	90840000 	lbu	a0,0(a0)
9d0079d0:	00c21021 	addu	v0,a2,v0
9d0079d4:	30840004 	andi	a0,a0,0x4
9d0079d8:	1480fff6 	bnez	a0,9d0079b4 <.LCFI0+0x2cc>
9d0079dc:	00451021 	addu	v0,v0,a1
9d0079e0:	00021823 	negu	v1,v0
9d0079e4:	0067100b 	movn	v0,v1,a3
9d0079e8:	0b401e53 	j	9d00794c <.LCFI0+0x264>
9d0079ec:	02429021 	addu	s2,s2,v0
9d0079f0:	82030002 	lb	v1,2(s0)
9d0079f4:	24070001 	li	a3,1
9d0079f8:	0b401e68 	j	9d0079a0 <.LCFI0+0x2b8>
9d0079fc:	26100002 	addiu	s0,s0,2
9d007a00:	0f40233a 	jal	9d008ce8 <__divsf3>
9d007a04:	00000000 	nop
9d007a08:	0b401e1a 	j	9d007868 <.LCFI0+0x180>
9d007a0c:	00402021 	move	a0,v0
9d007a10:	00002021 	move	a0,zero
9d007a14:	0b401df4 	j	9d0077d0 <.LCFI0+0xe8>
9d007a18:	0000a021 	move	s4,zero
9d007a1c:	00003821 	move	a3,zero
9d007a20:	0b401e68 	j	9d0079a0 <.LCFI0+0x2b8>
9d007a24:	26100002 	addiu	s0,s0,2
9d007a28:	1280ff98 	beqz	s4,9d00788c <.LCFI0+0x1a4>
9d007a2c:	24030022 	li	v1,34
9d007a30:	3c02a000 	lui	v0,0xa000
9d007a34:	0b401e23 	j	9d00788c <.LCFI0+0x1a4>
9d007a38:	ac430030 	sw	v1,48(v0)

Disassembly of section .text.dp32mul:

9d007a3c <__muldf3>:
9d007a3c:	00055040 000a5542 00054ac0 00047d42     @P..BU...J..B}..
9d007a4c:	012f4825 000442c0 3c0e8000 012e4825     %H/..B.....<%H..
9d007a5c:	00076840 000d6d42 000762c0 00067d42     @h..Bm...b..B}..
9d007a6c:	018f6025 00065ac0 018e6025 00a72826     %`...Z..%`..&(..
9d007a7c:	00ae2824 254fffff 2de107fe 10200047     $(....O%...-G. .
9d007a8c:	00000000                                ....

9d007a90 <Clab1>:
9d007a90:	25afffff 	addiu	t7,t5,-1
9d007a94:	2de107fe 	sltiu	at,t7,2046
9d007a98:	1020006f 	beqz	at,9d007c58 <CspecB>
9d007a9c:	00000000 	nop

9d007aa0 <Clab2>:
9d007aa0:	25affc02 	addiu	t7,t5,-1022
9d007aa4:	014f5021 	addu	t2,t2,t7
9d007aa8:	012c0019 	multu	t1,t4
9d007aac:	00003812 	mflo	a3
9d007ab0:	00007010 	mfhi	t6
9d007ab4:	010b0019 	multu	t0,t3
9d007ab8:	00002012 	mflo	a0
9d007abc:	00003010 	mfhi	a2
9d007ac0:	012b0019 	multu	t1,t3
9d007ac4:	00005812 	mflo	t3
9d007ac8:	00006810 	mfhi	t5
9d007acc:	00cb3021 	addu	a2,a2,t3
9d007ad0:	00cb782b 	sltu	t7,a2,t3
9d007ad4:	00ed3821 	addu	a3,a3,t5
9d007ad8:	00ef3821 	addu	a3,a3,t7
9d007adc:	10ed0002 	beq	a3,t5,9d007ae8 <L20>
9d007ae0:	00000000 	nop
9d007ae4:	00ed782b 	sltu	t7,a3,t5

9d007ae8 <L20>:
9d007ae8:	01cf7021 	addu	t6,t6,t7
9d007aec:	010c0019 	multu	t0,t4
9d007af0:	00004012 	mflo	t0
9d007af4:	00004810 	mfhi	t1
9d007af8:	00c83021 	addu	a2,a2,t0
9d007afc:	00c8782b 	sltu	t7,a2,t0
9d007b00:	00e93821 	addu	a3,a3,t1
9d007b04:	00ef3821 	addu	a3,a3,t7
9d007b08:	10e90002 	beq	a3,t1,9d007b14 <L21>
9d007b0c:	00000000 	nop
9d007b10:	00e9782b 	sltu	t7,a3,t1

9d007b14 <L21>:
9d007b14:	01cf7021 	addu	t6,t6,t7
9d007b18:	00867825 	or	t7,a0,a2
9d007b1c:	11e00002 	beqz	t7,9d007b28 <i13>
9d007b20:	00000000 	nop
9d007b24:	34e70001 	ori	a3,a3,0x1

9d007b28 <i13>:
9d007b28:	000e4825 	or	t1,zero,t6
9d007b2c:	05200006 	bltz	t1,9d007b48 <i14>
9d007b30:	00074025 	or	t0,zero,a3
9d007b34:	0100782a 	slt	t7,t0,zero
9d007b38:	01084021 	addu	t0,t0,t0
9d007b3c:	01294821 	addu	t1,t1,t1
9d007b40:	012f4821 	addu	t1,t1,t7
9d007b44:	254affff 	addiu	t2,t2,-1

9d007b48 <i14>:
9d007b48:	254fffff 	addiu	t7,t2,-1
9d007b4c:	2de107fe 	sltiu	at,t7,2046
9d007b50:	10200068 	beqz	at,9d007cf4 <Coveund>
9d007b54:	00000000 	nop
9d007b58:	25080400 	addiu	t0,t0,1024
9d007b5c:	2d0f0400 	sltiu	t7,t0,1024
9d007b60:	012f4821 	addu	t1,t1,t7
9d007b64:	012f782b 	sltu	t7,t1,t7
9d007b68:	014f5021 	addu	t2,t2,t7

9d007b6c <Clab8>:
9d007b6c:	00087ac2 	srl	t7,t0,0xb
9d007b70:	31ef0001 	andi	t7,t7,0x1
9d007b74:	010f4023 	subu	t0,t0,t7
9d007b78:	000822c2 	srl	a0,t0,0xb
9d007b7c:	00097d40 	sll	t7,t1,0x15
9d007b80:	008f2025 	or	a0,a0,t7
9d007b84:	00097840 	sll	t7,t1,0x1
9d007b88:	000f7b02 	srl	t7,t7,0xc
9d007b8c:	00af2825 	or	a1,a1,t7
9d007b90:	000a7d00 	sll	t7,t2,0x14
9d007b94:	00af2825 	or	a1,a1,t7

9d007b98 <Cret>:
9d007b98:	00041025 	or	v0,zero,a0
9d007b9c:	00051825 	or	v1,zero,a1

9d007ba0 <C999>:
9d007ba0:	03e00008 	jr	ra
9d007ba4:	00000000 	nop

9d007ba8 <CspecA>:
9d007ba8:	0100782a 	slt	t7,t0,zero
9d007bac:	01084021 	addu	t0,t0,t0
9d007bb0:	01294821 	addu	t1,t1,t1
9d007bb4:	1540001c 	bnez	t2,9d007c28 <i15>
9d007bb8:	012f4821 	addu	t1,t1,t7
9d007bbc:	01287825 	or	t7,t1,t0
9d007bc0:	11e00014 	beqz	t7,9d007c14 <i16>
9d007bc4:	00000000 	nop
9d007bc8:	15200008 	bnez	t1,9d007bec <L22>
9d007bcc:	00000000 	nop
9d007bd0:	15000003 	bnez	t0,9d007be0 <L23>
9d007bd4:	00000000 	nop
9d007bd8:	1000ffad 	b	9d007a90 <Clab1>
9d007bdc:	240a0000 	li	t2,0

9d007be0 <L23>:
9d007be0:	01004825 	move	t1,t0
9d007be4:	24080000 	li	t0,0
9d007be8:	254affe0 	addiu	t2,t2,-32

9d007bec <L22>:
9d007bec:	712e7020 	clz	t6,t1
9d007bf0:	11c0ffa7 	beqz	t6,9d007a90 <Clab1>
9d007bf4:	00000000 	nop
9d007bf8:	014e5023 	subu	t2,t2,t6
9d007bfc:	000e3822 	neg	a3,t6
9d007c00:	00e83806 	srlv	a3,t0,a3
9d007c04:	01c84004 	sllv	t0,t0,t6
9d007c08:	01c94804 	sllv	t1,t1,t6
9d007c0c:	1000ffa0 	b	9d007a90 <Clab1>
9d007c10:	01274825 	or	t1,t1,a3

9d007c14 <i16>:
9d007c14:	240107ff 	li	at,2047
9d007c18:	11a10033 	beq	t5,at,9d007ce8 <Cnan>
9d007c1c:	00000000 	nop
9d007c20:	1000ffdd 	b	9d007b98 <Cret>
9d007c24:	00000000 	nop

9d007c28 <i15>:
9d007c28:	01287825 	or	t7,t1,t0
9d007c2c:	15e0002e 	bnez	t7,9d007ce8 <Cnan>
9d007c30:	00000000 	nop
9d007c34:	15a00005 	bnez	t5,9d007c4c <i17>
9d007c38:	00000000 	nop
9d007c3c:	000c7840 	sll	t7,t4,0x1
9d007c40:	01eb7825 	or	t7,t7,t3
9d007c44:	11e00028 	beqz	t7,9d007ce8 <Cnan>
9d007c48:	00000000 	nop

9d007c4c <i17>:
9d007c4c:	240107ff 	li	at,2047
9d007c50:	15a10021 	bne	t5,at,9d007cd8 <Cinf>
9d007c54:	00000000 	nop

9d007c58 <CspecB>:
9d007c58:	0160782a 	slt	t7,t3,zero
9d007c5c:	016b5821 	addu	t3,t3,t3
9d007c60:	018c6021 	addu	t4,t4,t4
9d007c64:	15a00019 	bnez	t5,9d007ccc <i18>
9d007c68:	018f6021 	addu	t4,t4,t7
9d007c6c:	018b7825 	or	t7,t4,t3
9d007c70:	11e00014 	beqz	t7,9d007cc4 <i19>
9d007c74:	00000000 	nop
9d007c78:	15800008 	bnez	t4,9d007c9c <L25>
9d007c7c:	00000000 	nop
9d007c80:	15600003 	bnez	t3,9d007c90 <L26>
9d007c84:	00000000 	nop
9d007c88:	1000ff85 	b	9d007aa0 <Clab2>
9d007c8c:	240d0000 	li	t5,0

9d007c90 <L26>:
9d007c90:	01606025 	move	t4,t3
9d007c94:	240b0000 	li	t3,0
9d007c98:	25adffe0 	addiu	t5,t5,-32

9d007c9c <L25>:
9d007c9c:	71863020 	clz	a2,t4
9d007ca0:	10c0ff7f 	beqz	a2,9d007aa0 <Clab2>
9d007ca4:	00000000 	nop
9d007ca8:	01a66823 	subu	t5,t5,a2
9d007cac:	00067022 	neg	t6,a2
9d007cb0:	01cb7006 	srlv	t6,t3,t6
9d007cb4:	00cb5804 	sllv	t3,t3,a2
9d007cb8:	00cc6004 	sllv	t4,t4,a2
9d007cbc:	1000ff78 	b	9d007aa0 <Clab2>
9d007cc0:	018e6025 	or	t4,t4,t6

9d007cc4 <i19>:
9d007cc4:	1000ffb4 	b	9d007b98 <Cret>
9d007cc8:	24040000 	li	a0,0

9d007ccc <i18>:
9d007ccc:	018b7825 	or	t7,t4,t3
9d007cd0:	15e00005 	bnez	t7,9d007ce8 <Cnan>
9d007cd4:	00000000 	nop

9d007cd8 <Cinf>:
9d007cd8:	3c017ff0 	lui	at,0x7ff0
9d007cdc:	00a12825 	or	a1,a1,at
9d007ce0:	1000ffad 	b	9d007b98 <Cret>
9d007ce4:	24040000 	li	a0,0

9d007ce8 <Cnan>:
9d007ce8:	3c05fff8 	lui	a1,0xfff8
9d007cec:	1000ffaa 	b	9d007b98 <Cret>
9d007cf0:	24040000 	li	a0,0

9d007cf4 <Coveund>:
9d007cf4:	1d40fff8 	bgtz	t2,9d007cd8 <Cinf>
9d007cf8:	00000000 	nop
9d007cfc:	240e0001 	li	t6,1
9d007d00:	01ca7023 	subu	t6,t6,t2

9d007d04 <L28>:
9d007d04:	2dc10020 	sltiu	at,t6,32
9d007d08:	14200007 	bnez	at,9d007d28 <L29>
9d007d0c:	00000000 	nop
9d007d10:	21ceffe0 	addi	t6,t6,-32
9d007d14:	0008302b 	sltu	a2,zero,t0
9d007d18:	1009000d 	beq	zero,t1,9d007d50 <L30>
9d007d1c:	01264025 	or	t0,t1,a2
9d007d20:	1000fff8 	b	9d007d04 <L28>
9d007d24:	34090000 	li	t1,0x0

9d007d28 <L29>:
9d007d28:	11c00009 	beqz	t6,9d007d50 <L30>
9d007d2c:	00000000 	nop
9d007d30:	000e3822 	neg	a3,t6
9d007d34:	00e83004 	sllv	a2,t0,a3
9d007d38:	00e93804 	sllv	a3,t1,a3
9d007d3c:	01c84006 	srlv	t0,t0,t6
9d007d40:	01c94806 	srlv	t1,t1,t6
9d007d44:	10c00002 	beqz	a2,9d007d50 <L30>
9d007d48:	00e84025 	or	t0,a3,t0
9d007d4c:	35080002 	ori	t0,t0,0x2

9d007d50 <L30>:
9d007d50:	25080400 	addiu	t0,t0,1024
9d007d54:	2d0f0400 	sltiu	t7,t0,1024
9d007d58:	012f4821 	addu	t1,t1,t7
9d007d5c:	1000ff83 	b	9d007b6c <Clab8>
9d007d60:	000957c2 	srl	t2,t1,0x1f
9d007d64:	00000000 	nop

Disassembly of section .text.strtoull:

9d007d68 <strtoull>:
9d007d68:	27bdffd0 	addiu	sp,sp,-48
9d007d6c:	afbf002c 	sw	ra,44(sp)
9d007d70:	afb50028 	sw	s5,40(sp)
9d007d74:	afb40024 	sw	s4,36(sp)
9d007d78:	afb30020 	sw	s3,32(sp)
9d007d7c:	afb2001c 	sw	s2,28(sp)
9d007d80:	afb10018 	sw	s1,24(sp)
9d007d84:	afb00014 	sw	s0,20(sp)
9d007d88:	00808821 	move	s1,a0
9d007d8c:	80820000 	lb	v0,0(a0)
9d007d90:	00a09821 	move	s3,a1
9d007d94:	1040001f 	beqz	v0,9d007e14 <strtoull+0xac>
9d007d98:	00c09021 	move	s2,a2
9d007d9c:	3c049d01 	lui	a0,0x9d01
9d007da0:	24849b9d 	addiu	a0,a0,-25699
9d007da4:	0b401f6e 	j	9d007db8 <strtoull+0x50>
9d007da8:	00821821 	addu	v1,a0,v0
9d007dac:	82220000 	lb	v0,0(s1)
9d007db0:	10400018 	beqz	v0,9d007e14 <strtoull+0xac>
9d007db4:	00821821 	addu	v1,a0,v0
9d007db8:	80630000 	lb	v1,0(v1)
9d007dbc:	30630088 	andi	v1,v1,0x88
9d007dc0:	5460fffa 	bnezl	v1,9d007dac <strtoull+0x44>
9d007dc4:	26310001 	addiu	s1,s1,1
9d007dc8:	2403002b 	li	v1,43
9d007dcc:	14430079 	bne	v0,v1,9d007fb4 <strtoull+0x24c>
9d007dd0:	2403002d 	li	v1,45
9d007dd4:	3842002d 	xori	v0,v0,0x2d
9d007dd8:	82300001 	lb	s0,1(s1)
9d007ddc:	2c550001 	sltiu	s5,v0,1
9d007de0:	26310001 	addiu	s1,s1,1
9d007de4:	1640000f 	bnez	s2,9d007e24 <strtoull+0xbc>
9d007de8:	24020010 	li	v0,16
9d007dec:	24020030 	li	v0,48
9d007df0:	12020075 	beq	s0,v0,9d007fc8 <strtoull+0x260>
9d007df4:	3c0d9999 	lui	t5,0x9999
9d007df8:	35ad9999 	ori	t5,t5,0x9999
9d007dfc:	3c0a1999 	lui	t2,0x1999
9d007e00:	354a9999 	ori	t2,t2,0x9999
9d007e04:	240b000a 	li	t3,10
9d007e08:	0000a021 	move	s4,zero
9d007e0c:	0b401f93 	j	9d007e4c <strtoull+0xe4>
9d007e10:	2412000a 	li	s2,10
9d007e14:	00008021 	move	s0,zero
9d007e18:	1240fff4 	beqz	s2,9d007dec <strtoull+0x84>
9d007e1c:	0000a821 	move	s5,zero
9d007e20:	24020010 	li	v0,16
9d007e24:	12420076 	beq	s2,v0,9d008000 <strtoull+0x298>
9d007e28:	0012a7c3 	sra	s4,s2,0x1f
9d007e2c:	2404ffff 	li	a0,-1
9d007e30:	2405ffff 	li	a1,-1
9d007e34:	02403021 	move	a2,s2
9d007e38:	0f4018ac 	jal	9d0062b0 <.LFE1>
9d007e3c:	02803821 	move	a3,s4
9d007e40:	02405821 	move	t3,s2
9d007e44:	00406821 	move	t5,v0
9d007e48:	00605021 	move	t2,v1
9d007e4c:	2624ffff 	addiu	a0,s1,-1
9d007e50:	00002821 	move	a1,zero
9d007e54:	00001021 	move	v0,zero
9d007e58:	00001821 	move	v1,zero
9d007e5c:	3c079d01 	lui	a3,0x9d01
9d007e60:	24e79b9d 	addiu	a3,a3,-25699
9d007e64:	240e0061 	li	t6,97
9d007e68:	240c0041 	li	t4,65
9d007e6c:	1200002b 	beqz	s0,9d007f1c <strtoull+0x1b4>
9d007e70:	24840001 	addiu	a0,a0,1
9d007e74:	02074021 	addu	t0,s0,a3
9d007e78:	91080000 	lbu	t0,0(t0)
9d007e7c:	31090004 	andi	t1,t0,0x4
9d007e80:	1120003d 	beqz	t1,9d007f78 <strtoull+0x210>
9d007e84:	31060003 	andi	a2,t0,0x3
9d007e88:	2610ffd0 	addiu	s0,s0,-48
9d007e8c:	06000023 	bltz	s0,9d007f1c <strtoull+0x1b4>
9d007e90:	0212402a 	slt	t0,s0,s2
9d007e94:	11000021 	beqz	t0,9d007f1c <strtoull+0x1b4>
9d007e98:	0143402b 	sltu	t0,t2,v1
9d007e9c:	55000034 	bnezl	t0,9d007f70 <strtoull+0x208>
9d007ea0:	24050001 	li	a1,1
9d007ea4:	146a0003 	bne	v1,t2,9d007eb4 <strtoull+0x14c>
9d007ea8:	01a2302b 	sltu	a2,t5,v0
9d007eac:	54c00030 	bnezl	a2,9d007f70 <strtoull+0x208>
9d007eb0:	24050001 	li	a1,1
9d007eb4:	14a00016 	bnez	a1,9d007f10 <strtoull+0x1a8>
9d007eb8:	02820018 	mult	s4,v0
9d007ebc:	001047c3 	sra	t0,s0,0x1f
9d007ec0:	71630000 	madd	t3,v1
9d007ec4:	00003012 	mflo	a2
9d007ec8:	004b0019 	multu	v0,t3
9d007ecc:	00001012 	mflo	v0
9d007ed0:	00001810 	mfhi	v1
9d007ed4:	00c31821 	addu	v1,a2,v1
9d007ed8:	00033027 	nor	a2,zero,v1
9d007edc:	00c8482b 	sltu	t1,a2,t0
9d007ee0:	15200022 	bnez	t1,9d007f6c <strtoull+0x204>
9d007ee4:	00027827 	nor	t7,zero,v0
9d007ee8:	55060005 	bnel	t0,a2,9d007f00 <strtoull+0x198>
9d007eec:	02028021 	addu	s0,s0,v0
9d007ef0:	01f0782b 	sltu	t7,t7,s0
9d007ef4:	55e0001e 	bnezl	t7,9d007f70 <strtoull+0x208>
9d007ef8:	24050001 	li	a1,1
9d007efc:	02028021 	addu	s0,s0,v0
9d007f00:	0202302b 	sltu	a2,s0,v0
9d007f04:	00684021 	addu	t0,v1,t0
9d007f08:	02001021 	move	v0,s0
9d007f0c:	00c81821 	addu	v1,a2,t0
9d007f10:	80900001 	lb	s0,1(a0)
9d007f14:	1600ffd7 	bnez	s0,9d007e74 <strtoull+0x10c>
9d007f18:	24840001 	addiu	a0,a0,1
9d007f1c:	12a0001d 	beqz	s5,9d007f94 <strtoull+0x22c>
9d007f20:	00000000 	nop
9d007f24:	54a0001e 	bnezl	a1,9d007fa0 <strtoull+0x238>
9d007f28:	24030022 	li	v1,34
9d007f2c:	00023823 	negu	a3,v0
9d007f30:	0007282b 	sltu	a1,zero,a3
9d007f34:	00033023 	negu	a2,v1
9d007f38:	00e01021 	move	v0,a3
9d007f3c:	00c51823 	subu	v1,a2,a1
9d007f40:	56600001 	bnezl	s3,9d007f48 <strtoull+0x1e0>
9d007f44:	ae640000 	sw	a0,0(s3)
9d007f48:	8fbf002c 	lw	ra,44(sp)
9d007f4c:	8fb50028 	lw	s5,40(sp)
9d007f50:	8fb40024 	lw	s4,36(sp)
9d007f54:	8fb30020 	lw	s3,32(sp)
9d007f58:	8fb2001c 	lw	s2,28(sp)
9d007f5c:	8fb10018 	lw	s1,24(sp)
9d007f60:	8fb00014 	lw	s0,20(sp)
9d007f64:	03e00008 	jr	ra
9d007f68:	27bd0030 	addiu	sp,sp,48
9d007f6c:	24050001 	li	a1,1
9d007f70:	0b401fc5 	j	9d007f14 <strtoull+0x1ac>
9d007f74:	80900001 	lb	s0,1(a0)
9d007f78:	10c0ffe8 	beqz	a2,9d007f1c <strtoull+0x1b4>
9d007f7c:	31080001 	andi	t0,t0,0x1
9d007f80:	01803021 	move	a2,t4
9d007f84:	01c8300a 	movz	a2,t6,t0
9d007f88:	02068023 	subu	s0,s0,a2
9d007f8c:	0b401fa3 	j	9d007e8c <strtoull+0x124>
9d007f90:	2610000a 	addiu	s0,s0,10
9d007f94:	10a0ffea 	beqz	a1,9d007f40 <strtoull+0x1d8>
9d007f98:	00000000 	nop
9d007f9c:	24030022 	li	v1,34
9d007fa0:	3c02a000 	lui	v0,0xa000
9d007fa4:	ac430030 	sw	v1,48(v0)
9d007fa8:	2402ffff 	li	v0,-1
9d007fac:	0b401fd0 	j	9d007f40 <strtoull+0x1d8>
9d007fb0:	2403ffff 	li	v1,-1
9d007fb4:	1043ff88 	beq	v0,v1,9d007dd8 <strtoull+0x70>
9d007fb8:	3842002d 	xori	v0,v0,0x2d
9d007fbc:	82300000 	lb	s0,0(s1)
9d007fc0:	0b401f79 	j	9d007de4 <strtoull+0x7c>
9d007fc4:	0000a821 	move	s5,zero
9d007fc8:	82300001 	lb	s0,1(s1)
9d007fcc:	2402ffdf 	li	v0,-33
9d007fd0:	02021824 	and	v1,s0,v0
9d007fd4:	24020058 	li	v0,88
9d007fd8:	50620012 	beql	v1,v0,9d008024 <strtoull+0x2bc>
9d007fdc:	82300002 	lb	s0,2(s1)
9d007fe0:	26310001 	addiu	s1,s1,1
9d007fe4:	240dffff 	li	t5,-1
9d007fe8:	3c0a1fff 	lui	t2,0x1fff
9d007fec:	354affff 	ori	t2,t2,0xffff
9d007ff0:	240b0008 	li	t3,8
9d007ff4:	0000a021 	move	s4,zero
9d007ff8:	0b401f93 	j	9d007e4c <strtoull+0xe4>
9d007ffc:	24120008 	li	s2,8
9d008000:	24020030 	li	v0,48
9d008004:	5202000f 	beql	s0,v0,9d008044 <strtoull+0x2dc>
9d008008:	82300001 	lb	s0,1(s1)
9d00800c:	240dffff 	li	t5,-1
9d008010:	3c0a0fff 	lui	t2,0xfff
9d008014:	354affff 	ori	t2,t2,0xffff
9d008018:	240b0010 	li	t3,16
9d00801c:	0b401f93 	j	9d007e4c <strtoull+0xe4>
9d008020:	0000a021 	move	s4,zero
9d008024:	240dffff 	li	t5,-1
9d008028:	26310002 	addiu	s1,s1,2
9d00802c:	3c0a0fff 	lui	t2,0xfff
9d008030:	354affff 	ori	t2,t2,0xffff
9d008034:	240b0010 	li	t3,16
9d008038:	0000a021 	move	s4,zero
9d00803c:	0b401f93 	j	9d007e4c <strtoull+0xe4>
9d008040:	24120010 	li	s2,16
9d008044:	24020078 	li	v0,120
9d008048:	52020003 	beql	s0,v0,9d008058 <strtoull+0x2f0>
9d00804c:	82300002 	lb	s0,2(s1)
9d008050:	0b402003 	j	9d00800c <strtoull+0x2a4>
9d008054:	26310001 	addiu	s1,s1,1
9d008058:	240dffff 	li	t5,-1
9d00805c:	26310002 	addiu	s1,s1,2
9d008060:	3c0a0fff 	lui	t2,0xfff
9d008064:	354affff 	ori	t2,t2,0xffff
9d008068:	240b0010 	li	t3,16
9d00806c:	0b401f93 	j	9d007e4c <strtoull+0xe4>
9d008070:	0000a021 	move	s4,zero

Disassembly of section .text._strtostr:

9d008074 <_strtostr>:
9d008074:	27bdfec8 	addiu	sp,sp,-312
9d008078:	afbf0134 	sw	ra,308(sp)
9d00807c:	afbe0130 	sw	s8,304(sp)
9d008080:	afb7012c 	sw	s7,300(sp)
9d008084:	afb60128 	sw	s6,296(sp)
9d008088:	afb50124 	sw	s5,292(sp)
9d00808c:	afb40120 	sw	s4,288(sp)
9d008090:	afb3011c 	sw	s3,284(sp)
9d008094:	afb20118 	sw	s2,280(sp)
9d008098:	afb10114 	sw	s1,276(sp)
9d00809c:	afb00110 	sw	s0,272(sp)
9d0080a0:	00808021 	move	s0,a0
9d0080a4:	afa5013c 	sw	a1,316(sp)
9d0080a8:	00c09821 	move	s3,a2
9d0080ac:	00e0b021 	move	s6,a3
9d0080b0:	24020002 	li	v0,2
9d0080b4:	10820056 	beq	a0,v0,9d008210 <_strtostr+0x19c>
9d0080b8:	8fb20148 	lw	s2,328(sp)
9d0080bc:	32730001 	andi	s3,s3,0x1
9d0080c0:	16600005 	bnez	s3,9d0080d8 <_strtostr+0x64>
9d0080c4:	00000000 	nop
9d0080c8:	8e42000c 	lw	v0,12(s2)
9d0080cc:	24430004 	addiu	v1,v0,4
9d0080d0:	ae43000c 	sw	v1,12(s2)
9d0080d4:	8c510000 	lw	s1,0(v0)
9d0080d8:	12c00081 	beqz	s6,9d0082e0 <_strtostr+0x26c>
9d0080dc:	02c0b821 	move	s7,s6
9d0080e0:	2414ffff 	li	s4,-1
9d0080e4:	24150001 	li	s5,1
9d0080e8:	3c1e9d01 	lui	s8,0x9d01
9d0080ec:	27de9b9d 	addiu	s8,s8,-25699
9d0080f0:	0f402bea 	jal	9d00afa8 <gsgetc>
9d0080f4:	02402021 	move	a0,s2
9d0080f8:	50540011 	beql	v0,s4,9d008140 <_strtostr+0xcc>
9d0080fc:	02e01821 	move	v1,s7
9d008100:	12150038 	beq	s0,s5,9d0081e4 <_strtostr+0x170>
9d008104:	26e3ffff 	addiu	v1,s7,-1
9d008108:	24040002 	li	a0,2
9d00810c:	1204002b 	beq	s0,a0,9d0081bc <_strtostr+0x148>
9d008110:	27a50010 	addiu	a1,sp,16
9d008114:	16600003 	bnez	s3,9d008124 <_strtostr+0xb0>
9d008118:	00000000 	nop
9d00811c:	a2220000 	sb	v0,0(s1)
9d008120:	26310001 	addiu	s1,s1,1
9d008124:	10600006 	beqz	v1,9d008140 <_strtostr+0xcc>
9d008128:	0060b821 	move	s7,v1
9d00812c:	0f402bea 	jal	9d00afa8 <gsgetc>
9d008130:	02402021 	move	a0,s2
9d008134:	1454fff2 	bne	v0,s4,9d008100 <_strtostr+0x8c>
9d008138:	00000000 	nop
9d00813c:	02e01821 	move	v1,s7
9d008140:	2402ffff 	li	v0,-1
9d008144:	8e440014 	lw	a0,20(s2)
9d008148:	24840001 	addiu	a0,a0,1
9d00814c:	16600008 	bnez	s3,9d008170 <_strtostr+0xfc>
9d008150:	ae440014 	sw	a0,20(s2)
9d008154:	24040001 	li	a0,1
9d008158:	8fa6013c 	lw	a2,316(sp)
9d00815c:	50c40001 	beql	a2,a0,9d008164 <_strtostr+0xf0>
9d008160:	a2200000 	sb	zero,0(s1)
9d008164:	8e440018 	lw	a0,24(s2)
9d008168:	24840001 	addiu	a0,a0,1
9d00816c:	ae440018 	sw	a0,24(s2)
9d008170:	14760005 	bne	v1,s6,9d008188 <_strtostr+0x114>
9d008174:	00002021 	move	a0,zero
9d008178:	2404ffff 	li	a0,-1
9d00817c:	00021027 	nor	v0,zero,v0
9d008180:	24030001 	li	v1,1
9d008184:	0062200b 	movn	a0,v1,v0
9d008188:	00801021 	move	v0,a0
9d00818c:	8fbf0134 	lw	ra,308(sp)
9d008190:	8fbe0130 	lw	s8,304(sp)
9d008194:	8fb7012c 	lw	s7,300(sp)
9d008198:	8fb60128 	lw	s6,296(sp)
9d00819c:	8fb50124 	lw	s5,292(sp)
9d0081a0:	8fb40120 	lw	s4,288(sp)
9d0081a4:	8fb3011c 	lw	s3,284(sp)
9d0081a8:	8fb20118 	lw	s2,280(sp)
9d0081ac:	8fb10114 	lw	s1,276(sp)
9d0081b0:	8fb00110 	lw	s0,272(sp)
9d0081b4:	03e00008 	jr	ra
9d0081b8:	27bd0138 	addiu	sp,sp,312
9d0081bc:	00a22021 	addu	a0,a1,v0
9d0081c0:	80840000 	lb	a0,0(a0)
9d0081c4:	1480ffd3 	bnez	a0,9d008114 <_strtostr+0xa0>
9d0081c8:	00000000 	nop
9d0081cc:	8e440010 	lw	a0,16(s2)
9d0081d0:	ae420004 	sw	v0,4(s2)
9d0081d4:	02e01821 	move	v1,s7
9d0081d8:	2484ffff 	addiu	a0,a0,-1
9d0081dc:	0b402051 	j	9d008144 <_strtostr+0xd0>
9d0081e0:	ae440010 	sw	a0,16(s2)
9d0081e4:	005e2021 	addu	a0,v0,s8
9d0081e8:	80840000 	lb	a0,0(a0)
9d0081ec:	30840088 	andi	a0,a0,0x88
9d0081f0:	1080ffc8 	beqz	a0,9d008114 <_strtostr+0xa0>
9d0081f4:	00000000 	nop
9d0081f8:	8e440010 	lw	a0,16(s2)
9d0081fc:	ae420004 	sw	v0,4(s2)
9d008200:	02e01821 	move	v1,s7
9d008204:	2484ffff 	addiu	a0,a0,-1
9d008208:	0b402051 	j	9d008144 <_strtostr+0xd0>
9d00820c:	ae440010 	sw	a0,16(s2)
9d008210:	8e540008 	lw	s4,8(s2)
9d008214:	82830000 	lb	v1,0(s4)
9d008218:	2402005e 	li	v0,94
9d00821c:	50620032 	beql	v1,v0,9d0082e8 <_strtostr+0x274>
9d008220:	26940001 	addiu	s4,s4,1
9d008224:	24150001 	li	s5,1
9d008228:	00002821 	move	a1,zero
9d00822c:	27a40010 	addiu	a0,sp,16
9d008230:	0f402d6d 	jal	9d00b5b4 <.LFE1>
9d008234:	24060100 	li	a2,256
9d008238:	82830000 	lb	v1,0(s4)
9d00823c:	2405ffff 	li	a1,-1
9d008240:	2409ffff 	li	t1,-1
9d008244:	240a002d 	li	t2,45
9d008248:	2408005d 	li	t0,93
9d00824c:	0b40209f 	j	9d00827c <_strtostr+0x208>
9d008250:	7c152420 	seb	a0,s5
9d008254:	00602821 	move	a1,v1
9d008258:	27a30010 	addiu	v1,sp,16
9d00825c:	00651021 	addu	v0,v1,a1
9d008260:	a0550000 	sb	s5,0(v0)
9d008264:	02801021 	move	v0,s4
9d008268:	24540001 	addiu	s4,v0,1
9d00826c:	ae540008 	sw	s4,8(s2)
9d008270:	80430001 	lb	v1,1(v0)
9d008274:	50680018 	beql	v1,t0,9d0082d8 <_strtostr+0x264>
9d008278:	24420002 	addiu	v0,v0,2
9d00827c:	10a9fff5 	beq	a1,t1,9d008254 <_strtostr+0x1e0>
9d008280:	82870001 	lb	a3,1(s4)
9d008284:	546afff4 	bnel	v1,t2,9d008258 <_strtostr+0x1e4>
9d008288:	00602821 	move	a1,v1
9d00828c:	10e8fff1 	beq	a3,t0,9d008254 <_strtostr+0x1e0>
9d008290:	24a20001 	addiu	v0,a1,1
9d008294:	00e2282a 	slt	a1,a3,v0
9d008298:	27a30010 	addiu	v1,sp,16
9d00829c:	00621021 	addu	v0,v1,v0
9d0082a0:	27a60011 	addiu	a2,sp,17
9d0082a4:	14a00005 	bnez	a1,9d0082bc <_strtostr+0x248>
9d0082a8:	00c71821 	addu	v1,a2,a3
9d0082ac:	a0440000 	sb	a0,0(v0)
9d0082b0:	24420001 	addiu	v0,v0,1
9d0082b4:	5443fffe 	bnel	v0,v1,9d0082b0 <_strtostr+0x23c>
9d0082b8:	a0440000 	sb	a0,0(v0)
9d0082bc:	26820001 	addiu	v0,s4,1
9d0082c0:	24540001 	addiu	s4,v0,1
9d0082c4:	ae540008 	sw	s4,8(s2)
9d0082c8:	80430001 	lb	v1,1(v0)
9d0082cc:	1468ffeb 	bne	v1,t0,9d00827c <_strtostr+0x208>
9d0082d0:	2405ffff 	li	a1,-1
9d0082d4:	24420002 	addiu	v0,v0,2
9d0082d8:	0b40202f 	j	9d0080bc <_strtostr+0x48>
9d0082dc:	ae420008 	sw	v0,8(s2)
9d0082e0:	0b402050 	j	9d008140 <_strtostr+0xcc>
9d0082e4:	00001821 	move	v1,zero
9d0082e8:	ae540008 	sw	s4,8(s2)
9d0082ec:	0000a821 	move	s5,zero
9d0082f0:	0b40208b 	j	9d00822c <_strtostr+0x1b8>
9d0082f4:	24050001 	li	a1,1

Disassembly of section .text.strtoul:

9d0082f8 <strtoul>:
9d0082f8:	80820000 	lb	v0,0(a0)
9d0082fc:	10400089 	beqz	v0,9d008524 <strtoul+0x22c>
9d008300:	00001821 	move	v1,zero
9d008304:	3c089d01 	lui	t0,0x9d01
9d008308:	25089b9d 	addiu	t0,t0,-25699
9d00830c:	01021821 	addu	v1,t0,v0
9d008310:	80630000 	lb	v1,0(v1)
9d008314:	30630088 	andi	v1,v1,0x88
9d008318:	14600007 	bnez	v1,9d008338 <strtoul+0x40>
9d00831c:	00803821 	move	a3,a0
9d008320:	0b402122 	j	9d008488 <strtoul+0x190>
9d008324:	2403002b 	li	v1,43
9d008328:	80630000 	lb	v1,0(v1)
9d00832c:	30630088 	andi	v1,v1,0x88
9d008330:	50600055 	beqzl	v1,9d008488 <strtoul+0x190>
9d008334:	2403002b 	li	v1,43
9d008338:	24e70001 	addiu	a3,a3,1
9d00833c:	80e20000 	lb	v0,0(a3)
9d008340:	1440fff9 	bnez	v0,9d008328 <strtoul+0x30>
9d008344:	01021821 	addu	v1,t0,v0
9d008348:	00001821 	move	v1,zero
9d00834c:	0000c021 	move	t8,zero
9d008350:	14c00041 	bnez	a2,9d008458 <strtoul+0x160>
9d008354:	24020010 	li	v0,16
9d008358:	24020030 	li	v0,48
9d00835c:	1062005d 	beq	v1,v0,9d0084d4 <strtoul+0x1dc>
9d008360:	3c0d1999 	lui	t5,0x1999
9d008364:	35ad9999 	ori	t5,t5,0x9999
9d008368:	240f000a 	li	t7,10
9d00836c:	00005821 	move	t3,zero
9d008370:	2406000a 	li	a2,10
9d008374:	24e7ffff 	addiu	a3,a3,-1
9d008378:	00005021 	move	t2,zero
9d00837c:	00001021 	move	v0,zero
9d008380:	3c0c9d01 	lui	t4,0x9d01
9d008384:	258c9b9d 	addiu	t4,t4,-25699
9d008388:	24190061 	li	t9,97
9d00838c:	240e0041 	li	t6,65
9d008390:	10600019 	beqz	v1,9d0083f8 <strtoul+0x100>
9d008394:	24e70001 	addiu	a3,a3,1
9d008398:	006c4021 	addu	t0,v1,t4
9d00839c:	91080000 	lbu	t0,0(t0)
9d0083a0:	31090004 	andi	t1,t0,0x4
9d0083a4:	11200023 	beqz	t1,9d008434 <strtoul+0x13c>
9d0083a8:	31090003 	andi	t1,t0,0x3
9d0083ac:	2463ffd0 	addiu	v1,v1,-48
9d0083b0:	04600011 	bltz	v1,9d0083f8 <strtoul+0x100>
9d0083b4:	0066402a 	slt	t0,v1,a2
9d0083b8:	1100000f 	beqz	t0,9d0083f8 <strtoul+0x100>
9d0083bc:	01a2402b 	sltu	t0,t5,v0
9d0083c0:	55000019 	bnezl	t0,9d008428 <strtoul+0x130>
9d0083c4:	240a0001 	li	t2,1
9d0083c8:	55400008 	bnezl	t2,9d0083ec <strtoul+0xf4>
9d0083cc:	80e30001 	lb	v1,1(a3)
9d0083d0:	704f1002 	mul	v0,v0,t7
9d0083d4:	00024027 	nor	t0,zero,v0
9d0083d8:	0103402b 	sltu	t0,t0,v1
9d0083dc:	55000012 	bnezl	t0,9d008428 <strtoul+0x130>
9d0083e0:	240a0001 	li	t2,1
9d0083e4:	00431021 	addu	v0,v0,v1
9d0083e8:	80e30001 	lb	v1,1(a3)
9d0083ec:	240b0001 	li	t3,1
9d0083f0:	1460ffe9 	bnez	v1,9d008398 <strtoul+0xa0>
9d0083f4:	24e70001 	addiu	a3,a3,1
9d0083f8:	1300001f 	beqz	t8,9d008478 <strtoul+0x180>
9d0083fc:	00000000 	nop
9d008400:	11400005 	beqz	t2,9d008418 <strtoul+0x120>
9d008404:	00021023 	negu	v0,v0
9d008408:	24030022 	li	v1,34
9d00840c:	3c02a000 	lui	v0,0xa000
9d008410:	ac430030 	sw	v1,48(v0)
9d008414:	2402ffff 	li	v0,-1
9d008418:	10a0000d 	beqz	a1,9d008450 <strtoul+0x158>
9d00841c:	008b380a 	movz	a3,a0,t3
9d008420:	03e00008 	jr	ra
9d008424:	aca70000 	sw	a3,0(a1)
9d008428:	80e30001 	lb	v1,1(a3)
9d00842c:	0b4020fc 	j	9d0083f0 <strtoul+0xf8>
9d008430:	240b0001 	li	t3,1
9d008434:	1120fff0 	beqz	t1,9d0083f8 <strtoul+0x100>
9d008438:	31080001 	andi	t0,t0,0x1
9d00843c:	01c04821 	move	t1,t6
9d008440:	0328480a 	movz	t1,t9,t0
9d008444:	00691823 	subu	v1,v1,t1
9d008448:	0b4020ec 	j	9d0083b0 <strtoul+0xb8>
9d00844c:	2463000a 	addiu	v1,v1,10
9d008450:	03e00008 	jr	ra
9d008454:	00000000 	nop
9d008458:	10c20017 	beq	a2,v0,9d0084b8 <strtoul+0x1c0>
9d00845c:	240dffff 	li	t5,-1
9d008460:	00c07821 	move	t7,a2
9d008464:	01a6001b 	divu	zero,t5,a2
9d008468:	00c001f4 	teq	a2,zero,0x7
9d00846c:	00006812 	mflo	t5
9d008470:	0b4020dd 	j	9d008374 <strtoul+0x7c>
9d008474:	00005821 	move	t3,zero
9d008478:	1540ffe4 	bnez	t2,9d00840c <strtoul+0x114>
9d00847c:	24030022 	li	v1,34
9d008480:	0b402106 	j	9d008418 <strtoul+0x120>
9d008484:	00000000 	nop
9d008488:	54430006 	bnel	v0,v1,9d0084a4 <strtoul+0x1ac>
9d00848c:	2403002d 	li	v1,45
9d008490:	3842002d 	xori	v0,v0,0x2d
9d008494:	80e30001 	lb	v1,1(a3)
9d008498:	2c580001 	sltiu	t8,v0,1
9d00849c:	0b4020d4 	j	9d008350 <strtoul+0x58>
9d0084a0:	24e70001 	addiu	a3,a3,1
9d0084a4:	5043fffb 	beql	v0,v1,9d008494 <strtoul+0x19c>
9d0084a8:	3842002d 	xori	v0,v0,0x2d
9d0084ac:	80e30000 	lb	v1,0(a3)
9d0084b0:	0b4020d4 	j	9d008350 <strtoul+0x58>
9d0084b4:	0000c021 	move	t8,zero
9d0084b8:	24020030 	li	v0,48
9d0084bc:	1062001c 	beq	v1,v0,9d008530 <strtoul+0x238>
9d0084c0:	3c0d0fff 	lui	t5,0xfff
9d0084c4:	35adffff 	ori	t5,t5,0xffff
9d0084c8:	240f0010 	li	t7,16
9d0084cc:	0b4020dd 	j	9d008374 <strtoul+0x7c>
9d0084d0:	00005821 	move	t3,zero
9d0084d4:	80e30001 	lb	v1,1(a3)
9d0084d8:	2402ffdf 	li	v0,-33
9d0084dc:	00623024 	and	a2,v1,v0
9d0084e0:	24020058 	li	v0,88
9d0084e4:	50c20008 	beql	a2,v0,9d008508 <strtoul+0x210>
9d0084e8:	80e30002 	lb	v1,2(a3)
9d0084ec:	24e70001 	addiu	a3,a3,1
9d0084f0:	3c0d1fff 	lui	t5,0x1fff
9d0084f4:	35adffff 	ori	t5,t5,0xffff
9d0084f8:	240f0008 	li	t7,8
9d0084fc:	240b0001 	li	t3,1
9d008500:	0b4020dd 	j	9d008374 <strtoul+0x7c>
9d008504:	24060008 	li	a2,8
9d008508:	3c0d0fff 	lui	t5,0xfff
9d00850c:	35adffff 	ori	t5,t5,0xffff
9d008510:	24e70002 	addiu	a3,a3,2
9d008514:	240f0010 	li	t7,16
9d008518:	240b0001 	li	t3,1
9d00851c:	0b4020dd 	j	9d008374 <strtoul+0x7c>
9d008520:	24060010 	li	a2,16
9d008524:	00803821 	move	a3,a0
9d008528:	0b4020d4 	j	9d008350 <strtoul+0x58>
9d00852c:	0000c021 	move	t8,zero
9d008530:	80e30001 	lb	v1,1(a3)
9d008534:	2402ffdf 	li	v0,-33
9d008538:	00624024 	and	t0,v1,v0
9d00853c:	24020058 	li	v0,88
9d008540:	51020007 	beql	t0,v0,9d008560 <strtoul+0x268>
9d008544:	80e30002 	lb	v1,2(a3)
9d008548:	24e70001 	addiu	a3,a3,1
9d00854c:	3c0d0fff 	lui	t5,0xfff
9d008550:	35adffff 	ori	t5,t5,0xffff
9d008554:	240f0010 	li	t7,16
9d008558:	0b4020dd 	j	9d008374 <strtoul+0x7c>
9d00855c:	240b0001 	li	t3,1
9d008560:	3c0d0fff 	lui	t5,0xfff
9d008564:	35adffff 	ori	t5,t5,0xffff
9d008568:	24e70002 	addiu	a3,a3,2
9d00856c:	240f0010 	li	t7,16
9d008570:	0b4020dd 	j	9d008374 <strtoul+0x7c>
9d008574:	240b0001 	li	t3,1

Disassembly of section .text.free:

9d008578 <free>:
9d008578:	10800074 	beqz	a0,9d00874c <free+0x1d4>
9d00857c:	2402fffe 	li	v0,-2
9d008580:	8c86fffc 	lw	a2,-4(a0)
9d008584:	2485fff8 	addiu	a1,a0,-8
9d008588:	00c21824 	and	v1,a2,v0
9d00858c:	00a31021 	addu	v0,a1,v1
9d008590:	8c470004 	lw	a3,4(v0)
9d008594:	30e80001 	andi	t0,a3,0x1
9d008598:	1100006c 	beqz	t0,9d00874c <free+0x1d4>
9d00859c:	7c070804 	ins	a3,zero,0x0,0x2
9d0085a0:	3c08a000 	lui	t0,0xa000
9d0085a4:	2508161c 	addiu	t0,t0,5660
9d0085a8:	8d090008 	lw	t1,8(t0)
9d0085ac:	10490057 	beq	v0,t1,9d00870c <free+0x194>
9d0085b0:	30c60001 	andi	a2,a2,0x1
9d0085b4:	ac470004 	sw	a3,4(v0)
9d0085b8:	14c0000c 	bnez	a2,9d0085ec <free+0x74>
9d0085bc:	00004821 	move	t1,zero
9d0085c0:	8c86fff8 	lw	a2,-8(a0)
9d0085c4:	00a62823 	subu	a1,a1,a2
9d0085c8:	8ca40008 	lw	a0,8(a1)
9d0085cc:	00661821 	addu	v1,v1,a2
9d0085d0:	3c06a000 	lui	a2,0xa000
9d0085d4:	24c61624 	addiu	a2,a2,5668
9d0085d8:	50860004 	beql	a0,a2,9d0085ec <free+0x74>
9d0085dc:	24090001 	li	t1,1
9d0085e0:	8ca6000c 	lw	a2,12(a1)
9d0085e4:	ac86000c 	sw	a2,12(a0)
9d0085e8:	acc40008 	sw	a0,8(a2)
9d0085ec:	00472021 	addu	a0,v0,a3
9d0085f0:	8c840004 	lw	a0,4(a0)
9d0085f4:	30840001 	andi	a0,a0,0x1
9d0085f8:	54800008 	bnezl	a0,9d00861c <free+0xa4>
9d0085fc:	34640001 	ori	a0,v1,0x1
9d008600:	00671821 	addu	v1,v1,a3
9d008604:	11200026 	beqz	t1,9d0086a0 <free+0x128>
9d008608:	8c440008 	lw	a0,8(v0)
9d00860c:	8c42000c 	lw	v0,12(v0)
9d008610:	ac82000c 	sw	v0,12(a0)
9d008614:	ac440008 	sw	a0,8(v0)
9d008618:	34640001 	ori	a0,v1,0x1
9d00861c:	00a31021 	addu	v0,a1,v1
9d008620:	aca40004 	sw	a0,4(a1)
9d008624:	15200049 	bnez	t1,9d00874c <free+0x1d4>
9d008628:	ac430000 	sw	v1,0(v0)
9d00862c:	2c620200 	sltiu	v0,v1,512
9d008630:	54400028 	bnezl	v0,9d0086d4 <free+0x15c>
9d008634:	000318c2 	srl	v1,v1,0x3
9d008638:	00031242 	srl	v0,v1,0x9
9d00863c:	2c440005 	sltiu	a0,v0,5
9d008640:	1080004c 	beqz	a0,9d008774 <free+0x1fc>
9d008644:	2c440015 	sltiu	a0,v0,21
9d008648:	00032182 	srl	a0,v1,0x6
9d00864c:	24840038 	addiu	a0,a0,56
9d008650:	00043040 	sll	a2,a0,0x1
9d008654:	00063080 	sll	a2,a2,0x2
9d008658:	01063021 	addu	a2,t0,a2
9d00865c:	8cc20008 	lw	v0,8(a2)
9d008660:	50460049 	beql	v0,a2,9d008788 <free+0x210>
9d008664:	8d030004 	lw	v1,4(t0)
9d008668:	8c440004 	lw	a0,4(v0)
9d00866c:	7c040804 	ins	a0,zero,0x0,0x2
9d008670:	0064202b 	sltu	a0,v1,a0
9d008674:	50800005 	beqzl	a0,9d00868c <free+0x114>
9d008678:	8c43000c 	lw	v1,12(v0)
9d00867c:	8c420008 	lw	v0,8(v0)
9d008680:	54c2fffa 	bnel	a2,v0,9d00866c <free+0xf4>
9d008684:	8c440004 	lw	a0,4(v0)
9d008688:	8c43000c 	lw	v1,12(v0)
9d00868c:	aca3000c 	sw	v1,12(a1)
9d008690:	aca20008 	sw	v0,8(a1)
9d008694:	ac650008 	sw	a1,8(v1)
9d008698:	03e00008 	jr	ra
9d00869c:	ac45000c 	sw	a1,12(v0)
9d0086a0:	3c06a000 	lui	a2,0xa000
9d0086a4:	24c61624 	addiu	a2,a2,5668
9d0086a8:	5486ffd9 	bnel	a0,a2,9d008610 <free+0x98>
9d0086ac:	8c42000c 	lw	v0,12(v0)
9d0086b0:	34660001 	ori	a2,v1,0x1
9d0086b4:	00a31021 	addu	v0,a1,v1
9d0086b8:	ad050014 	sw	a1,20(t0)
9d0086bc:	ad050010 	sw	a1,16(t0)
9d0086c0:	aca4000c 	sw	a0,12(a1)
9d0086c4:	aca40008 	sw	a0,8(a1)
9d0086c8:	aca60004 	sw	a2,4(a1)
9d0086cc:	03e00008 	jr	ra
9d0086d0:	ac430000 	sw	v1,0(v0)
9d0086d4:	000310c0 	sll	v0,v1,0x3
9d0086d8:	01021021 	addu	v0,t0,v0
9d0086dc:	8d060004 	lw	a2,4(t0)
9d0086e0:	8c440008 	lw	a0,8(v0)
9d0086e4:	00031883 	sra	v1,v1,0x2
9d0086e8:	24070001 	li	a3,1
9d0086ec:	00671804 	sllv	v1,a3,v1
9d0086f0:	00661825 	or	v1,v1,a2
9d0086f4:	aca2000c 	sw	v0,12(a1)
9d0086f8:	aca40008 	sw	a0,8(a1)
9d0086fc:	ad030004 	sw	v1,4(t0)
9d008700:	ac450008 	sw	a1,8(v0)
9d008704:	03e00008 	jr	ra
9d008708:	ac85000c 	sw	a1,12(a0)
9d00870c:	14c00008 	bnez	a2,9d008730 <free+0x1b8>
9d008710:	00e33821 	addu	a3,a3,v1
9d008714:	8c84fff8 	lw	a0,-8(a0)
9d008718:	00a42823 	subu	a1,a1,a0
9d00871c:	8ca2000c 	lw	v0,12(a1)
9d008720:	8ca30008 	lw	v1,8(a1)
9d008724:	00e43821 	addu	a3,a3,a0
9d008728:	ac62000c 	sw	v0,12(v1)
9d00872c:	ac430008 	sw	v1,8(v0)
9d008730:	3c02a000 	lui	v0,0xa000
9d008734:	8c421618 	lw	v0,5656(v0)
9d008738:	34e30001 	ori	v1,a3,0x1
9d00873c:	aca30004 	sw	v1,4(a1)
9d008740:	00e2382b 	sltu	a3,a3,v0
9d008744:	10e00003 	beqz	a3,9d008754 <free+0x1dc>
9d008748:	ad050008 	sw	a1,8(t0)
9d00874c:	03e00008 	jr	ra
9d008750:	00000000 	nop
9d008754:	27bdffe8 	addiu	sp,sp,-24
9d008758:	afbf0014 	sw	ra,20(sp)
9d00875c:	3c02a000 	lui	v0,0xa000
9d008760:	0f402728 	jal	9d009ca0 <malloc_trim>
9d008764:	8c441bb0 	lw	a0,7088(v0)
9d008768:	8fbf0014 	lw	ra,20(sp)
9d00876c:	03e00008 	jr	ra
9d008770:	27bd0018 	addiu	sp,sp,24
9d008774:	5080000b 	beqzl	a0,9d0087a4 <free+0x22c>
9d008778:	2c440055 	sltiu	a0,v0,85
9d00877c:	2444005b 	addiu	a0,v0,91
9d008780:	0b402195 	j	9d008654 <free+0xdc>
9d008784:	00043040 	sll	a2,a0,0x1
9d008788:	00042083 	sra	a0,a0,0x2
9d00878c:	24060001 	li	a2,1
9d008790:	00862004 	sllv	a0,a2,a0
9d008794:	00831825 	or	v1,a0,v1
9d008798:	ad030004 	sw	v1,4(t0)
9d00879c:	0b4021a3 	j	9d00868c <free+0x114>
9d0087a0:	00401821 	move	v1,v0
9d0087a4:	50800005 	beqzl	a0,9d0087bc <free+0x244>
9d0087a8:	2c440155 	sltiu	a0,v0,341
9d0087ac:	00032302 	srl	a0,v1,0xc
9d0087b0:	2484006e 	addiu	a0,a0,110
9d0087b4:	0b402195 	j	9d008654 <free+0xdc>
9d0087b8:	00043040 	sll	a2,a0,0x1
9d0087bc:	10800005 	beqz	a0,9d0087d4 <free+0x25c>
9d0087c0:	2c420555 	sltiu	v0,v0,1365
9d0087c4:	000323c2 	srl	a0,v1,0xf
9d0087c8:	24840077 	addiu	a0,a0,119
9d0087cc:	0b402195 	j	9d008654 <free+0xdc>
9d0087d0:	00043040 	sll	a2,a0,0x1
9d0087d4:	50400005 	beqzl	v0,9d0087ec <free+0x274>
9d0087d8:	240600fc 	li	a2,252
9d0087dc:	00032482 	srl	a0,v1,0x12
9d0087e0:	2484007c 	addiu	a0,a0,124
9d0087e4:	0b402195 	j	9d008654 <free+0xdc>
9d0087e8:	00043040 	sll	a2,a0,0x1
9d0087ec:	0b402195 	j	9d008654 <free+0xdc>
9d0087f0:	2404007e 	li	a0,126

Disassembly of section .text.strtol:

9d0087f4 <strtol>:
9d0087f4:	80820000 	lb	v0,0(a0)
9d0087f8:	1040008a 	beqz	v0,9d008a24 <strtol+0x230>
9d0087fc:	00001821 	move	v1,zero
9d008800:	3c089d01 	lui	t0,0x9d01
9d008804:	25089b9d 	addiu	t0,t0,-25699
9d008808:	01021821 	addu	v1,t0,v0
9d00880c:	80630000 	lb	v1,0(v1)
9d008810:	30630088 	andi	v1,v1,0x88
9d008814:	14600007 	bnez	v1,9d008834 <strtol+0x40>
9d008818:	00803821 	move	a3,a0
9d00881c:	0b402265 	j	9d008994 <strtol+0x1a0>
9d008820:	2403002b 	li	v1,43
9d008824:	80630000 	lb	v1,0(v1)
9d008828:	30630088 	andi	v1,v1,0x88
9d00882c:	50600059 	beqzl	v1,9d008994 <strtol+0x1a0>
9d008830:	2403002b 	li	v1,43
9d008834:	24e70001 	addiu	a3,a3,1
9d008838:	80e20000 	lb	v0,0(a3)
9d00883c:	1440fff9 	bnez	v0,9d008824 <strtol+0x30>
9d008840:	01021821 	addu	v1,t0,v0
9d008844:	00001821 	move	v1,zero
9d008848:	0000c021 	move	t8,zero
9d00884c:	14c00042 	bnez	a2,9d008958 <strtol+0x164>
9d008850:	24020010 	li	v0,16
9d008854:	24020030 	li	v0,48
9d008858:	10620060 	beq	v1,v0,9d0089dc <strtol+0x1e8>
9d00885c:	3c0d0ccc 	lui	t5,0xccc
9d008860:	35adcccc 	ori	t5,t5,0xcccc
9d008864:	00005821 	move	t3,zero
9d008868:	2406000a 	li	a2,10
9d00886c:	24e7ffff 	addiu	a3,a3,-1
9d008870:	00005021 	move	t2,zero
9d008874:	00001021 	move	v0,zero
9d008878:	3c0c9d01 	lui	t4,0x9d01
9d00887c:	258c9b9d 	addiu	t4,t4,-25699
9d008880:	240f0061 	li	t7,97
9d008884:	240e0041 	li	t6,65
9d008888:	3c197fff 	lui	t9,0x7fff
9d00888c:	3739ffff 	ori	t9,t9,0xffff
9d008890:	10600019 	beqz	v1,9d0088f8 <strtol+0x104>
9d008894:	24e70001 	addiu	a3,a3,1
9d008898:	006c4021 	addu	t0,v1,t4
9d00889c:	91080000 	lbu	t0,0(t0)
9d0088a0:	31090004 	andi	t1,t0,0x4
9d0088a4:	11200023 	beqz	t1,9d008934 <strtol+0x140>
9d0088a8:	31090003 	andi	t1,t0,0x3
9d0088ac:	2463ffd0 	addiu	v1,v1,-48
9d0088b0:	04600011 	bltz	v1,9d0088f8 <strtol+0x104>
9d0088b4:	0066402a 	slt	t0,v1,a2
9d0088b8:	1100000f 	beqz	t0,9d0088f8 <strtol+0x104>
9d0088bc:	01a2402a 	slt	t0,t5,v0
9d0088c0:	55000019 	bnezl	t0,9d008928 <strtol+0x134>
9d0088c4:	240a0001 	li	t2,1
9d0088c8:	55400017 	bnezl	t2,9d008928 <strtol+0x134>
9d0088cc:	240a0001 	li	t2,1
9d0088d0:	70461002 	mul	v0,v0,a2
9d0088d4:	03224023 	subu	t0,t9,v0
9d0088d8:	0103402a 	slt	t0,t0,v1
9d0088dc:	55000012 	bnezl	t0,9d008928 <strtol+0x134>
9d0088e0:	240a0001 	li	t2,1
9d0088e4:	00431021 	addu	v0,v0,v1
9d0088e8:	80e30001 	lb	v1,1(a3)
9d0088ec:	240b0001 	li	t3,1
9d0088f0:	1460ffe9 	bnez	v1,9d008898 <strtol+0xa4>
9d0088f4:	24e70001 	addiu	a3,a3,1
9d0088f8:	1300001f 	beqz	t8,9d008978 <strtol+0x184>
9d0088fc:	00000000 	nop
9d008900:	11400005 	beqz	t2,9d008918 <strtol+0x124>
9d008904:	00021023 	negu	v0,v0
9d008908:	24030022 	li	v1,34
9d00890c:	3c02a000 	lui	v0,0xa000
9d008910:	ac430030 	sw	v1,48(v0)
9d008914:	3c028000 	lui	v0,0x8000
9d008918:	10a0000d 	beqz	a1,9d008950 <strtol+0x15c>
9d00891c:	008b380a 	movz	a3,a0,t3
9d008920:	03e00008 	jr	ra
9d008924:	aca70000 	sw	a3,0(a1)
9d008928:	80e30001 	lb	v1,1(a3)
9d00892c:	0b40223c 	j	9d0088f0 <strtol+0xfc>
9d008930:	240b0001 	li	t3,1
9d008934:	1120fff0 	beqz	t1,9d0088f8 <strtol+0x104>
9d008938:	31080001 	andi	t0,t0,0x1
9d00893c:	01c04821 	move	t1,t6
9d008940:	01e8480a 	movz	t1,t7,t0
9d008944:	00691823 	subu	v1,v1,t1
9d008948:	0b40222c 	j	9d0088b0 <strtol+0xbc>
9d00894c:	2463000a 	addiu	v1,v1,10
9d008950:	03e00008 	jr	ra
9d008954:	00000000 	nop
9d008958:	10c2001a 	beq	a2,v0,9d0089c4 <strtol+0x1d0>
9d00895c:	3c0d7fff 	lui	t5,0x7fff
9d008960:	35adffff 	ori	t5,t5,0xffff
9d008964:	01a6001a 	div	zero,t5,a2
9d008968:	00c001f4 	teq	a2,zero,0x7
9d00896c:	00006812 	mflo	t5
9d008970:	0b40221b 	j	9d00886c <strtol+0x78>
9d008974:	00005821 	move	t3,zero
9d008978:	1140ffe7 	beqz	t2,9d008918 <strtol+0x124>
9d00897c:	24030022 	li	v1,34
9d008980:	3c02a000 	lui	v0,0xa000
9d008984:	ac430030 	sw	v1,48(v0)
9d008988:	3c027fff 	lui	v0,0x7fff
9d00898c:	0b402246 	j	9d008918 <strtol+0x124>
9d008990:	3442ffff 	ori	v0,v0,0xffff
9d008994:	54430006 	bnel	v0,v1,9d0089b0 <strtol+0x1bc>
9d008998:	2403002d 	li	v1,45
9d00899c:	3842002d 	xori	v0,v0,0x2d
9d0089a0:	80e30001 	lb	v1,1(a3)
9d0089a4:	2c580001 	sltiu	t8,v0,1
9d0089a8:	0b402213 	j	9d00884c <strtol+0x58>
9d0089ac:	24e70001 	addiu	a3,a3,1
9d0089b0:	5043fffb 	beql	v0,v1,9d0089a0 <strtol+0x1ac>
9d0089b4:	3842002d 	xori	v0,v0,0x2d
9d0089b8:	80e30000 	lb	v1,0(a3)
9d0089bc:	0b402213 	j	9d00884c <strtol+0x58>
9d0089c0:	0000c021 	move	t8,zero
9d0089c4:	24020030 	li	v0,48
9d0089c8:	10620019 	beq	v1,v0,9d008a30 <strtol+0x23c>
9d0089cc:	3c0d07ff 	lui	t5,0x7ff
9d0089d0:	35adffff 	ori	t5,t5,0xffff
9d0089d4:	0b40221b 	j	9d00886c <strtol+0x78>
9d0089d8:	00005821 	move	t3,zero
9d0089dc:	80e30001 	lb	v1,1(a3)
9d0089e0:	2402ffdf 	li	v0,-33
9d0089e4:	00623024 	and	a2,v1,v0
9d0089e8:	24020058 	li	v0,88
9d0089ec:	50c20007 	beql	a2,v0,9d008a0c <strtol+0x218>
9d0089f0:	80e30002 	lb	v1,2(a3)
9d0089f4:	24e70001 	addiu	a3,a3,1
9d0089f8:	3c0d0fff 	lui	t5,0xfff
9d0089fc:	35adffff 	ori	t5,t5,0xffff
9d008a00:	240b0001 	li	t3,1
9d008a04:	0b40221b 	j	9d00886c <strtol+0x78>
9d008a08:	24060008 	li	a2,8
9d008a0c:	3c0d07ff 	lui	t5,0x7ff
9d008a10:	35adffff 	ori	t5,t5,0xffff
9d008a14:	24e70002 	addiu	a3,a3,2
9d008a18:	240b0001 	li	t3,1
9d008a1c:	0b40221b 	j	9d00886c <strtol+0x78>
9d008a20:	24060010 	li	a2,16
9d008a24:	00803821 	move	a3,a0
9d008a28:	0b402213 	j	9d00884c <strtol+0x58>
9d008a2c:	0000c021 	move	t8,zero
9d008a30:	80e30001 	lb	v1,1(a3)
9d008a34:	2402ffdf 	li	v0,-33
9d008a38:	00624024 	and	t0,v1,v0
9d008a3c:	24020058 	li	v0,88
9d008a40:	51020006 	beql	t0,v0,9d008a5c <strtol+0x268>
9d008a44:	80e30002 	lb	v1,2(a3)
9d008a48:	24e70001 	addiu	a3,a3,1
9d008a4c:	3c0d07ff 	lui	t5,0x7ff
9d008a50:	35adffff 	ori	t5,t5,0xffff
9d008a54:	0b40221b 	j	9d00886c <strtol+0x78>
9d008a58:	240b0001 	li	t3,1
9d008a5c:	3c0d07ff 	lui	t5,0x7ff
9d008a60:	35adffff 	ori	t5,t5,0xffff
9d008a64:	24e70002 	addiu	a3,a3,2
9d008a68:	0b40221b 	j	9d00886c <strtol+0x78>
9d008a6c:	240b0001 	li	t3,1

Disassembly of section .text.fpsubadd:

9d008a70 <__subsf3>:
9d008a70:	3c018000 00a12826                       ...<&(..

9d008a78 <__addsf3>:
9d008a78:	00044dc2 312900ff 00055dc2 316b00ff     .M....)1.]....k1
9d008a88:	3c078000 00044200 01074025 00055200     ...<.B..%@...R..
9d008a98:	01475025 252dffff 2da100fe 10200061     %PG...-%...-a. .
9d008aa8:	00000000                                ....

9d008aac <Blab1>:
9d008aac:	256dffff 	addiu	t5,t3,-1
9d008ab0:	2da100fe 	sltiu	at,t5,254
9d008ab4:	10200077 	beqz	at,9d008c94 <BspecB>
9d008ab8:	00000000 	nop

9d008abc <Blab2>:
9d008abc:	012b6023 	subu	t4,t1,t3
9d008ac0:	0580000d 	bltz	t4,9d008af8 <i1>
9d008ac4:	00000000 	nop
9d008ac8:	29810020 	slti	at,t4,32
9d008acc:	14200003 	bnez	at,9d008adc <i2>
9d008ad0:	00000000 	nop
9d008ad4:	10000015 	b	9d008b2c <e1>
9d008ad8:	240a0002 	li	t2,2

9d008adc <i2>:
9d008adc:	000a3025 	or	a2,zero,t2
9d008ae0:	018a5006 	srlv	t2,t2,t4
9d008ae4:	018a6804 	sllv	t5,t2,t4
9d008ae8:	11a60010 	beq	t5,a2,9d008b2c <e1>
9d008aec:	00000000 	nop
9d008af0:	1000000e 	b	9d008b2c <e1>
9d008af4:	354a0002 	ori	t2,t2,0x2

9d008af8 <i1>:
9d008af8:	000b4825 	or	t1,zero,t3
9d008afc:	000c6023 	negu	t4,t4
9d008b00:	29810020 	slti	at,t4,32
9d008b04:	14200003 	bnez	at,9d008b14 <i4>
9d008b08:	00000000 	nop
9d008b0c:	10000007 	b	9d008b2c <e1>
9d008b10:	24080002 	li	t0,2

9d008b14 <i4>:
9d008b14:	00083025 	or	a2,zero,t0
9d008b18:	01884006 	srlv	t0,t0,t4
9d008b1c:	01886804 	sllv	t5,t0,t4
9d008b20:	11a60002 	beq	t5,a2,9d008b2c <e1>
9d008b24:	00000000 	nop
9d008b28:	35080002 	ori	t0,t0,0x2

9d008b2c <e1>:
9d008b2c:	00876024 	and	t4,a0,a3
9d008b30:	01856826 	xor	t5,t4,a1
9d008b34:	05a00010 	bltz	t5,9d008b78 <Bsub1>
9d008b38:	00000000 	nop
9d008b3c:	010a4021 	addu	t0,t0,t2
9d008b40:	010a682b 	sltu	t5,t0,t2
9d008b44:	11a00017 	beqz	t5,9d008ba4 <Bres>
9d008b48:	00000000 	nop
9d008b4c:	310d0001 	andi	t5,t0,0x1
9d008b50:	11a00002 	beqz	t5,9d008b5c <i7>
9d008b54:	00000000 	nop
9d008b58:	35080002 	ori	t0,t0,0x2

9d008b5c <i7>:
9d008b5c:	00084042 	srl	t0,t0,0x1
9d008b60:	25290001 	addiu	t1,t1,1
9d008b64:	240100ff 	li	at,255
9d008b68:	1521000e 	bne	t1,at,9d008ba4 <Bres>
9d008b6c:	00000000 	nop
9d008b70:	1000000c 	b	9d008ba4 <Bres>
9d008b74:	24080000 	li	t0,0

9d008b78 <Bsub1>:
9d008b78:	010a682b 	sltu	t5,t0,t2
9d008b7c:	11a00004 	beqz	t5,9d008b90 <i9>
9d008b80:	010a4023 	subu	t0,t0,t2
9d008b84:	00084023 	negu	t0,t0
9d008b88:	10000003 	b	9d008b98 <e9>
9d008b8c:	01876026 	xor	t4,t4,a3

9d008b90 <i9>:
9d008b90:	11000050 	beqz	t0,9d008cd4 <Bzer>
9d008b94:	00000000 	nop

9d008b98 <e9>:
9d008b98:	71063020 	clz	a2,t0
9d008b9c:	01264823 	subu	t1,t1,a2
9d008ba0:	00c84004 	sllv	t0,t0,a2

9d008ba4 <Bres>:
9d008ba4:	1920000e 	blez	t1,9d008be0 <Bund>
9d008ba8:	00000000 	nop

9d008bac <Blab12>:
9d008bac:	25080080 	addiu	t0,t0,128
9d008bb0:	2d0d0080 	sltiu	t5,t0,128
9d008bb4:	012d4821 	addu	t1,t1,t5
9d008bb8:	00086a02 	srl	t5,t0,0x8
9d008bbc:	31ad0001 	andi	t5,t5,0x1
9d008bc0:	010d4023 	subu	t0,t0,t5
9d008bc4:	00084040 	sll	t0,t0,0x1
9d008bc8:	00084242 	srl	t0,t0,0x9
9d008bcc:	00096dc0 	sll	t5,t1,0x17
9d008bd0:	010d4025 	or	t0,t0,t5
9d008bd4:	010c1025 	or	v0,t0,t4

9d008bd8 <B999>:
9d008bd8:	03e00008 	jr	ra
9d008bdc:	00000000 	nop

9d008be0 <Bund>:
9d008be0:	24060001 	li	a2,1
9d008be4:	00c93023 	subu	a2,a2,t1
9d008be8:	2cc10020 	sltiu	at,a2,32
9d008bec:	10200039 	beqz	at,9d008cd4 <Bzer>
9d008bf0:	00000000 	nop
9d008bf4:	3c018000 	lui	at,0x8000
9d008bf8:	01014025 	or	t0,t0,at
9d008bfc:	240d0020 	li	t5,32
9d008c00:	01a66823 	subu	t5,t5,a2
9d008c04:	01a84804 	sllv	t1,t0,t5
9d008c08:	11200002 	beqz	t1,9d008c14 <i10>
9d008c0c:	00c84006 	srlv	t0,t0,a2
9d008c10:	35080001 	ori	t0,t0,0x1

9d008c14 <i10>:
9d008c14:	24090000 	li	t1,0
9d008c18:	250d0080 	addiu	t5,t0,128
9d008c1c:	05a1ffe3 	bgez	t5,9d008bac <Blab12>
9d008c20:	00000000 	nop
9d008c24:	1000ffe1 	b	9d008bac <Blab12>
9d008c28:	24090001 	li	t1,1

9d008c2c <BspecA>:
9d008c2c:	1520000e 	bnez	t1,9d008c68 <i12>
9d008c30:	00000000 	nop
9d008c34:	01084021 	addu	t0,t0,t0
9d008c38:	11000005 	beqz	t0,9d008c50 <i13>
9d008c3c:	00000000 	nop
9d008c40:	710c6020 	clz	t4,t0
9d008c44:	012c4823 	subu	t1,t1,t4
9d008c48:	1000ff98 	b	9d008aac <Blab1>
9d008c4c:	01884004 	sllv	t0,t0,t4

9d008c50 <i13>:
9d008c50:	240100ff 	li	at,255
9d008c54:	1161000f 	beq	t3,at,9d008c94 <BspecB>
9d008c58:	00000000 	nop
9d008c5c:	3c018000 	lui	at,0x8000
9d008c60:	14a10018 	bne	a1,at,9d008cc4 <BretB>
9d008c64:	00000000 	nop

9d008c68 <i12>:
9d008c68:	01086821 	addu	t5,t0,t0
9d008c6c:	15a0001b 	bnez	t5,9d008cdc <Bnan>
9d008c70:	00000000 	nop
9d008c74:	240100ff 	li	at,255
9d008c78:	15610014 	bne	t3,at,9d008ccc <BretA>
9d008c7c:	00000000 	nop
9d008c80:	00856826 	xor	t5,a0,a1
9d008c84:	05a00015 	bltz	t5,9d008cdc <Bnan>
9d008c88:	00000000 	nop
9d008c8c:	1000000d 	b	9d008cc4 <BretB>
9d008c90:	00000000 	nop

9d008c94 <BspecB>:
9d008c94:	15600008 	bnez	t3,9d008cb8 <i15>
9d008c98:	00000000 	nop
9d008c9c:	014a5021 	addu	t2,t2,t2
9d008ca0:	1140000a 	beqz	t2,9d008ccc <BretA>
9d008ca4:	00000000 	nop
9d008ca8:	714c6020 	clz	t4,t2
9d008cac:	016c5823 	subu	t3,t3,t4
9d008cb0:	1000ff82 	b	9d008abc <Blab2>
9d008cb4:	018a5004 	sllv	t2,t2,t4

9d008cb8 <i15>:
9d008cb8:	014a6821 	addu	t5,t2,t2
9d008cbc:	15a00007 	bnez	t5,9d008cdc <Bnan>
9d008cc0:	00000000 	nop

9d008cc4 <BretB>:
9d008cc4:	1000ffc4 	b	9d008bd8 <B999>
9d008cc8:	00051025 	or	v0,zero,a1

9d008ccc <BretA>:
9d008ccc:	1000ffc2 	b	9d008bd8 <B999>
9d008cd0:	00041025 	or	v0,zero,a0

9d008cd4 <Bzer>:
9d008cd4:	1000ffc0 	b	9d008bd8 <B999>
9d008cd8:	24020000 	li	v0,0

9d008cdc <Bnan>:
9d008cdc:	1000ffbe 	b	9d008bd8 <B999>
9d008ce0:	3c02ffc0 	lui	v0,0xffc0
9d008ce4:	00000000 	nop

Disassembly of section .text.fp32div:

9d008ce8 <__divsf3>:
9d008ce8:	3c0b8000 000445c2 310800ff 000555c2     ...<.E.....1.U..
9d008cf8:	314a00ff 00043a00 00eb3825 00054a00     ..J1.:..%8...J..
9d008d08:	012b4825 00857026 016e5824 250effff     %H+.&p..$Xn....%
9d008d18:	2dc100fe 1020003f 00000000              ...-?. .....

9d008d24 <Dlab1>:
9d008d24:	254effff 	addiu	t6,t2,-1
9d008d28:	2dc100fe 	sltiu	at,t6,254
9d008d2c:	10200053 	beqz	at,9d008e7c <DspecB>
9d008d30:	00000000 	nop

9d008d34 <Dlab2>:
9d008d34:	00e9082b 	sltu	at,a3,t1
9d008d38:	14200003 	bnez	at,9d008d48 <i27>
9d008d3c:	00000000 	nop
9d008d40:	00073842 	srl	a3,a3,0x1
9d008d44:	25080001 	addiu	t0,t0,1

9d008d48 <i27>:
9d008d48:	00096382 	srl	t4,t1,0xe
9d008d4c:	018001f4 	teq	t4,zero,0x7
9d008d50:	00ec001b 	divu	zero,a3,t4
9d008d54:	00002012 	mflo	a0
9d008d58:	00003010 	mfhi	a2
9d008d5c:	312d3fff 	andi	t5,t1,0x3fff
9d008d60:	01a40019 	multu	t5,a0
9d008d64:	00002812 	mflo	a1
9d008d68:	00063380 	sll	a2,a2,0xe
9d008d6c:	00c5702b 	sltu	t6,a2,a1
9d008d70:	11c00004 	beqz	t6,9d008d84 <i28>
9d008d74:	00c53023 	subu	a2,a2,a1
9d008d78:	2484ffff 	addiu	a0,a0,-1
9d008d7c:	00c93021 	addu	a2,a2,t1
9d008d80:	00c9702b 	sltu	t6,a2,t1

9d008d84 <i28>:
9d008d84:	018001f4 	teq	t4,zero,0x7
9d008d88:	00cc001b 	divu	zero,a2,t4
9d008d8c:	00003812 	mflo	a3
9d008d90:	00003010 	mfhi	a2
9d008d94:	01a70019 	multu	t5,a3
9d008d98:	00002812 	mflo	a1
9d008d9c:	00063380 	sll	a2,a2,0xe
9d008da0:	00c5702b 	sltu	t6,a2,a1
9d008da4:	11c00004 	beqz	t6,9d008db8 <i29>
9d008da8:	00c53023 	subu	a2,a2,a1
9d008dac:	24e7ffff 	addiu	a3,a3,-1
9d008db0:	00c93021 	addu	a2,a2,t1
9d008db4:	00c9702b 	sltu	t6,a2,t1

9d008db8 <i29>:
9d008db8:	00047380 	sll	t6,a0,0xe
9d008dbc:	00ee3821 	addu	a3,a3,t6
9d008dc0:	10c00002 	beqz	a2,9d008dcc <i30>
9d008dc4:	00073900 	sll	a3,a3,0x4
9d008dc8:	34e70001 	ori	a3,a3,0x1

9d008dcc <i30>:
9d008dcc:	240e007e 	li	t6,126
9d008dd0:	01ca7023 	subu	t6,t6,t2
9d008dd4:	010e4021 	addu	t0,t0,t6
9d008dd8:	250effff 	addiu	t6,t0,-1
9d008ddc:	2dc100fe 	sltiu	at,t6,254
9d008de0:	10200034 	beqz	at,9d008eb4 <Doveund>
9d008de4:	00000000 	nop

9d008de8 <Dlab8>:
9d008de8:	24e70080 	addiu	a3,a3,128
9d008dec:	2cee0080 	sltiu	t6,a3,128
9d008df0:	010e4021 	addu	t0,t0,t6
9d008df4:	00077202 	srl	t6,a3,0x8
9d008df8:	31ce0001 	andi	t6,t6,0x1
9d008dfc:	00ee3823 	subu	a3,a3,t6
9d008e00:	00073840 	sll	a3,a3,0x1
9d008e04:	00073a42 	srl	a3,a3,0x9
9d008e08:	000875c0 	sll	t6,t0,0x17
9d008e0c:	00ee3825 	or	a3,a3,t6
9d008e10:	00eb1025 	or	v0,a3,t3

9d008e14 <D999>:
9d008e14:	03e00008 	jr	ra
9d008e18:	00000000 	nop

9d008e1c <DspecA>:
9d008e1c:	15000008 	bnez	t0,9d008e40 <i31>
9d008e20:	00000000 	nop
9d008e24:	00e73821 	addu	a3,a3,a3
9d008e28:	10e00005 	beqz	a3,9d008e40 <i31>
9d008e2c:	00000000 	nop
9d008e30:	70ec6020 	clz	t4,a3
9d008e34:	010c4023 	subu	t0,t0,t4
9d008e38:	1000ffba 	b	9d008d24 <Dlab1>
9d008e3c:	01873804 	sllv	a3,a3,t4

9d008e40 <i31>:
9d008e40:	15480004 	bne	t2,t0,9d008e54 <i33>
9d008e44:	00000000 	nop
9d008e48:	01297021 	addu	t6,t1,t1
9d008e4c:	11c0002f 	beqz	t6,9d008f0c <Dnan>
9d008e50:	00000000 	nop

9d008e54 <i33>:
9d008e54:	240100ff 	li	at,255
9d008e58:	11410008 	beq	t2,at,9d008e7c <DspecB>
9d008e5c:	00000000 	nop
9d008e60:	11000012 	beqz	t0,9d008eac <Dzer>
9d008e64:	00000000 	nop
9d008e68:	00e77021 	addu	t6,a3,a3
9d008e6c:	15c00027 	bnez	t6,9d008f0c <Dnan>
9d008e70:	00000000 	nop
9d008e74:	10000022 	b	9d008f00 <Dinf>
9d008e78:	00000000 	nop

9d008e7c <DspecB>:
9d008e7c:	15400008 	bnez	t2,9d008ea0 <i34>
9d008e80:	00000000 	nop
9d008e84:	01294821 	addu	t1,t1,t1
9d008e88:	1120001d 	beqz	t1,9d008f00 <Dinf>
9d008e8c:	00000000 	nop
9d008e90:	712c6020 	clz	t4,t1
9d008e94:	014c5023 	subu	t2,t2,t4
9d008e98:	1000ffa6 	b	9d008d34 <Dlab2>
9d008e9c:	01894804 	sllv	t1,t1,t4

9d008ea0 <i34>:
9d008ea0:	01297021 	addu	t6,t1,t1
9d008ea4:	15c00019 	bnez	t6,9d008f0c <Dnan>
9d008ea8:	00000000 	nop

9d008eac <Dzer>:
9d008eac:	1000ffd9 	b	9d008e14 <D999>
9d008eb0:	000b1025 	or	v0,zero,t3

9d008eb4 <Doveund>:
9d008eb4:	1d000012 	bgtz	t0,9d008f00 <Dinf>
9d008eb8:	00000000 	nop
9d008ebc:	240c0001 	li	t4,1
9d008ec0:	01886023 	subu	t4,t4,t0
9d008ec4:	2d810020 	sltiu	at,t4,32
9d008ec8:	1020fff8 	beqz	at,9d008eac <Dzer>
9d008ecc:	00000000 	nop
9d008ed0:	240e0020 	li	t6,32
9d008ed4:	01cc7023 	subu	t6,t6,t4
9d008ed8:	01c74004 	sllv	t0,a3,t6
9d008edc:	11000002 	beqz	t0,9d008ee8 <i37>
9d008ee0:	01873806 	srlv	a3,a3,t4
9d008ee4:	34e70002 	ori	a3,a3,0x2

9d008ee8 <i37>:
9d008ee8:	24080000 	li	t0,0
9d008eec:	24ee0080 	addiu	t6,a3,128
9d008ef0:	05c1ffbd 	bgez	t6,9d008de8 <Dlab8>
9d008ef4:	00000000 	nop
9d008ef8:	1000ffbb 	b	9d008de8 <Dlab8>
9d008efc:	24080001 	li	t0,1

9d008f00 <Dinf>:
9d008f00:	3c017f80 	lui	at,0x7f80
9d008f04:	1000ffc3 	b	9d008e14 <D999>
9d008f08:	01611025 	or	v0,t3,at

9d008f0c <Dnan>:
9d008f0c:	1000ffc1 	b	9d008e14 <D999>
9d008f10:	3c02ffc0 	lui	v0,0xffc0
9d008f14:	00000000 	nop

Disassembly of section .text:

9d008f18 <NU32_Startup>:

// Perform startup routines:
//  Make NU32_LED1 and NU32_LED2 pins outputs (NU32_USER is by default an input)
//  Initialize the serial port - UART3 (no interrupt) 
//  Enable interrupts
void NU32_Startup() {
9d008f18:	27bdfff8 	addiu	sp,sp,-8
9d008f1c:	afbf0004 	sw	ra,4(sp)
  // disable interrupts
  __builtin_disable_interrupts();
9d008f20:	41626000 	di	v0
9d008f24:	000000c0 	ehb
  // see Chapter 2 "CPU for Devices with M4K Core" of the PIC32 reference manual
  // most of the other bits have prescribed values
  // microchip does not provide a _CP0_SET_CONFIG macro, so we directly use
  // the compiler built-in command _mtc0
  // to disable cache, use 0xa4210582 
  __builtin_mtc0(_CP0_CONFIG, _CP0_CONFIG_SELECT, 0xa4210583); 
9d008f28:	3c02a421 	lui	v0,0xa421
9d008f2c:	24420583 	addiu	v0,v0,1411
9d008f30:	40828000 	mtc0	v0,c0_config
9d008f34:	000000c0 	ehb
  
  // set the prefectch cache wait state to 2, as per the
  // electrical characteristics data sheet
  CHECONbits.PFMWS = 0x2;   
9d008f38:	3c02bf88 	lui	v0,0xbf88
9d008f3c:	8c434000 	lw	v1,16384(v0)
9d008f40:	24050002 	li	a1,2
9d008f44:	7ca31004 	ins	v1,a1,0x0,0x3
9d008f48:	ac434000 	sw	v1,16384(v0)

  //enable prefetch for cacheable and noncacheable memory
  CHECONbits.PREFEN = 0x3; 
9d008f4c:	8c434000 	lw	v1,16384(v0)
9d008f50:	24040003 	li	a0,3
9d008f54:	7c832904 	ins	v1,a0,0x4,0x2
9d008f58:	ac434000 	sw	v1,16384(v0)

  // 0 data RAM access wait states
  BMXCONbits.BMXWSDRM = 0x0;
9d008f5c:	3c02bf88 	lui	v0,0xbf88
9d008f60:	8c432000 	lw	v1,8192(v0)
9d008f64:	7c033184 	ins	v1,zero,0x6,0x1
9d008f68:	ac432000 	sw	v1,8192(v0)
  
  // enable multi vector interrupts
  INTCONbits.MVEC = 0x1;
9d008f6c:	3c02bf88 	lui	v0,0xbf88
9d008f70:	8c461000 	lw	a2,4096(v0)
9d008f74:	24030001 	li	v1,1
9d008f78:	7c666304 	ins	a2,v1,0xc,0x1
9d008f7c:	ac461000 	sw	a2,4096(v0)

  // disable JTAG to get B10, B11, B12 and B13 back
  DDPCONbits.JTAGEN = 0;
9d008f80:	3c02bf81 	lui	v0,0xbf81
9d008f84:	9046f200 	lbu	a2,-3584(v0)
9d008f88:	7c0618c4 	ins	a2,zero,0x3,0x1
9d008f8c:	a046f200 	sb	a2,-3584(v0)

  TRISFCLR = 0x0003;  // Make F0 and F1 outputs (LED1 and LED2)
9d008f90:	3c02bf88 	lui	v0,0xbf88
9d008f94:	ac446144 	sw	a0,24900(v0)
  NU32_LED1 = 1;      // LED1 is off
9d008f98:	3c02bf88 	lui	v0,0xbf88
9d008f9c:	90446160 	lbu	a0,24928(v0)
9d008fa0:	7c640004 	ins	a0,v1,0x0,0x1
9d008fa4:	a0446160 	sb	a0,24928(v0)
  NU32_LED2 = 0;      // LED2 is on
9d008fa8:	90446160 	lbu	a0,24928(v0)
9d008fac:	7c040844 	ins	a0,zero,0x1,0x1
9d008fb0:	a0446160 	sb	a0,24928(v0)

  // turn on UART3 without an interrupt
  U3MODEbits.BRGH = 0; // set baud to NU32_DESIRED_BAUD
9d008fb4:	3c02bf80 	lui	v0,0xbf80
9d008fb8:	94446400 	lhu	a0,25600(v0)
9d008fbc:	7c0418c4 	ins	a0,zero,0x3,0x1
9d008fc0:	a4446400 	sh	a0,25600(v0)
  U3BRG = ((NU32_SYS_FREQ / NU32_DESIRED_BAUD) / 16) - 1;
9d008fc4:	24060014 	li	a2,20
9d008fc8:	3c04bf80 	lui	a0,0xbf80
9d008fcc:	ac866440 	sw	a2,25664(a0)

  // 8 bit, no parity bit, and 1 stop bit (8N1 setup)
  U3MODEbits.PDSEL = 0;
9d008fd0:	94446400 	lhu	a0,25600(v0)
9d008fd4:	7c041044 	ins	a0,zero,0x1,0x2
9d008fd8:	a4446400 	sh	a0,25600(v0)
  U3MODEbits.STSEL = 0;
9d008fdc:	94446400 	lhu	a0,25600(v0)
9d008fe0:	7c040004 	ins	a0,zero,0x0,0x1
9d008fe4:	a4446400 	sh	a0,25600(v0)

  // configure TX & RX pins as output & input pins
  U3STAbits.UTXEN = 1;
9d008fe8:	3c04bf80 	lui	a0,0xbf80
9d008fec:	8c866410 	lw	a2,25616(a0)
9d008ff0:	7c665284 	ins	a2,v1,0xa,0x1
9d008ff4:	ac866410 	sw	a2,25616(a0)
  U3STAbits.URXEN = 1;
9d008ff8:	8c866410 	lw	a2,25616(a0)
9d008ffc:	7c666304 	ins	a2,v1,0xc,0x1
9d009000:	ac866410 	sw	a2,25616(a0)
  // configure hardware flow control using RTS and CTS
  U3MODEbits.UEN = 2;
9d009004:	94446400 	lhu	a0,25600(v0)
9d009008:	7ca44a04 	ins	a0,a1,0x8,0x2
9d00900c:	a4446400 	sh	a0,25600(v0)

  // enable the uart
  U3MODEbits.ON = 1;
9d009010:	94446400 	lhu	a0,25600(v0)
9d009014:	7c647bc4 	ins	a0,v1,0xf,0x1
9d009018:	a4446400 	sh	a0,25600(v0)

  __builtin_enable_interrupts();
9d00901c:	41626020 	ei	v0
}
9d009020:	8fbf0004 	lw	ra,4(sp)
9d009024:	03e00008 	jr	ra
9d009028:	27bd0008 	addiu	sp,sp,8

9d00902c <NU32_ReadUART3>:
// Read from UART3
// block other functions until you get a '\r' or '\n'
// send the pointer to your char array and the number of elements in the array
void NU32_ReadUART3(char * message, int maxLength) {
  char data = 0;
  int complete = 0, num_bytes = 0;
9d00902c:	00003021 	move	a2,zero
  // loop until you get a '\r' or '\n'
  while (!complete) {
    if (U3STAbits.URXDA) { // if data is available
9d009030:	3c03bf80 	lui	v1,0xbf80
      data = U3RXREG;      // read the data
9d009034:	3c08bf80 	lui	t0,0xbf80
      if ((data == '\n') || (data == '\r')) {
9d009038:	2407000a 	li	a3,10
9d00903c:	0b40241f 	j	9d00907c <NU32_ReadUART3+0x50>
9d009040:	2409000d 	li	t1,13
void NU32_ReadUART3(char * message, int maxLength) {
  char data = 0;
  int complete = 0, num_bytes = 0;
  // loop until you get a '\r' or '\n'
  while (!complete) {
    if (U3STAbits.URXDA) { // if data is available
9d009044:	8c626410 	lw	v0,25616(v1)
9d009048:	30420001 	andi	v0,v0,0x1
9d00904c:	1040fffd 	beqz	v0,9d009044 <NU32_ReadUART3+0x18>
9d009050:	00000000 	nop
      data = U3RXREG;      // read the data
9d009054:	8d026430 	lw	v0,25648(t0)
9d009058:	7c021420 	seb	v0,v0
      if ((data == '\n') || (data == '\r')) {
9d00905c:	5047000e 	beql	v0,a3,9d009098 <NU32_ReadUART3+0x6c>
9d009060:	00862021 	addu	a0,a0,a2
9d009064:	1049000b 	beq	v0,t1,9d009094 <NU32_ReadUART3+0x68>
9d009068:	00865021 	addu	t2,a0,a2
        complete = 1;
      } else {
        message[num_bytes] = data;
9d00906c:	a1420000 	sb	v0,0(t2)
        ++num_bytes;
9d009070:	24c60001 	addiu	a2,a2,1
        // roll over if the array is too small
        if (num_bytes >= maxLength) {
9d009074:	00c5102a 	slt	v0,a2,a1
          num_bytes = 0;
9d009078:	0002300a 	movz	a2,zero,v0
void NU32_ReadUART3(char * message, int maxLength) {
  char data = 0;
  int complete = 0, num_bytes = 0;
  // loop until you get a '\r' or '\n'
  while (!complete) {
    if (U3STAbits.URXDA) { // if data is available
9d00907c:	8c626410 	lw	v0,25616(v1)
9d009080:	30420001 	andi	v0,v0,0x1
9d009084:	1040ffef 	beqz	v0,9d009044 <NU32_ReadUART3+0x18>
9d009088:	00000000 	nop
9d00908c:	0b402415 	j	9d009054 <NU32_ReadUART3+0x28>
9d009090:	00000000 	nop
        }
      }
    }
  }
  // end the string
  message[num_bytes] = '\0';
9d009094:	00862021 	addu	a0,a0,a2
9d009098:	03e00008 	jr	ra
9d00909c:	a0800000 	sb	zero,0(a0)

9d0090a0 <NU32_WriteUART3>:
}

// Write a character array using UART3
void NU32_WriteUART3(const char * string) {
  while (*string != '\0') {
9d0090a0:	80850000 	lb	a1,0(a0)
9d0090a4:	10a0000b 	beqz	a1,9d0090d4 <NU32_WriteUART3+0x34>
9d0090a8:	3c03bf80 	lui	v1,0xbf80
    while (U3STAbits.UTXBF) {
      ; // wait until tx buffer isn't full
    }
    U3TXREG = *string;
9d0090ac:	3c06bf80 	lui	a2,0xbf80
}

// Write a character array using UART3
void NU32_WriteUART3(const char * string) {
  while (*string != '\0') {
    while (U3STAbits.UTXBF) {
9d0090b0:	8c626410 	lw	v0,25616(v1)
9d0090b4:	30420200 	andi	v0,v0,0x200
9d0090b8:	1440fffd 	bnez	v0,9d0090b0 <NU32_WriteUART3+0x10>
9d0090bc:	00000000 	nop
      ; // wait until tx buffer isn't full
    }
    U3TXREG = *string;
9d0090c0:	acc56420 	sw	a1,25632(a2)
    ++string;
9d0090c4:	24840001 	addiu	a0,a0,1
  message[num_bytes] = '\0';
}

// Write a character array using UART3
void NU32_WriteUART3(const char * string) {
  while (*string != '\0') {
9d0090c8:	80850000 	lb	a1,0(a0)
9d0090cc:	14a0fff8 	bnez	a1,9d0090b0 <NU32_WriteUART3+0x10>
9d0090d0:	00000000 	nop
9d0090d4:	03e00008 	jr	ra
9d0090d8:	00000000 	nop

Disassembly of section .text.fp32mul:

9d0090dc <__mulsf3>:
9d0090dc:	00043dc2 30e700ff 00054dc2 312900ff     .=.....0.M....)1
9d0090ec:	3c0a8000 00043200 00ca3025 00054200     ...<.2..%0...B..
9d0090fc:	010a4025 00856026 014c5024 24ecffff     %@..&`..$PL....$
9d00910c:	2d8100fe 10200021 00000000              ...-!. .....

9d009118 <Clab1>:
9d009118:	252cffff 	addiu	t4,t1,-1
9d00911c:	2d8100fe 	sltiu	at,t4,254
9d009120:	10200036 	beqz	at,9d0091fc <CspecB>
9d009124:	00000000 	nop

9d009128 <Clab2>:
9d009128:	00c80019 	multu	a2,t0
9d00912c:	00005812 	mflo	t3
9d009130:	11600002 	beqz	t3,9d00913c <i17>
9d009134:	00003010 	mfhi	a2
9d009138:	34c60001 	ori	a2,a2,0x1

9d00913c <i17>:
9d00913c:	04c00003 	bltz	a2,9d00914c <i18>
9d009140:	00000000 	nop
9d009144:	00063040 	sll	a2,a2,0x1
9d009148:	24e7ffff 	addiu	a3,a3,-1

9d00914c <i18>:
9d00914c:	252cff82 	addiu	t4,t1,-126
9d009150:	00ec3821 	addu	a3,a3,t4
9d009154:	24ecffff 	addiu	t4,a3,-1
9d009158:	2d8100fe 	sltiu	at,t4,254
9d00915c:	1020003a 	beqz	at,9d009248 <Coveund>
9d009160:	00000000 	nop

9d009164 <Clab8>:
9d009164:	24c60080 	addiu	a2,a2,128
9d009168:	2ccc0080 	sltiu	t4,a2,128
9d00916c:	00ec3821 	addu	a3,a3,t4
9d009170:	00066202 	srl	t4,a2,0x8
9d009174:	318c0001 	andi	t4,t4,0x1
9d009178:	00cc3023 	subu	a2,a2,t4
9d00917c:	00063040 	sll	a2,a2,0x1
9d009180:	00063242 	srl	a2,a2,0x9
9d009184:	000765c0 	sll	t4,a3,0x17
9d009188:	00cc3025 	or	a2,a2,t4
9d00918c:	00ca1025 	or	v0,a2,t2

9d009190 <C999>:
9d009190:	03e00008 	jr	ra
9d009194:	00000000 	nop

9d009198 <CspecA>:
9d009198:	14e0000d 	bnez	a3,9d0091d0 <i19>
9d00919c:	00000000 	nop
9d0091a0:	00c63021 	addu	a2,a2,a2
9d0091a4:	10c00005 	beqz	a2,9d0091bc <i20>
9d0091a8:	00000000 	nop
9d0091ac:	70cb5820 	clz	t3,a2
9d0091b0:	00eb3823 	subu	a3,a3,t3
9d0091b4:	1000ffd8 	b	9d009118 <Clab1>
9d0091b8:	01663004 	sllv	a2,a2,t3

9d0091bc <i20>:
9d0091bc:	240100ff 	li	at,255
9d0091c0:	1121001f 	beq	t1,at,9d009240 <Cnan>
9d0091c4:	00000000 	nop
9d0091c8:	10000015 	b	9d009220 <Czer>
9d0091cc:	00000000 	nop

9d0091d0 <i19>:
9d0091d0:	00c66021 	addu	t4,a2,a2
9d0091d4:	1580001a 	bnez	t4,9d009240 <Cnan>
9d0091d8:	00000000 	nop
9d0091dc:	15200004 	bnez	t1,9d0091f0 <i21>
9d0091e0:	00000000 	nop
9d0091e4:	01086021 	addu	t4,t0,t0
9d0091e8:	11800015 	beqz	t4,9d009240 <Cnan>
9d0091ec:	00000000 	nop

9d0091f0 <i21>:
9d0091f0:	240100ff 	li	at,255
9d0091f4:	1521000f 	bne	t1,at,9d009234 <Cinf>
9d0091f8:	00000000 	nop

9d0091fc <CspecB>:
9d0091fc:	1520000a 	bnez	t1,9d009228 <i22>
9d009200:	00000000 	nop
9d009204:	01084021 	addu	t0,t0,t0
9d009208:	11000005 	beqz	t0,9d009220 <Czer>
9d00920c:	00000000 	nop
9d009210:	710b5820 	clz	t3,t0
9d009214:	012b4823 	subu	t1,t1,t3
9d009218:	1000ffc3 	b	9d009128 <Clab2>
9d00921c:	01684004 	sllv	t0,t0,t3

9d009220 <Czer>:
9d009220:	1000ffdb 	b	9d009190 <C999>
9d009224:	000a1025 	or	v0,zero,t2

9d009228 <i22>:
9d009228:	01086021 	addu	t4,t0,t0
9d00922c:	15800004 	bnez	t4,9d009240 <Cnan>
9d009230:	00000000 	nop

9d009234 <Cinf>:
9d009234:	3c017f80 	lui	at,0x7f80
9d009238:	1000ffd5 	b	9d009190 <C999>
9d00923c:	01411025 	or	v0,t2,at

9d009240 <Cnan>:
9d009240:	1000ffd3 	b	9d009190 <C999>
9d009244:	3c02ffc0 	lui	v0,0xffc0

9d009248 <Coveund>:
9d009248:	1ce0fffa 	bgtz	a3,9d009234 <Cinf>
9d00924c:	00000000 	nop
9d009250:	240b0001 	li	t3,1
9d009254:	01675823 	subu	t3,t3,a3
9d009258:	2d610020 	sltiu	at,t3,32
9d00925c:	1020fff0 	beqz	at,9d009220 <Czer>
9d009260:	00000000 	nop
9d009264:	240c0020 	li	t4,32
9d009268:	018b6023 	subu	t4,t4,t3
9d00926c:	01863804 	sllv	a3,a2,t4
9d009270:	10e00002 	beqz	a3,9d00927c <i25>
9d009274:	01663006 	srlv	a2,a2,t3
9d009278:	34c60002 	ori	a2,a2,0x2

9d00927c <i25>:
9d00927c:	24070000 	li	a3,0
9d009280:	24cc0080 	addiu	t4,a2,128
9d009284:	0581ffb7 	bgez	t4,9d009164 <Clab8>
9d009288:	00000000 	nop
9d00928c:	1000ffb5 	b	9d009164 <Clab8>
9d009290:	24070001 	li	a3,1
9d009294:	00000000 	nop

Disassembly of section .text.__ldexp:

9d009298 <__ldexp>:
9d009298:	27bdffe0 	addiu	sp,sp,-32

9d00929c <.LCFI0>:
9d00929c:	afbf001c 	sw	ra,28(sp)
9d0092a0:	afb20018 	sw	s2,24(sp)
9d0092a4:	afb10014 	sw	s1,20(sp)
9d0092a8:	afb00010 	sw	s0,16(sp)
9d0092ac:	7ca75500 	ext	a3,a1,0x14,0xb
9d0092b0:	24e2ffff 	addiu	v0,a3,-1
9d0092b4:	7ca89800 	ext	t0,a1,0x0,0x14
9d0092b8:	2c4907fe 	sltiu	t1,v0,2046
9d0092bc:	00c08821 	move	s1,a2
9d0092c0:	000587c2 	srl	s0,a1,0x1f
9d0092c4:	00801021 	move	v0,a0
9d0092c8:	11200041 	beqz	t1,9d0093d0 <.LCFI0+0x134>
9d0092cc:	01001821 	move	v1,t0
9d0092d0:	24e7fc01 	addiu	a3,a3,-1023
9d0092d4:	3c040010 	lui	a0,0x10
9d0092d8:	01041825 	or	v1,t0,a0
9d0092dc:	00f13821 	addu	a3,a3,s1
9d0092e0:	00022f42 	srl	a1,v0,0x1d
9d0092e4:	000318c0 	sll	v1,v1,0x3
9d0092e8:	24e403ff 	addiu	a0,a3,1023
9d0092ec:	00a31825 	or	v1,a1,v1
9d0092f0:	18800025 	blez	a0,9d009388 <.LCFI0+0xec>
9d0092f4:	000210c0 	sll	v0,v0,0x3
9d0092f8:	30450007 	andi	a1,v0,0x7
9d0092fc:	14a00015 	bnez	a1,9d009354 <.LCFI0+0xb8>
9d009300:	7c4500c0 	ext	a1,v0,0x3,0x1
9d009304:	00033740 	sll	a2,v1,0x1d
9d009308:	000210c2 	srl	v0,v0,0x3
9d00930c:	288507ff 	slti	a1,a0,2047
9d009310:	00c21025 	or	v0,a2,v0
9d009314:	10a00036 	beqz	a1,9d0093f0 <.LCFI0+0x154>
9d009318:	000318c2 	srl	v1,v1,0x3
9d00931c:	7c650500 	ext	a1,v1,0x14,0x1
9d009320:	50a00002 	beqzl	a1,9d00932c <.LCFI0+0x90>
9d009324:	00002021 	move	a0,zero
9d009328:	7c639800 	ext	v1,v1,0x0,0x14
9d00932c:	001082c0 	sll	s0,s0,0xb
9d009330:	00902025 	or	a0,a0,s0
9d009334:	00042500 	sll	a0,a0,0x14
9d009338:	00831825 	or	v1,a0,v1
9d00933c:	8fbf001c 	lw	ra,28(sp)
9d009340:	8fb20018 	lw	s2,24(sp)
9d009344:	8fb10014 	lw	s1,20(sp)
9d009348:	8fb00010 	lw	s0,16(sp)
9d00934c:	03e00008 	jr	ra
9d009350:	27bd0020 	addiu	sp,sp,32
9d009354:	24a50003 	addiu	a1,a1,3
9d009358:	00452821 	addu	a1,v0,a1
9d00935c:	00a2102b 	sltu	v0,a1,v0
9d009360:	00431821 	addu	v1,v0,v1
9d009364:	7c660600 	ext	a2,v1,0x18,0x1
9d009368:	10c0ffe6 	beqz	a2,9d009304 <.LCFI0+0x68>
9d00936c:	00a01021 	move	v0,a1
9d009370:	00032fc0 	sll	a1,v1,0x1f
9d009374:	00021042 	srl	v0,v0,0x1
9d009378:	00a21025 	or	v0,a1,v0
9d00937c:	00031842 	srl	v1,v1,0x1
9d009380:	0b4024c1 	j	9d009304 <.LCFI0+0x68>
9d009384:	24840001 	addiu	a0,a0,1
9d009388:	2406fc02 	li	a2,-1022
9d00938c:	00c73023 	subu	a2,a2,a3
9d009390:	28c40038 	slti	a0,a2,56
9d009394:	5080001b 	beqzl	a0,9d009404 <.LCFI0+0x168>
9d009398:	00001021 	move	v0,zero
9d00939c:	00062023 	negu	a0,a2
9d0093a0:	30850020 	andi	a1,a0,0x20
9d0093a4:	14a00003 	bnez	a1,9d0093b4 <.LCFI0+0x118>
9d0093a8:	00828804 	sllv	s1,v0,a0
9d0093ac:	00832004 	sllv	a0,v1,a0
9d0093b0:	00828825 	or	s1,a0,v0
9d0093b4:	00402021 	move	a0,v0
9d0093b8:	0f402cea 	jal	9d00b3a8 <__lshrdi3>
9d0093bc:	00602821 	move	a1,v1
9d0093c0:	0011882b 	sltu	s1,zero,s1
9d0093c4:	02221025 	or	v0,s1,v0
9d0093c8:	0b4024be 	j	9d0092f8 <.LCFI0+0x5c>
9d0093cc:	24040001 	li	a0,1
9d0093d0:	54e00005 	bnezl	a3,9d0093e8 <.LCFI0+0x14c>
9d0093d4:	00801021 	move	v0,a0
9d0093d8:	01043025 	or	a2,t0,a0
9d0093dc:	14c0000c 	bnez	a2,9d009410 <.LCFI0+0x174>
9d0093e0:	00000000 	nop
9d0093e4:	00801021 	move	v0,a0
9d0093e8:	0b4024cf 	j	9d00933c <.LCFI0+0xa0>
9d0093ec:	00a01821 	move	v1,a1
9d0093f0:	00101ac0 	sll	v1,s0,0xb
9d0093f4:	346307ff 	ori	v1,v1,0x7ff
9d0093f8:	00031d00 	sll	v1,v1,0x14
9d0093fc:	0b4024cf 	j	9d00933c <.LCFI0+0xa0>
9d009400:	00001021 	move	v0,zero
9d009404:	00001821 	move	v1,zero
9d009408:	0b4024cb 	j	9d00932c <.LCFI0+0x90>
9d00940c:	00002021 	move	a0,zero
9d009410:	15000003 	bnez	t0,9d009420 <.LCFI0+0x184>
9d009414:	71129020 	clz	s2,t0
9d009418:	70929020 	clz	s2,a0
9d00941c:	26520020 	addiu	s2,s2,32
9d009420:	2646fff5 	addiu	a2,s2,-11
9d009424:	10c0ffad 	beqz	a2,9d0092dc <.LCFI0+0x40>
9d009428:	2407fc02 	li	a3,-1022
9d00942c:	0f402cfa 	jal	9d00b3e8 <__ashldi3>
9d009430:	01002821 	move	a1,t0
9d009434:	2407fc0d 	li	a3,-1011
9d009438:	0b4024b7 	j	9d0092dc <.LCFI0+0x40>
9d00943c:	00f23823 	subu	a3,a3,s2

Disassembly of section .text._sbrk_init:

9d009440 <_sbrk_init>:
9d009440:	27bdffd8 	addiu	sp,sp,-40

9d009444 <.LCFI0>:
9d009444:	afbf0024 	sw	ra,36(sp)
9d009448:	afb40020 	sw	s4,32(sp)
9d00944c:	afb3001c 	sw	s3,28(sp)
9d009450:	afb20018 	sw	s2,24(sp)
9d009454:	afb10014 	sw	s1,20(sp)
9d009458:	afb00010 	sw	s0,16(sp)
9d00945c:	3c10a000 	lui	s0,0xa000
9d009460:	8e021bcc 	lw	v0,7116(s0)
9d009464:	10400009 	beqz	v0,9d00948c <.LCFI0+0x48>
9d009468:	3c12a000 	lui	s2,0xa000
9d00946c:	8fbf0024 	lw	ra,36(sp)
9d009470:	8fb40020 	lw	s4,32(sp)
9d009474:	8fb3001c 	lw	s3,28(sp)
9d009478:	8fb20018 	lw	s2,24(sp)
9d00947c:	8fb10014 	lw	s1,20(sp)
9d009480:	8fb00010 	lw	s0,16(sp)
9d009484:	03e00008 	jr	ra
9d009488:	27bd0028 	addiu	sp,sp,40
9d00948c:	8e431bd4 	lw	v1,7124(s2)
9d009490:	5060003d 	beqzl	v1,9d009588 <.LCFI0+0x144>
9d009494:	3c03a000 	lui	v1,0xa000
9d009498:	3c13a000 	lui	s3,0xa000
9d00949c:	8e621bd0 	lw	v0,7120(s3)
9d0094a0:	5040003b 	beqzl	v0,9d009590 <.LCFI0+0x14c>
9d0094a4:	3c040000 	lui	a0,0x0
9d0094a8:	00038f82 	srl	s1,v1,0x1e
9d0094ac:	0002a782 	srl	s4,v0,0x1e
9d0094b0:	7c65e000 	ext	a1,v1,0x0,0x1d
9d0094b4:	3a310002 	xori	s1,s1,0x2
9d0094b8:	7c44e000 	ext	a0,v0,0x0,0x1d
9d0094bc:	3a940002 	xori	s4,s4,0x2
9d0094c0:	00b1180a 	movz	v1,a1,s1
9d0094c4:	00608821 	move	s1,v1
9d0094c8:	0094100a 	movz	v0,a0,s4
9d0094cc:	0f402d62 	jal	9d00b588 <_stub_sbd_memlayout>
9d0094d0:	0040a021 	move	s4,v0
9d0094d4:	8c430000 	lw	v1,0(v0)
9d0094d8:	8c440004 	lw	a0,4(v0)
9d0094dc:	0223102b 	sltu	v0,s1,v1
9d0094e0:	10400024 	beqz	v0,9d009574 <.LCFI0+0x130>
9d0094e4:	00642021 	addu	a0,v1,a0
9d0094e8:	3c02a000 	lui	v0,0xa000
9d0094ec:	24420034 	addiu	v0,v0,52
9d0094f0:	7c42e000 	ext	v0,v0,0x0,0x1d
9d0094f4:	0062102b 	sltu	v0,v1,v0
9d0094f8:	1440ffdd 	bnez	v0,9d009470 <.LCFI0+0x2c>
9d0094fc:	8fbf0024 	lw	ra,36(sp)
9d009500:	0283102b 	sltu	v0,s4,v1
9d009504:	14400005 	bnez	v0,9d00951c <.LCFI0+0xd8>
9d009508:	0064102b 	sltu	v0,v1,a0
9d00950c:	0284102b 	sltu	v0,s4,a0
9d009510:	54400004 	bnezl	v0,9d009524 <.LCFI0+0xe0>
9d009514:	02802021 	move	a0,s4
9d009518:	0064102b 	sltu	v0,v1,a0
9d00951c:	1040ffd4 	beqz	v0,9d009470 <.LCFI0+0x2c>
9d009520:	8fbf0024 	lw	ra,36(sp)
9d009524:	3c02a000 	lui	v0,0xa000
9d009528:	24420034 	addiu	v0,v0,52
9d00952c:	00021742 	srl	v0,v0,0x1d
9d009530:	24050005 	li	a1,5
9d009534:	1445001b 	bne	v0,a1,9d0095a4 <.LCFI0+0x160>
9d009538:	24050004 	li	a1,4
9d00953c:	3c02a000 	lui	v0,0xa000
9d009540:	00621825 	or	v1,v1,v0
9d009544:	00822025 	or	a0,a0,v0
9d009548:	ae431bd4 	sw	v1,7124(s2)
9d00954c:	ae641bd0 	sw	a0,7120(s3)
9d009550:	ae031bcc 	sw	v1,7116(s0)
9d009554:	8fbf0024 	lw	ra,36(sp)
9d009558:	8fb40020 	lw	s4,32(sp)
9d00955c:	8fb3001c 	lw	s3,28(sp)
9d009560:	8fb20018 	lw	s2,24(sp)
9d009564:	8fb10014 	lw	s1,20(sp)
9d009568:	8fb00010 	lw	s0,16(sp)
9d00956c:	03e00008 	jr	ra
9d009570:	27bd0028 	addiu	sp,sp,40
9d009574:	0224102b 	sltu	v0,s1,a0
9d009578:	1040ffdc 	beqz	v0,9d0094ec <.LCFI0+0xa8>
9d00957c:	3c02a000 	lui	v0,0xa000
9d009580:	0b402540 	j	9d009500 <.LCFI0+0xbc>
9d009584:	02201821 	move	v1,s1
9d009588:	0b402526 	j	9d009498 <.LCFI0+0x54>
9d00958c:	24631c08 	addiu	v1,v1,7176
9d009590:	24840000 	addiu	a0,a0,0
9d009594:	3c02a000 	lui	v0,0xa000
9d009598:	24421c08 	addiu	v0,v0,7176
9d00959c:	0b40252a 	j	9d0094a8 <.LCFI0+0x64>
9d0095a0:	00441021 	addu	v0,v0,a0
9d0095a4:	14450007 	bne	v0,a1,9d0095c4 <.LCFI0+0x180>
9d0095a8:	3c028000 	lui	v0,0x8000
9d0095ac:	00621825 	or	v1,v1,v0
9d0095b0:	00821025 	or	v0,a0,v0
9d0095b4:	ae431bd4 	sw	v1,7124(s2)
9d0095b8:	ae621bd0 	sw	v0,7120(s3)
9d0095bc:	0b402555 	j	9d009554 <.LCFI0+0x110>
9d0095c0:	ae031bcc 	sw	v1,7116(s0)
9d0095c4:	ae441bd4 	sw	a0,7124(s2)
9d0095c8:	00801821 	move	v1,a0
9d0095cc:	0b402555 	j	9d009554 <.LCFI0+0x110>
9d0095d0:	ae031bcc 	sw	v1,7116(s0)

Disassembly of section .text._outcnvrt:

9d0095d4 <_outcnvrt>:
9d0095d4:	27bdffd8 	addiu	sp,sp,-40
9d0095d8:	afbf0024 	sw	ra,36(sp)
9d0095dc:	afb40020 	sw	s4,32(sp)
9d0095e0:	afb3001c 	sw	s3,28(sp)
9d0095e4:	afb20018 	sw	s2,24(sp)
9d0095e8:	afb10014 	sw	s1,20(sp)
9d0095ec:	afb00010 	sw	s0,16(sp)
9d0095f0:	00809821 	move	s3,a0
9d0095f4:	00a0a021 	move	s4,a1
9d0095f8:	97a20038 	lhu	v0,56(sp)
9d0095fc:	30420008 	andi	v0,v0,0x8
9d009600:	00c08021 	move	s0,a2
9d009604:	10400014 	beqz	v0,9d009658 <_outcnvrt+0x84>
9d009608:	00e08821 	move	s1,a3
9d00960c:	00a02021 	move	a0,a1
9d009610:	00c02821 	move	a1,a2
9d009614:	0f402b9c 	jal	9d00ae70 <__sputn>
9d009618:	02603021 	move	a2,s3
9d00961c:	2403ffff 	li	v1,-1
9d009620:	10430003 	beq	v0,v1,9d009630 <_outcnvrt+0x5c>
9d009624:	0211902a 	slt	s2,s0,s1
9d009628:	1640001c 	bnez	s2,9d00969c <_outcnvrt+0xc8>
9d00962c:	02602021 	move	a0,s3
9d009630:	02201021 	move	v0,s1
9d009634:	0212100a 	movz	v0,s0,s2
9d009638:	8fbf0024 	lw	ra,36(sp)
9d00963c:	8fb40020 	lw	s4,32(sp)
9d009640:	8fb3001c 	lw	s3,28(sp)
9d009644:	8fb20018 	lw	s2,24(sp)
9d009648:	8fb10014 	lw	s1,20(sp)
9d00964c:	8fb00010 	lw	s0,16(sp)
9d009650:	03e00008 	jr	ra
9d009654:	27bd0028 	addiu	sp,sp,40
9d009658:	00c7902a 	slt	s2,a2,a3
9d00965c:	1640001d 	bnez	s2,9d0096d4 <_outcnvrt+0x100>
9d009660:	00e62823 	subu	a1,a3,a2
9d009664:	02802021 	move	a0,s4
9d009668:	02002821 	move	a1,s0
9d00966c:	0f402b9c 	jal	9d00ae70 <__sputn>
9d009670:	02603021 	move	a2,s3
9d009674:	02201021 	move	v0,s1
9d009678:	0212100a 	movz	v0,s0,s2
9d00967c:	8fbf0024 	lw	ra,36(sp)
9d009680:	8fb40020 	lw	s4,32(sp)
9d009684:	8fb3001c 	lw	s3,28(sp)
9d009688:	8fb20018 	lw	s2,24(sp)
9d00968c:	8fb10014 	lw	s1,20(sp)
9d009690:	8fb00010 	lw	s0,16(sp)
9d009694:	03e00008 	jr	ra
9d009698:	27bd0028 	addiu	sp,sp,40
9d00969c:	02302823 	subu	a1,s1,s0
9d0096a0:	3c069d01 	lui	a2,0x9d01
9d0096a4:	0f4029a9 	jal	9d00a6a4 <repl>
9d0096a8:	24c6ac64 	addiu	a2,a2,-21404
9d0096ac:	02201021 	move	v0,s1
9d0096b0:	0212100a 	movz	v0,s0,s2
9d0096b4:	8fbf0024 	lw	ra,36(sp)
9d0096b8:	8fb40020 	lw	s4,32(sp)
9d0096bc:	8fb3001c 	lw	s3,28(sp)
9d0096c0:	8fb20018 	lw	s2,24(sp)
9d0096c4:	8fb10014 	lw	s1,20(sp)
9d0096c8:	8fb00010 	lw	s0,16(sp)
9d0096cc:	03e00008 	jr	ra
9d0096d0:	27bd0028 	addiu	sp,sp,40
9d0096d4:	3c069d01 	lui	a2,0x9d01
9d0096d8:	0f4029a9 	jal	9d00a6a4 <repl>
9d0096dc:	24c6ac64 	addiu	a2,a2,-21404
9d0096e0:	2403ffff 	li	v1,-1
9d0096e4:	1443ffdf 	bne	v0,v1,9d009664 <_outcnvrt+0x90>
9d0096e8:	02201021 	move	v0,s1
9d0096ec:	0212100a 	movz	v0,s0,s2
9d0096f0:	8fbf0024 	lw	ra,36(sp)
9d0096f4:	8fb40020 	lw	s4,32(sp)
9d0096f8:	8fb3001c 	lw	s3,28(sp)
9d0096fc:	8fb20018 	lw	s2,24(sp)
9d009700:	8fb10014 	lw	s1,20(sp)
9d009704:	8fb00010 	lw	s0,16(sp)
9d009708:	03e00008 	jr	ra
9d00970c:	27bd0028 	addiu	sp,sp,40

Disassembly of section .text.ungetc:

9d009710 <ungetc>:
9d009710:	27bdffe0 	addiu	sp,sp,-32
9d009714:	afbf001c 	sw	ra,28(sp)
9d009718:	afb20018 	sw	s2,24(sp)
9d00971c:	afb10014 	sw	s1,20(sp)
9d009720:	afb00010 	sw	s0,16(sp)
9d009724:	2412ffff 	li	s2,-1
9d009728:	10920028 	beq	a0,s2,9d0097cc <ungetc+0xbc>
9d00972c:	00808821 	move	s1,a0
9d009730:	00a08021 	move	s0,a1
9d009734:	8ca20018 	lw	v0,24(a1)
9d009738:	00a02021 	move	a0,a1
9d00973c:	8c420010 	lw	v0,16(v0)
9d009740:	0040f809 	jalr	v0
9d009744:	24050002 	li	a1,2
9d009748:	10400021 	beqz	v0,9d0097d0 <ungetc+0xc0>
9d00974c:	2402ffff 	li	v0,-1
9d009750:	8e020000 	lw	v0,0(s0)
9d009754:	10520037 	beq	v0,s2,9d009834 <ungetc+0x124>
9d009758:	00000000 	nop
9d00975c:	8e02000c 	lw	v0,12(s0)
9d009760:	50400017 	beqzl	v0,9d0097c0 <ungetc+0xb0>
9d009764:	8e030004 	lw	v1,4(s0)
9d009768:	8e020004 	lw	v0,4(s0)
9d00976c:	8e030008 	lw	v1,8(s0)
9d009770:	0062182b 	sltu	v1,v1,v0
9d009774:	1060001c 	beqz	v1,9d0097e8 <ungetc+0xd8>
9d009778:	8e030000 	lw	v1,0(s0)
9d00977c:	2442ffff 	addiu	v0,v0,-1
9d009780:	ae020004 	sw	v0,4(s0)
9d009784:	24630001 	addiu	v1,v1,1
9d009788:	ae030000 	sw	v1,0(s0)
9d00978c:	90430000 	lbu	v1,0(v0)
9d009790:	54710001 	bnel	v1,s1,9d009798 <ungetc+0x88>
9d009794:	a0510000 	sb	s1,0(v0)
9d009798:	96030010 	lhu	v1,16(s0)
9d00979c:	02201021 	move	v0,s1
9d0097a0:	7c032944 	ins	v1,zero,0x5,0x1
9d0097a4:	a6030010 	sh	v1,16(s0)
9d0097a8:	8fbf001c 	lw	ra,28(sp)
9d0097ac:	8fb20018 	lw	s2,24(sp)
9d0097b0:	8fb10014 	lw	s1,20(sp)
9d0097b4:	8fb00010 	lw	s0,16(sp)
9d0097b8:	03e00008 	jr	ra
9d0097bc:	27bd0020 	addiu	sp,sp,32
9d0097c0:	2402ffff 	li	v0,-1
9d0097c4:	50620011 	beql	v1,v0,9d00980c <ungetc+0xfc>
9d0097c8:	96030010 	lhu	v1,16(s0)
9d0097cc:	2402ffff 	li	v0,-1
9d0097d0:	8fbf001c 	lw	ra,28(sp)
9d0097d4:	8fb20018 	lw	s2,24(sp)
9d0097d8:	8fb10014 	lw	s1,20(sp)
9d0097dc:	8fb00010 	lw	s0,16(sp)
9d0097e0:	03e00008 	jr	ra
9d0097e4:	27bd0020 	addiu	sp,sp,32
9d0097e8:	5060ffe7 	beqzl	v1,9d009788 <ungetc+0x78>
9d0097ec:	24630001 	addiu	v1,v1,1
9d0097f0:	02201021 	move	v0,s1
9d0097f4:	8fbf001c 	lw	ra,28(sp)
9d0097f8:	8fb20018 	lw	s2,24(sp)
9d0097fc:	8fb10014 	lw	s1,20(sp)
9d009800:	8fb00010 	lw	s0,16(sp)
9d009804:	03e00008 	jr	ra
9d009808:	27bd0020 	addiu	sp,sp,32
9d00980c:	ae110004 	sw	s1,4(s0)
9d009810:	02201021 	move	v0,s1
9d009814:	7c032944 	ins	v1,zero,0x5,0x1
9d009818:	a6030010 	sh	v1,16(s0)
9d00981c:	8fbf001c 	lw	ra,28(sp)
9d009820:	8fb20018 	lw	s2,24(sp)
9d009824:	8fb10014 	lw	s1,20(sp)
9d009828:	8fb00010 	lw	s0,16(sp)
9d00982c:	03e00008 	jr	ra
9d009830:	27bd0020 	addiu	sp,sp,32
9d009834:	0f4029f7 	jal	9d00a7dc <_i_init>
9d009838:	02002021 	move	a0,s0
9d00983c:	0b4025d8 	j	9d009760 <ungetc+0x50>
9d009840:	8e02000c 	lw	v0,12(s0)

Disassembly of section .text.dpcmp:

9d009844 <__eqdf2>:
9d009844:	2409fffe 00055040 00075840 01645825     ...$@P..@X..%Xd.
9d009854:	01665825 014b5025 15400003 00000000     %Xf.%PK...@.....
9d009864:	1000003c 24020000                       <......$

9d00986c <i56>:
9d00986c:	10800002 	beqz	a0,9d009878 <i57>
9d009870:	00054040 	sll	t0,a1,0x1
9d009874:	25080001 	addiu	t0,t0,1

9d009878 <i57>:
9d009878:	3c01ffe0 	lui	at,0xffe0
9d00987c:	34210001 	ori	at,at,0x1
9d009880:	0101082b 	sltu	at,t0,at
9d009884:	10200037 	beqz	at,9d009964 <Lnan>
9d009888:	00000000 	nop
9d00988c:	10c00002 	beqz	a2,9d009898 <i58>
9d009890:	00074040 	sll	t0,a3,0x1
9d009894:	25080001 	addiu	t0,t0,1

9d009898 <i58>:
9d009898:	3c01ffe0 	lui	at,0xffe0
9d00989c:	34210001 	ori	at,at,0x1
9d0098a0:	0101082b 	sltu	at,t0,at
9d0098a4:	1020002f 	beqz	at,9d009964 <Lnan>
9d0098a8:	00000000 	nop
9d0098ac:	04a10016 	bgez	a1,9d009908 <i59>
9d0098b0:	00000000 	nop
9d0098b4:	04e00003 	bltz	a3,9d0098c4 <i60>
9d0098b8:	00000000 	nop
9d0098bc:	10000026 	b	9d009958 <L999>
9d0098c0:	2402ffff 	li	v0,-1

9d0098c4 <i60>:
9d0098c4:	0086502b 	sltu	t2,a0,a2
9d0098c8:	00862023 	subu	a0,a0,a2
9d0098cc:	00aa582b 	sltu	t3,a1,t2
9d0098d0:	00aa2823 	subu	a1,a1,t2
9d0098d4:	00a7502b 	sltu	t2,a1,a3
9d0098d8:	014b5025 	or	t2,t2,t3
9d0098dc:	11400003 	beqz	t2,9d0098ec <i61>
9d0098e0:	00a72823 	subu	a1,a1,a3
9d0098e4:	1000001c 	b	9d009958 <L999>
9d0098e8:	24020001 	li	v0,1

9d0098ec <i61>:
9d0098ec:	00a45025 	or	t2,a1,a0
9d0098f0:	11400003 	beqz	t2,9d009900 <i62>
9d0098f4:	00000000 	nop
9d0098f8:	10000017 	b	9d009958 <L999>
9d0098fc:	2402ffff 	li	v0,-1

9d009900 <i62>:
9d009900:	10000015 	b	9d009958 <L999>
9d009904:	24020000 	li	v0,0

9d009908 <i59>:
9d009908:	04e10003 	bgez	a3,9d009918 <i63>
9d00990c:	00000000 	nop
9d009910:	10000011 	b	9d009958 <L999>
9d009914:	24020001 	li	v0,1

9d009918 <i63>:
9d009918:	0086502b 	sltu	t2,a0,a2
9d00991c:	00862023 	subu	a0,a0,a2
9d009920:	00aa582b 	sltu	t3,a1,t2
9d009924:	00aa2823 	subu	a1,a1,t2
9d009928:	00a7502b 	sltu	t2,a1,a3
9d00992c:	014b5025 	or	t2,t2,t3
9d009930:	11400003 	beqz	t2,9d009940 <i64>
9d009934:	00a72823 	subu	a1,a1,a3
9d009938:	10000007 	b	9d009958 <L999>
9d00993c:	2402ffff 	li	v0,-1

9d009940 <i64>:
9d009940:	00a45025 	or	t2,a1,a0
9d009944:	11400003 	beqz	t2,9d009954 <i65>
9d009948:	00000000 	nop
9d00994c:	10000002 	b	9d009958 <L999>
9d009950:	24020001 	li	v0,1

9d009954 <i65>:
9d009954:	24020000 	li	v0,0

9d009958 <L999>:
9d009958:	03e00008 	jr	ra
9d00995c:	00000000 	nop
9d009960:	00000000 	nop

9d009964 <Lnan>:
9d009964:	1000fffc 	b	9d009958 <L999>
9d009968:	00091025 	or	v0,zero,t1
9d00996c:	00000000 	nop

Disassembly of section .text.libm:

9d009970 <dpmodf>:
9d009970:	00043825 00054025 3c018000 00a15824     %8..%@.....<$X..
9d009980:	00054840 00094d42 252cffff 2d8107fe     @H..BM....,%...-
9d009990:	10200037 00000000 240a0433 01495023     7. .....3..$#PI.
9d0099a0:	29410035 1020002f 00000000 29410020     5.A)/. ..... .A)
9d0099b0:	14200006 00000000 254affe0 24040000     .. .......J%...$
9d0099c0:	01452806 10000005 01452804              .(E......(E.

9d0099cc <i12>:
9d0099cc:	19400003 	blez	t2,9d0099dc <e12>
9d0099d0:	00000000 	nop
9d0099d4:	01442006 	srlv	a0,a0,t2
9d0099d8:	01442004 	sllv	a0,a0,t2

9d0099dc <e12>:
9d0099dc:	01054023 	subu	t0,t0,a1
9d0099e0:	00e43823 	subu	a3,a3,a0
9d0099e4:	acc40000 	sw	a0,0(a2)
9d0099e8:	acc50004 	sw	a1,4(a2)
9d0099ec:	15000008 	bnez	t0,9d009a10 <L16>
9d0099f0:	2529000b 	addiu	t1,t1,11
9d0099f4:	14e00003 	bnez	a3,9d009a04 <L17>
9d0099f8:	00000000 	nop
9d0099fc:	1000000d 	b	9d009a34 <L18>
9d009a00:	24090000 	li	t1,0

9d009a04 <L17>:
9d009a04:	00e04025 	move	t0,a3
9d009a08:	24070000 	li	a3,0
9d009a0c:	2529ffe0 	addiu	t1,t1,-32

9d009a10 <L16>:
9d009a10:	71042020 	clz	a0,t0
9d009a14:	10800007 	beqz	a0,9d009a34 <L18>
9d009a18:	00000000 	nop
9d009a1c:	01244823 	subu	t1,t1,a0
9d009a20:	00045022 	neg	t2,a0
9d009a24:	01475006 	srlv	t2,a3,t2
9d009a28:	00873804 	sllv	a3,a3,a0
9d009a2c:	00884004 	sllv	t0,t0,a0
9d009a30:	010a4025 	or	t0,t0,t2

9d009a34 <L18>:
9d009a34:	000722c2 	srl	a0,a3,0xb
9d009a38:	00086540 	sll	t4,t0,0x15
9d009a3c:	008c2025 	or	a0,a0,t4
9d009a40:	00082840 	sll	a1,t0,0x1
9d009a44:	00052b02 	srl	a1,a1,0xc
9d009a48:	00096500 	sll	t4,t1,0x14
9d009a4c:	00ac2825 	or	a1,a1,t4
9d009a50:	00ab2825 	or	a1,a1,t3

9d009a54 <Dret2>:
9d009a54:	00041025 	or	v0,zero,a0
9d009a58:	00051825 	or	v1,zero,a1

9d009a5c <D999>:
9d009a5c:	03e00008 	jr	ra
9d009a60:	00000000 	nop

9d009a64 <Dzer>:
9d009a64:	accb0004 	sw	t3,4(a2)
9d009a68:	1000fffa 	b	9d009a54 <Dret2>
9d009a6c:	acc00000 	sw	zero,0(a2)

9d009a70 <Dspec>:
9d009a70:	1120fffc 	beqz	t1,9d009a64 <Dzer>
9d009a74:	00000000 	nop
9d009a78:	3c05fff8 	lui	a1,0xfff8
9d009a7c:	24040000 	li	a0,0
9d009a80:	acc40000 	sw	a0,0(a2)
9d009a84:	1000fff3 	b	9d009a54 <Dret2>
9d009a88:	acc50004 	sw	a1,4(a2)
9d009a8c:	00000000 	nop

Disassembly of section .text.putget.2782:

9d009a90 <putget.2782>:
9d009a90:	27bdffe0 	addiu	sp,sp,-32
9d009a94:	afbf001c 	sw	ra,28(sp)
9d009a98:	afb10018 	sw	s1,24(sp)
9d009a9c:	afb00014 	sw	s0,20(sp)
9d009aa0:	01e08021 	move	s0,t7
9d009aa4:	8de50014 	lw	a1,20(t7)
9d009aa8:	8de20010 	lw	v0,16(t7)
9d009aac:	10a20019 	beq	a1,v0,9d009b14 <putget.2782+0x84>
9d009ab0:	00808821 	move	s1,a0
9d009ab4:	8de20008 	lw	v0,8(t7)
9d009ab8:	24a30001 	addiu	v1,a1,1
9d009abc:	00452821 	addu	a1,v0,a1
9d009ac0:	ae030014 	sw	v1,20(s0)
9d009ac4:	1220000d 	beqz	s1,9d009afc <putget.2782+0x6c>
9d009ac8:	a0b10000 	sb	s1,0(a1)
9d009acc:	8e020004 	lw	v0,4(s0)
9d009ad0:	1040000a 	beqz	v0,9d009afc <putget.2782+0x6c>
9d009ad4:	2411ffff 	li	s1,-1
9d009ad8:	0f402bea 	jal	9d00afa8 <gsgetc>
9d009adc:	8e040000 	lw	a0,0(s0)
9d009ae0:	00408821 	move	s1,v0
9d009ae4:	2402ffff 	li	v0,-1
9d009ae8:	12220005 	beq	s1,v0,9d009b00 <putget.2782+0x70>
9d009aec:	02201021 	move	v0,s1
9d009af0:	8e020004 	lw	v0,4(s0)
9d009af4:	2442ffff 	addiu	v0,v0,-1
9d009af8:	ae020004 	sw	v0,4(s0)
9d009afc:	02201021 	move	v0,s1
9d009b00:	8fbf001c 	lw	ra,28(sp)
9d009b04:	8fb10018 	lw	s1,24(sp)
9d009b08:	8fb00014 	lw	s0,20(sp)
9d009b0c:	03e00008 	jr	ra
9d009b10:	27bd0020 	addiu	sp,sp,32
9d009b14:	8de4000c 	lw	a0,12(t7)
9d009b18:	24a50080 	addiu	a1,a1,128
9d009b1c:	10800007 	beqz	a0,9d009b3c <putget.2782+0xac>
9d009b20:	ade50010 	sw	a1,16(t7)
9d009b24:	0f4013d7 	jal	9d004f5c <realloc>
9d009b28:	00000000 	nop
9d009b2c:	ae02000c 	sw	v0,12(s0)
9d009b30:	8e050014 	lw	a1,20(s0)
9d009b34:	0b4026ae 	j	9d009ab8 <putget.2782+0x28>
9d009b38:	ae020008 	sw	v0,8(s0)
9d009b3c:	0f400d2f 	jal	9d0034bc <malloc>
9d009b40:	00a02021 	move	a0,a1
9d009b44:	8e030008 	lw	v1,8(s0)
9d009b48:	ae02000c 	sw	v0,12(s0)
9d009b4c:	24680080 	addiu	t0,v1,128
9d009b50:	88670003 	lwl	a3,3(v1)
9d009b54:	88660007 	lwl	a2,7(v1)
9d009b58:	8865000b 	lwl	a1,11(v1)
9d009b5c:	8864000f 	lwl	a0,15(v1)
9d009b60:	98670000 	lwr	a3,0(v1)
9d009b64:	98660004 	lwr	a2,4(v1)
9d009b68:	98650008 	lwr	a1,8(v1)
9d009b6c:	9864000c 	lwr	a0,12(v1)
9d009b70:	24630010 	addiu	v1,v1,16
9d009b74:	ac470000 	sw	a3,0(v0)
9d009b78:	ac460004 	sw	a2,4(v0)
9d009b7c:	ac450008 	sw	a1,8(v0)
9d009b80:	ac44000c 	sw	a0,12(v0)
9d009b84:	1468fff2 	bne	v1,t0,9d009b50 <putget.2782+0xc0>
9d009b88:	24420010 	addiu	v0,v0,16
9d009b8c:	8e02000c 	lw	v0,12(s0)
9d009b90:	8e050014 	lw	a1,20(s0)
9d009b94:	0b4026ae 	j	9d009ab8 <putget.2782+0x28>
9d009b98:	ae020008 	sw	v0,8(s0)

Disassembly of section .rodata:

9d009b9c <_ctype>:
9d009b9c:	20202000 20202020 28282020 20282828     .         ((((( 
9d009bac:	20202020 20202020 20202020 20202020                     
9d009bbc:	10108020 10101010 10101010 10101010      ...............
9d009bcc:	04040410 04040404 10040404 10101010     ................
9d009bdc:	41411010 41414141 01010101 01010101     ..AAAAAA........
9d009bec:	01010101 01010101 01010101 10101010     ................
9d009bfc:	42421010 42424242 02020202 02020202     ..BBBBBB........
9d009c0c:	02020202 02020202 02020202 10101010     ................
9d009c1c:	00000020 00000000 00000000 00000000      ...............
	...

Disassembly of section .text.malloc_trim:

9d009ca0 <malloc_trim>:
9d009ca0:	27bdffe0 	addiu	sp,sp,-32
9d009ca4:	afbf001c 	sw	ra,28(sp)
9d009ca8:	afb20018 	sw	s2,24(sp)
9d009cac:	afb10014 	sw	s1,20(sp)
9d009cb0:	afb00010 	sw	s0,16(sp)
9d009cb4:	0f402e1a 	jal	9d00b868 <getpagesize>
9d009cb8:	00809021 	move	s2,a0
9d009cbc:	3c10a000 	lui	s0,0xa000
9d009cc0:	2610161c 	addiu	s0,s0,5660
9d009cc4:	8e030008 	lw	v1,8(s0)
9d009cc8:	8c710004 	lw	s1,4(v1)
9d009ccc:	7c110804 	ins	s1,zero,0x0,0x2
9d009cd0:	02322023 	subu	a0,s1,s2
9d009cd4:	2484ffef 	addiu	a0,a0,-17
9d009cd8:	00822021 	addu	a0,a0,v0
9d009cdc:	0082001b 	divu	zero,a0,v0
9d009ce0:	004001f4 	teq	v0,zero,0x7
9d009ce4:	00009012 	mflo	s2
9d009ce8:	2652ffff 	addiu	s2,s2,-1
9d009cec:	72429002 	mul	s2,s2,v0
9d009cf0:	0242102a 	slt	v0,s2,v0
9d009cf4:	10400008 	beqz	v0,9d009d18 <malloc_trim+0x78>
9d009cf8:	00000000 	nop
9d009cfc:	00001021 	move	v0,zero
9d009d00:	8fbf001c 	lw	ra,28(sp)
9d009d04:	8fb20018 	lw	s2,24(sp)
9d009d08:	8fb10014 	lw	s1,20(sp)
9d009d0c:	8fb00010 	lw	s0,16(sp)
9d009d10:	03e00008 	jr	ra
9d009d14:	27bd0020 	addiu	sp,sp,32
9d009d18:	0f402c49 	jal	9d00b124 <sbrk>
9d009d1c:	00002021 	move	a0,zero
9d009d20:	8e030008 	lw	v1,8(s0)
9d009d24:	00711821 	addu	v1,v1,s1
9d009d28:	1443fff5 	bne	v0,v1,9d009d00 <malloc_trim+0x60>
9d009d2c:	00001021 	move	v0,zero
9d009d30:	0f402c49 	jal	9d00b124 <sbrk>
9d009d34:	00122023 	negu	a0,s2
9d009d38:	2403ffff 	li	v1,-1
9d009d3c:	1043000a 	beq	v0,v1,9d009d68 <malloc_trim+0xc8>
9d009d40:	3c02a000 	lui	v0,0xa000
9d009d44:	8c441b80 	lw	a0,7040(v0)
9d009d48:	8e030008 	lw	v1,8(s0)
9d009d4c:	02328823 	subu	s1,s1,s2
9d009d50:	36310001 	ori	s1,s1,0x1
9d009d54:	00929023 	subu	s2,a0,s2
9d009d58:	ac710004 	sw	s1,4(v1)
9d009d5c:	ac521b80 	sw	s2,7040(v0)
9d009d60:	0b402740 	j	9d009d00 <malloc_trim+0x60>
9d009d64:	24020001 	li	v0,1
9d009d68:	0f402c49 	jal	9d00b124 <sbrk>
9d009d6c:	00002021 	move	a0,zero
9d009d70:	8e030008 	lw	v1,8(s0)
9d009d74:	00432023 	subu	a0,v0,v1
9d009d78:	28850010 	slti	a1,a0,16
9d009d7c:	54a0ffe0 	bnezl	a1,9d009d00 <malloc_trim+0x60>
9d009d80:	00001021 	move	v0,zero
9d009d84:	3c05a000 	lui	a1,0xa000
9d009d88:	8ca51614 	lw	a1,5652(a1)
9d009d8c:	34840001 	ori	a0,a0,0x1
9d009d90:	00451023 	subu	v0,v0,a1
9d009d94:	3c05a000 	lui	a1,0xa000
9d009d98:	aca21b80 	sw	v0,7040(a1)
9d009d9c:	0b40273f 	j	9d009cfc <malloc_trim+0x5c>
9d009da0:	ac640004 	sw	a0,4(v1)

Disassembly of section .text.__ldexpf:

9d009da4 <__ldexpf>:
9d009da4:	7c863dc0 	ext	a2,a0,0x17,0x8
9d009da8:	24c8ffff 	addiu	t0,a2,-1
9d009dac:	2d0800fe 	sltiu	t0,t0,254
9d009db0:	00044fc2 	srl	t1,a0,0x1f
9d009db4:	1100002b 	beqz	t0,9d009e64 <__ldexpf+0xc0>
9d009db8:	7c87b000 	ext	a3,a0,0x0,0x17
9d009dbc:	24c6ff81 	addiu	a2,a2,-127
9d009dc0:	3c020080 	lui	v0,0x80
9d009dc4:	00e21025 	or	v0,a3,v0
9d009dc8:	00c53021 	addu	a2,a2,a1
9d009dcc:	24c3007f 	addiu	v1,a2,127
9d009dd0:	18600018 	blez	v1,9d009e34 <__ldexpf+0x90>
9d009dd4:	000210c0 	sll	v0,v0,0x3
9d009dd8:	30440007 	andi	a0,v0,0x7
9d009ddc:	1480000d 	bnez	a0,9d009e14 <__ldexpf+0x70>
9d009de0:	7c4400c0 	ext	a0,v0,0x3,0x1
9d009de4:	286400ff 	slti	a0,v1,255
9d009de8:	10800024 	beqz	a0,9d009e7c <__ldexpf+0xd8>
9d009dec:	000210c2 	srl	v0,v0,0x3
9d009df0:	7c4405c0 	ext	a0,v0,0x17,0x1
9d009df4:	50800002 	beqzl	a0,9d009e00 <__ldexpf+0x5c>
9d009df8:	00001821 	move	v1,zero
9d009dfc:	7c42b000 	ext	v0,v0,0x0,0x17
9d009e00:	00094a00 	sll	t1,t1,0x8
9d009e04:	00691825 	or	v1,v1,t1
9d009e08:	00031dc0 	sll	v1,v1,0x17
9d009e0c:	03e00008 	jr	ra
9d009e10:	00621025 	or	v0,v1,v0
9d009e14:	24420003 	addiu	v0,v0,3
9d009e18:	00441021 	addu	v0,v0,a0
9d009e1c:	000226c2 	srl	a0,v0,0x1b
9d009e20:	1080fff1 	beqz	a0,9d009de8 <__ldexpf+0x44>
9d009e24:	286400ff 	slti	a0,v1,255
9d009e28:	00021042 	srl	v0,v0,0x1
9d009e2c:	0b402779 	j	9d009de4 <__ldexpf+0x40>
9d009e30:	24630001 	addiu	v1,v1,1
9d009e34:	2403ff82 	li	v1,-126
9d009e38:	00661823 	subu	v1,v1,a2
9d009e3c:	2864001b 	slti	a0,v1,27
9d009e40:	50800012 	beqzl	a0,9d009e8c <__ldexpf+0xe8>
9d009e44:	00001021 	move	v0,zero
9d009e48:	24c4009e 	addiu	a0,a2,158
9d009e4c:	00822004 	sllv	a0,v0,a0
9d009e50:	00621006 	srlv	v0,v0,v1
9d009e54:	0004182b 	sltu	v1,zero,a0
9d009e58:	00621025 	or	v0,v1,v0
9d009e5c:	0b402776 	j	9d009dd8 <__ldexpf+0x34>
9d009e60:	24030001 	li	v1,1
9d009e64:	14c00003 	bnez	a2,9d009e74 <__ldexpf+0xd0>
9d009e68:	00000000 	nop
9d009e6c:	14e00009 	bnez	a3,9d009e94 <__ldexpf+0xf0>
9d009e70:	70e31820 	clz	v1,a3
9d009e74:	03e00008 	jr	ra
9d009e78:	00801021 	move	v0,a0
9d009e7c:	00091200 	sll	v0,t1,0x8
9d009e80:	344200ff 	ori	v0,v0,0xff
9d009e84:	03e00008 	jr	ra
9d009e88:	000215c0 	sll	v0,v0,0x17
9d009e8c:	0b402780 	j	9d009e00 <__ldexpf+0x5c>
9d009e90:	00001821 	move	v1,zero
9d009e94:	2462fff8 	addiu	v0,v1,-8
9d009e98:	00471004 	sllv	v0,a3,v0
9d009e9c:	2406ff8a 	li	a2,-118
9d009ea0:	0b402772 	j	9d009dc8 <__ldexpf+0x24>
9d009ea4:	00c33023 	subu	a2,a2,v1

Disassembly of section .text._flsbuf_simple:

9d009ea8 <_flsbuf_simple>:
9d009ea8:	27bdffd8 	addiu	sp,sp,-40
9d009eac:	afbf0024 	sw	ra,36(sp)
9d009eb0:	afb10020 	sw	s1,32(sp)
9d009eb4:	afb0001c 	sw	s0,28(sp)
9d009eb8:	00a08021 	move	s0,a1
9d009ebc:	8ca2000c 	lw	v0,12(a1)
9d009ec0:	1040002d 	beqz	v0,9d009f78 <_flsbuf_simple+0xd0>
9d009ec4:	00808821 	move	s1,a0
9d009ec8:	8ca20000 	lw	v0,0(a1)
9d009ecc:	24420001 	addiu	v0,v0,1
9d009ed0:	2403ffff 	li	v1,-1
9d009ed4:	1043001e 	beq	v0,v1,9d009f50 <_flsbuf_simple+0xa8>
9d009ed8:	aca20000 	sw	v0,0(a1)
9d009edc:	0f402aaa 	jal	9d00aaa8 <_fflush_simple>
9d009ee0:	02002021 	move	a0,s0
9d009ee4:	8e040000 	lw	a0,0(s0)
9d009ee8:	8e020004 	lw	v0,4(s0)
9d009eec:	2484ffff 	addiu	a0,a0,-1
9d009ef0:	24430001 	addiu	v1,v0,1
9d009ef4:	ae040000 	sw	a0,0(s0)
9d009ef8:	ae030004 	sw	v1,4(s0)
9d009efc:	a0510000 	sb	s1,0(v0)
9d009f00:	2402000a 	li	v0,10
9d009f04:	52220007 	beql	s1,v0,9d009f24 <_flsbuf_simple+0x7c>
9d009f08:	96020010 	lhu	v0,16(s0)
9d009f0c:	02201021 	move	v0,s1
9d009f10:	8fbf0024 	lw	ra,36(sp)
9d009f14:	8fb10020 	lw	s1,32(sp)
9d009f18:	8fb0001c 	lw	s0,28(sp)
9d009f1c:	03e00008 	jr	ra
9d009f20:	27bd0028 	addiu	sp,sp,40
9d009f24:	30420008 	andi	v0,v0,0x8
9d009f28:	1040fff9 	beqz	v0,9d009f10 <_flsbuf_simple+0x68>
9d009f2c:	02201021 	move	v0,s1
9d009f30:	0f402aaa 	jal	9d00aaa8 <_fflush_simple>
9d009f34:	02002021 	move	a0,s0
9d009f38:	02201021 	move	v0,s1
9d009f3c:	8fbf0024 	lw	ra,36(sp)
9d009f40:	8fb10020 	lw	s1,32(sp)
9d009f44:	8fb0001c 	lw	s0,28(sp)
9d009f48:	03e00008 	jr	ra
9d009f4c:	27bd0028 	addiu	sp,sp,40
9d009f50:	8ca20008 	lw	v0,8(a1)
9d009f54:	1440ffe1 	bnez	v0,9d009edc <_flsbuf_simple+0x34>
9d009f58:	00000000 	nop
9d009f5c:	94a20010 	lhu	v0,16(a1)
9d009f60:	aca00004 	sw	zero,4(a1)
9d009f64:	aca0000c 	sw	zero,12(a1)
9d009f68:	34420010 	ori	v0,v0,0x10
9d009f6c:	aca00000 	sw	zero,0(a1)
9d009f70:	0b4027b7 	j	9d009edc <_flsbuf_simple+0x34>
9d009f74:	a4a20010 	sh	v0,16(a1)
9d009f78:	27a40010 	addiu	a0,sp,16
9d009f7c:	24050001 	li	a1,1
9d009f80:	0f402c5d 	jal	9d00b174 <.LCFI11>
9d009f84:	a3b10010 	sb	s1,16(sp)
9d009f88:	ae000000 	sw	zero,0(s0)
9d009f8c:	02201021 	move	v0,s1
9d009f90:	8fbf0024 	lw	ra,36(sp)
9d009f94:	8fb10020 	lw	s1,32(sp)
9d009f98:	8fb0001c 	lw	s0,28(sp)
9d009f9c:	03e00008 	jr	ra
9d009fa0:	27bd0028 	addiu	sp,sp,40

Disassembly of section .text.strchr:

9d009fa4 <strchr>:
9d009fa4:	30820003 	andi	v0,a0,0x3
9d009fa8:	14400034 	bnez	v0,9d00a07c <strchr+0xd8>
9d009fac:	30a600ff 	andi	a2,a1,0xff
9d009fb0:	30a500ff 	andi	a1,a1,0xff
9d009fb4:	00054a00 	sll	t1,a1,0x8
9d009fb8:	8c820000 	lw	v0,0(a0)
9d009fbc:	01252825 	or	a1,t1,a1
9d009fc0:	00054c00 	sll	t1,a1,0x10
9d009fc4:	01254825 	or	t1,t1,a1
9d009fc8:	01221826 	xor	v1,t1,v0
9d009fcc:	3c05fefe 	lui	a1,0xfefe
9d009fd0:	34a5feff 	ori	a1,a1,0xfeff
9d009fd4:	00034027 	nor	t0,zero,v1
9d009fd8:	00651821 	addu	v1,v1,a1
9d009fdc:	00023827 	nor	a3,zero,v0
9d009fe0:	00451021 	addu	v0,v0,a1
9d009fe4:	01031824 	and	v1,t0,v1
9d009fe8:	00e21024 	and	v0,a3,v0
9d009fec:	00621025 	or	v0,v1,v0
9d009ff0:	3c0a8080 	lui	t2,0x8080
9d009ff4:	354a8080 	ori	t2,t2,0x8080
9d009ff8:	004a1024 	and	v0,v0,t2
9d009ffc:	54400020 	bnezl	v0,9d00a080 <strchr+0xdc>
9d00a000:	90820000 	lbu	v0,0(a0)
9d00a004:	24840004 	addiu	a0,a0,4
9d00a008:	8c820000 	lw	v0,0(a0)
9d00a00c:	01221826 	xor	v1,t1,v0
9d00a010:	00034027 	nor	t0,zero,v1
9d00a014:	00651821 	addu	v1,v1,a1
9d00a018:	00023827 	nor	a3,zero,v0
9d00a01c:	00451021 	addu	v0,v0,a1
9d00a020:	01031824 	and	v1,t0,v1
9d00a024:	00e21024 	and	v0,a3,v0
9d00a028:	00621025 	or	v0,v1,v0
9d00a02c:	004a1024 	and	v0,v0,t2
9d00a030:	54400013 	bnezl	v0,9d00a080 <strchr+0xdc>
9d00a034:	90820000 	lbu	v0,0(a0)
9d00a038:	24840004 	addiu	a0,a0,4
9d00a03c:	8c820000 	lw	v0,0(a0)
9d00a040:	01221826 	xor	v1,t1,v0
9d00a044:	00034027 	nor	t0,zero,v1
9d00a048:	00651821 	addu	v1,v1,a1
9d00a04c:	00023827 	nor	a3,zero,v0
9d00a050:	00451021 	addu	v0,v0,a1
9d00a054:	01031824 	and	v1,t0,v1
9d00a058:	00e21024 	and	v0,a3,v0
9d00a05c:	00621025 	or	v0,v1,v0
9d00a060:	004a1024 	and	v0,v0,t2
9d00a064:	5040ffe8 	beqzl	v0,9d00a008 <strchr+0x64>
9d00a068:	24840004 	addiu	a0,a0,4
9d00a06c:	0b402820 	j	9d00a080 <strchr+0xdc>
9d00a070:	90820000 	lbu	v0,0(a0)
9d00a074:	10400006 	beqz	v0,9d00a090 <strchr+0xec>
9d00a078:	24840001 	addiu	a0,a0,1
9d00a07c:	90820000 	lbu	v0,0(a0)
9d00a080:	1446fffc 	bne	v0,a2,9d00a074 <strchr+0xd0>
9d00a084:	00000000 	nop
9d00a088:	03e00008 	jr	ra
9d00a08c:	00801021 	move	v0,a0
9d00a090:	03e00008 	jr	ra
9d00a094:	00001021 	move	v0,zero

Disassembly of section .text._mon_getc:

9d00a098 <_mon_getc>:
9d00a098:	27bdffe8 	addiu	sp,sp,-24

9d00a09c <.LCFI0>:
9d00a09c:	afbf0014 	sw	ra,20(sp)
9d00a0a0:	3c02a000 	lui	v0,0xa000
9d00a0a4:	8c43000c 	lw	v1,12(v0)
9d00a0a8:	5460000a 	bnezl	v1,9d00a0d4 <.LCFI0+0x38>
9d00a0ac:	3c04bf80 	lui	a0,0xbf80
9d00a0b0:	3c020000 	lui	v0,0x0
9d00a0b4:	24420000 	addiu	v0,v0,0
9d00a0b8:	10400024 	beqz	v0,9d00a14c <.LCFI0+0xb0>
9d00a0bc:	3c020000 	lui	v0,0x0
9d00a0c0:	0c000000 	jal	90000000 <_bmxdudba_address+0x8ffe0000>
9d00a0c4:	00000000 	nop
9d00a0c8:	8fbf0014 	lw	ra,20(sp)
9d00a0cc:	03e00008 	jr	ra
9d00a0d0:	27bd0018 	addiu	sp,sp,24
9d00a0d4:	24846010 	addiu	a0,a0,24592
9d00a0d8:	1080fffb 	beqz	a0,9d00a0c8 <.LCFI0+0x2c>
9d00a0dc:	2402ffff 	li	v0,-1
9d00a0e0:	24020002 	li	v0,2
9d00a0e4:	10620020 	beq	v1,v0,9d00a168 <.LCFI0+0xcc>
9d00a0e8:	3c02bf80 	lui	v0,0xbf80
9d00a0ec:	3c02bf80 	lui	v0,0xbf80
9d00a0f0:	8c426000 	lw	v0,24576(v0)
9d00a0f4:	3c05bf80 	lui	a1,0xbf80
9d00a0f8:	24a56030 	addiu	a1,a1,24624
9d00a0fc:	30428000 	andi	v0,v0,0x8000
9d00a100:	14400003 	bnez	v0,9d00a110 <.LCFI0+0x74>
9d00a104:	34038000 	li	v1,0x8000
9d00a108:	3c02bf80 	lui	v0,0xbf80
9d00a10c:	ac436008 	sw	v1,24584(v0)
9d00a110:	8c820000 	lw	v0,0(a0)
9d00a114:	30420001 	andi	v0,v0,0x1
9d00a118:	14400009 	bnez	v0,9d00a140 <.LCFI0+0xa4>
9d00a11c:	00000000 	nop
9d00a120:	0b40284c 	j	9d00a130 <.LCFI0+0x94>
9d00a124:	240200a0 	li	v0,160
9d00a128:	10400005 	beqz	v0,9d00a140 <.LCFI0+0xa4>
9d00a12c:	00000000 	nop
9d00a130:	8c830000 	lw	v1,0(a0)
9d00a134:	30630001 	andi	v1,v1,0x1
9d00a138:	1060fffb 	beqz	v1,9d00a128 <.LCFI0+0x8c>
9d00a13c:	2442ffff 	addiu	v0,v0,-1
9d00a140:	8ca20000 	lw	v0,0(a1)
9d00a144:	0b402833 	j	9d00a0cc <.LCFI0+0x30>
9d00a148:	8fbf0014 	lw	ra,20(sp)
9d00a14c:	24420000 	addiu	v0,v0,0
9d00a150:	5040000b 	beqzl	v0,9d00a180 <.LCFI0+0xe4>
9d00a154:	3c04bf80 	lui	a0,0xbf80
9d00a158:	0c000000 	jal	90000000 <_bmxdudba_address+0x8ffe0000>
9d00a15c:	00000000 	nop
9d00a160:	0b402833 	j	9d00a0cc <.LCFI0+0x30>
9d00a164:	8fbf0014 	lw	ra,20(sp)
9d00a168:	8c426800 	lw	v0,26624(v0)
9d00a16c:	3c05bf80 	lui	a1,0xbf80
9d00a170:	24a56830 	addiu	a1,a1,26672
9d00a174:	3c04bf80 	lui	a0,0xbf80
9d00a178:	0b40283f 	j	9d00a0fc <.LCFI0+0x60>
9d00a17c:	24846810 	addiu	a0,a0,26640
9d00a180:	0b40283b 	j	9d00a0ec <.LCFI0+0x50>
9d00a184:	24846010 	addiu	a0,a0,24592

Disassembly of section .text.general_exception:

9d00a188 <_general_exception_context>:
9d00a188:	27bdffa8 	addiu	sp,sp,-88
9d00a18c:	afa10004 	sw	at,4(sp)
9d00a190:	afa20008 	sw	v0,8(sp)
9d00a194:	afa3000c 	sw	v1,12(sp)
9d00a198:	afa40010 	sw	a0,16(sp)
9d00a19c:	afa50014 	sw	a1,20(sp)
9d00a1a0:	afa60018 	sw	a2,24(sp)
9d00a1a4:	afa7001c 	sw	a3,28(sp)
9d00a1a8:	afa80020 	sw	t0,32(sp)
9d00a1ac:	afa90024 	sw	t1,36(sp)
9d00a1b0:	afaa0028 	sw	t2,40(sp)
9d00a1b4:	afab002c 	sw	t3,44(sp)
9d00a1b8:	afac0030 	sw	t4,48(sp)
9d00a1bc:	afad0034 	sw	t5,52(sp)
9d00a1c0:	afae0038 	sw	t6,56(sp)
9d00a1c4:	afaf003c 	sw	t7,60(sp)
9d00a1c8:	afb80040 	sw	t8,64(sp)
9d00a1cc:	afb90044 	sw	t9,68(sp)
9d00a1d0:	afbf0048 	sw	ra,72(sp)
9d00a1d4:	00004012 	mflo	t0
9d00a1d8:	afa8004c 	sw	t0,76(sp)
9d00a1dc:	00004010 	mfhi	t0
9d00a1e0:	afa80050 	sw	t0,80(sp)
9d00a1e4:	3c1a9d01 	lui	k0,0x9d01
9d00a1e8:	275ab208 	addiu	k0,k0,-19960
9d00a1ec:	00000000 	nop
9d00a1f0:	40046800 	mfc0	a0,c0_cause
9d00a1f4:	40056000 	mfc0	a1,c0_status
9d00a1f8:	0340f809 	jalr	k0
9d00a1fc:	00000000 	nop
9d00a200:	8fa80050 	lw	t0,80(sp)
9d00a204:	01000011 	mthi	t0
9d00a208:	8fa8004c 	lw	t0,76(sp)
9d00a20c:	01000013 	mtlo	t0
9d00a210:	8fa10004 	lw	at,4(sp)
9d00a214:	8fa20008 	lw	v0,8(sp)
9d00a218:	8fa3000c 	lw	v1,12(sp)
9d00a21c:	8fa40010 	lw	a0,16(sp)
9d00a220:	8fa50014 	lw	a1,20(sp)
9d00a224:	8fa60018 	lw	a2,24(sp)
9d00a228:	8fa7001c 	lw	a3,28(sp)
9d00a22c:	8fa80020 	lw	t0,32(sp)
9d00a230:	8fa90024 	lw	t1,36(sp)
9d00a234:	8faa0028 	lw	t2,40(sp)
9d00a238:	8fab002c 	lw	t3,44(sp)
9d00a23c:	8fac0030 	lw	t4,48(sp)
9d00a240:	8fad0034 	lw	t5,52(sp)
9d00a244:	8fae0038 	lw	t6,56(sp)
9d00a248:	8faf003c 	lw	t7,60(sp)
9d00a24c:	8fb80040 	lw	t8,64(sp)
9d00a250:	8fb90044 	lw	t9,68(sp)
9d00a254:	8fbf0048 	lw	ra,72(sp)
9d00a258:	27bd0058 	addiu	sp,sp,88
9d00a25c:	000000c0 	ehb
9d00a260:	42000018 	eret

Disassembly of section .text._mon_putc:

9d00a264 <_mon_putc>:
9d00a264:	27bdffe8 	addiu	sp,sp,-24

9d00a268 <.LCFI0>:
9d00a268:	afbf0014 	sw	ra,20(sp)
9d00a26c:	3c02a000 	lui	v0,0xa000
9d00a270:	8c42000c 	lw	v0,12(v0)
9d00a274:	1440000a 	bnez	v0,9d00a2a0 <.LCFI0+0x38>
9d00a278:	00801821 	move	v1,a0
9d00a27c:	3c020000 	lui	v0,0x0
9d00a280:	24420000 	addiu	v0,v0,0
9d00a284:	10400020 	beqz	v0,9d00a308 <.LCFI0+0xa0>
9d00a288:	3c020000 	lui	v0,0x0
9d00a28c:	0c000000 	jal	90000000 <_bmxdudba_address+0x8ffe0000>
9d00a290:	00000000 	nop
9d00a294:	8fbf0014 	lw	ra,20(sp)
9d00a298:	03e00008 	jr	ra
9d00a29c:	27bd0018 	addiu	sp,sp,24
9d00a2a0:	3c04bf80 	lui	a0,0xbf80
9d00a2a4:	24846010 	addiu	a0,a0,24592
9d00a2a8:	1080fffb 	beqz	a0,9d00a298 <.LCFI0+0x30>
9d00a2ac:	8fbf0014 	lw	ra,20(sp)
9d00a2b0:	24050001 	li	a1,1
9d00a2b4:	1045001b 	beq	v0,a1,9d00a324 <.LCFI0+0xbc>
9d00a2b8:	3c02bf80 	lui	v0,0xbf80
9d00a2bc:	3c02bf80 	lui	v0,0xbf80
9d00a2c0:	24426820 	addiu	v0,v0,26656
9d00a2c4:	3c05bf80 	lui	a1,0xbf80
9d00a2c8:	24a56818 	addiu	a1,a1,26648
9d00a2cc:	3c06bf80 	lui	a2,0xbf80
9d00a2d0:	24c66808 	addiu	a2,a2,26632
9d00a2d4:	3c04bf80 	lui	a0,0xbf80
9d00a2d8:	24846810 	addiu	a0,a0,26640
9d00a2dc:	34078000 	li	a3,0x8000
9d00a2e0:	acc70000 	sw	a3,0(a2)
9d00a2e4:	24060400 	li	a2,1024
9d00a2e8:	aca60000 	sw	a2,0(a1)
9d00a2ec:	8c850000 	lw	a1,0(a0)
9d00a2f0:	30a50100 	andi	a1,a1,0x100
9d00a2f4:	10a0fffd 	beqz	a1,9d00a2ec <.LCFI0+0x84>
9d00a2f8:	00000000 	nop
9d00a2fc:	ac430000 	sw	v1,0(v0)
9d00a300:	0b4028a6 	j	9d00a298 <.LCFI0+0x30>
9d00a304:	8fbf0014 	lw	ra,20(sp)
9d00a308:	24420000 	addiu	v0,v0,0
9d00a30c:	1040ffec 	beqz	v0,9d00a2c0 <.LCFI0+0x58>
9d00a310:	3c02bf80 	lui	v0,0xbf80
9d00a314:	0c000000 	jal	90000000 <_bmxdudba_address+0x8ffe0000>
9d00a318:	00000000 	nop
9d00a31c:	0b4028a6 	j	9d00a298 <.LCFI0+0x30>
9d00a320:	8fbf0014 	lw	ra,20(sp)
9d00a324:	24426020 	addiu	v0,v0,24608
9d00a328:	3c05bf80 	lui	a1,0xbf80
9d00a32c:	24a56018 	addiu	a1,a1,24600
9d00a330:	3c06bf80 	lui	a2,0xbf80
9d00a334:	0b4028b7 	j	9d00a2dc <.LCFI0+0x74>
9d00a338:	24c66008 	addiu	a2,a2,24584

Disassembly of section .text._sbrk:

9d00a33c <_sbrk>:
9d00a33c:	27bdffe0 	addiu	sp,sp,-32

9d00a340 <.LCFI4>:
9d00a340:	afbf001c 	sw	ra,28(sp)
9d00a344:	afb00018 	sw	s0,24(sp)
9d00a348:	3c10a000 	lui	s0,0xa000
9d00a34c:	8e021bcc 	lw	v0,7116(s0)
9d00a350:	10400010 	beqz	v0,9d00a394 <.LCFI4+0x54>
9d00a354:	00000000 	nop
9d00a358:	1880001b 	blez	a0,9d00a3c8 <.LCFI4+0x88>
9d00a35c:	00441821 	addu	v1,v0,a0
9d00a360:	0062202b 	sltu	a0,v1,v0
9d00a364:	54800011 	bnezl	a0,9d00a3ac <.LCFI4+0x6c>
9d00a368:	2403000c 	li	v1,12
9d00a36c:	3c04a000 	lui	a0,0xa000
9d00a370:	8c841bd0 	lw	a0,7120(a0)
9d00a374:	0083202b 	sltu	a0,a0,v1
9d00a378:	5480000c 	bnezl	a0,9d00a3ac <.LCFI4+0x6c>
9d00a37c:	2403000c 	li	v1,12
9d00a380:	ae031bcc 	sw	v1,7116(s0)
9d00a384:	8fbf001c 	lw	ra,28(sp)
9d00a388:	8fb00018 	lw	s0,24(sp)
9d00a38c:	03e00008 	jr	ra
9d00a390:	27bd0020 	addiu	sp,sp,32
9d00a394:	0f402510 	jal	9d009440 <.LFE23>
9d00a398:	afa40010 	sw	a0,16(sp)
9d00a39c:	8e021bcc 	lw	v0,7116(s0)
9d00a3a0:	1440ffed 	bnez	v0,9d00a358 <.LCFI4+0x18>
9d00a3a4:	8fa40010 	lw	a0,16(sp)
9d00a3a8:	2403000c 	li	v1,12
9d00a3ac:	3c02a000 	lui	v0,0xa000
9d00a3b0:	ac430030 	sw	v1,48(v0)
9d00a3b4:	2402ffff 	li	v0,-1
9d00a3b8:	8fbf001c 	lw	ra,28(sp)
9d00a3bc:	8fb00018 	lw	s0,24(sp)
9d00a3c0:	03e00008 	jr	ra
9d00a3c4:	27bd0020 	addiu	sp,sp,32
9d00a3c8:	0043202b 	sltu	a0,v0,v1
9d00a3cc:	14800005 	bnez	a0,9d00a3e4 <.LCFI4+0xa4>
9d00a3d0:	3c04a000 	lui	a0,0xa000
9d00a3d4:	8c841bd4 	lw	a0,7124(a0)
9d00a3d8:	0064202b 	sltu	a0,v1,a0
9d00a3dc:	5080ffe9 	beqzl	a0,9d00a384 <.LCFI4+0x44>
9d00a3e0:	ae031bcc 	sw	v1,7116(s0)
9d00a3e4:	24030016 	li	v1,22
9d00a3e8:	3c02a000 	lui	v0,0xa000
9d00a3ec:	ac430030 	sw	v1,48(v0)
9d00a3f0:	2402ffff 	li	v0,-1
9d00a3f4:	8fbf001c 	lw	ra,28(sp)
9d00a3f8:	8fb00018 	lw	s0,24(sp)
9d00a3fc:	03e00008 	jr	ra
9d00a400:	27bd0020 	addiu	sp,sp,32

Disassembly of section .text.fputc:

9d00a404 <fputc>:
9d00a404:	27bdffe0 	addiu	sp,sp,-32
9d00a408:	afbf001c 	sw	ra,28(sp)
9d00a40c:	afb10018 	sw	s1,24(sp)
9d00a410:	afb00014 	sw	s0,20(sp)
9d00a414:	00a08021 	move	s0,a1
9d00a418:	8ca20018 	lw	v0,24(a1)
9d00a41c:	00808821 	move	s1,a0
9d00a420:	24050001 	li	a1,1
9d00a424:	8c420010 	lw	v0,16(v0)
9d00a428:	0040f809 	jalr	v0
9d00a42c:	02002021 	move	a0,s0
9d00a430:	1040000e 	beqz	v0,9d00a46c <fputc+0x68>
9d00a434:	2402ffff 	li	v0,-1
9d00a438:	8e020000 	lw	v0,0(s0)
9d00a43c:	2442ffff 	addiu	v0,v0,-1
9d00a440:	04400011 	bltz	v0,9d00a488 <fputc+0x84>
9d00a444:	ae020000 	sw	v0,0(s0)
9d00a448:	96020010 	lhu	v0,16(s0)
9d00a44c:	30420008 	andi	v0,v0,0x8
9d00a450:	1440000b 	bnez	v0,9d00a480 <fputc+0x7c>
9d00a454:	2402000a 	li	v0,10
9d00a458:	8e030004 	lw	v1,4(s0)
9d00a45c:	02201021 	move	v0,s1
9d00a460:	24640001 	addiu	a0,v1,1
9d00a464:	ae040004 	sw	a0,4(s0)
9d00a468:	a0710000 	sb	s1,0(v1)
9d00a46c:	8fbf001c 	lw	ra,28(sp)
9d00a470:	8fb10018 	lw	s1,24(sp)
9d00a474:	8fb00014 	lw	s0,20(sp)
9d00a478:	03e00008 	jr	ra
9d00a47c:	27bd0020 	addiu	sp,sp,32
9d00a480:	5622fff6 	bnel	s1,v0,9d00a45c <fputc+0x58>
9d00a484:	8e030004 	lw	v1,4(s0)
9d00a488:	8e020018 	lw	v0,24(s0)
9d00a48c:	02202021 	move	a0,s1
9d00a490:	8c420004 	lw	v0,4(v0)
9d00a494:	0040f809 	jalr	v0
9d00a498:	02002821 	move	a1,s0
9d00a49c:	8fbf001c 	lw	ra,28(sp)
9d00a4a0:	8fb10018 	lw	s1,24(sp)
9d00a4a4:	8fb00014 	lw	s0,20(sp)
9d00a4a8:	03e00008 	jr	ra
9d00a4ac:	27bd0020 	addiu	sp,sp,32

Disassembly of section .text.fptodp:

9d00a4b0 <__extendsfdf2>:
9d00a4b0:	00043dc2 30e700ff 3c018000 00813024     .=.....0...<$0..
9d00a4c0:	24e9ffff 2d2100fe 1020000d 00000000     ...$..!-.. .....

9d00a4d0 <Glab1>:
9d00a4d0:	24e70380 	addiu	a3,a3,896
9d00a4d4:	00044a40 	sll	t1,a0,0x9
9d00a4d8:	00094b02 	srl	t1,t1,0xc
9d00a4dc:	00c93025 	or	a2,a2,t1
9d00a4e0:	00042f40 	sll	a1,a0,0x1d

9d00a4e4 <Gret>:
9d00a4e4:	00074d00 	sll	t1,a3,0x14
9d00a4e8:	00c93025 	or	a2,a2,t1
9d00a4ec:	00051025 	or	v0,zero,a1
9d00a4f0:	00061825 	or	v1,zero,a2

9d00a4f4 <G999>:
9d00a4f4:	03e00008 	jr	ra
9d00a4f8:	00000000 	nop
9d00a4fc:	00000000 	nop

9d00a500 <Gspec>:
9d00a500:	24050000 	li	a1,0
9d00a504:	00842021 	addu	a0,a0,a0
9d00a508:	1080fff6 	beqz	a0,9d00a4e4 <Gret>
9d00a50c:	00000000 	nop
9d00a510:	14e00009 	bnez	a3,9d00a538 <i42>
9d00a514:	00000000 	nop

9d00a518 <b43>:
9d00a518:	24e7ffff 	addiu	a3,a3,-1
9d00a51c:	00842021 	addu	a0,a0,a0
9d00a520:	3c010080 	lui	at,0x80
9d00a524:	0081082b 	sltu	at,a0,at
9d00a528:	1420fffb 	bnez	at,9d00a518 <b43>
9d00a52c:	00000000 	nop
9d00a530:	1000ffe7 	b	9d00a4d0 <Glab1>
9d00a534:	00000000 	nop

9d00a538 <i42>:
9d00a538:	240707ff 	li	a3,2047
9d00a53c:	3c01ff00 	lui	at,0xff00
9d00a540:	34210001 	ori	at,at,0x1
9d00a544:	0081082b 	sltu	at,a0,at
9d00a548:	1420ffe6 	bnez	at,9d00a4e4 <Gret>
9d00a54c:	00000000 	nop
9d00a550:	1000ffe4 	b	9d00a4e4 <Gret>
9d00a554:	3c06fff8 	lui	a2,0xfff8
9d00a558:	00000000 	nop

Disassembly of section .text._fullexit:

9d00a55c <_fullexit>:
9d00a55c:	27bdffe0 	addiu	sp,sp,-32
9d00a560:	afbf001c 	sw	ra,28(sp)
9d00a564:	afb20018 	sw	s2,24(sp)
9d00a568:	afb10014 	sw	s1,20(sp)
9d00a56c:	afb00010 	sw	s0,16(sp)
9d00a570:	3c10a000 	lui	s0,0xa000
9d00a574:	3c11a000 	lui	s1,0xa000
9d00a578:	00809021 	move	s2,a0
9d00a57c:	0f402df4 	jal	9d00b7d0 <_weak_pthread_mutex_lock>
9d00a580:	26041bd8 	addiu	a0,s0,7128
9d00a584:	8e220008 	lw	v0,8(s1)
9d00a588:	26041bd8 	addiu	a0,s0,7128
9d00a58c:	24030001 	li	v1,1
9d00a590:	0f402df8 	jal	9d00b7e0 <_weak_pthread_mutex_unlock>
9d00a594:	ac430038 	sw	v1,56(v0)
9d00a598:	8e220008 	lw	v0,8(s1)
9d00a59c:	8c500010 	lw	s0,16(v0)
9d00a5a0:	5600000a 	bnezl	s0,9d00a5cc <_fullexit+0x70>
9d00a5a4:	8e020004 	lw	v0,4(s0)
9d00a5a8:	0b40297a 	j	9d00a5e8 <_fullexit+0x8c>
9d00a5ac:	8c420034 	lw	v0,52(v0)
9d00a5b0:	00031880 	sll	v1,v1,0x2
9d00a5b4:	02031821 	addu	v1,s0,v1
9d00a5b8:	8c630000 	lw	v1,0(v1)
9d00a5bc:	2442ffff 	addiu	v0,v0,-1
9d00a5c0:	0060f809 	jalr	v1
9d00a5c4:	ae020004 	sw	v0,4(s0)
9d00a5c8:	8e020004 	lw	v0,4(s0)
9d00a5cc:	1c40fff8 	bgtz	v0,9d00a5b0 <_fullexit+0x54>
9d00a5d0:	24430001 	addiu	v1,v0,1
9d00a5d4:	8e100000 	lw	s0,0(s0)
9d00a5d8:	5600fffc 	bnezl	s0,9d00a5cc <_fullexit+0x70>
9d00a5dc:	8e020004 	lw	v0,4(s0)
9d00a5e0:	8e220008 	lw	v0,8(s1)
9d00a5e4:	8c420034 	lw	v0,52(v0)
9d00a5e8:	10400003 	beqz	v0,9d00a5f8 <_fullexit+0x9c>
9d00a5ec:	00000000 	nop
9d00a5f0:	0040f809 	jalr	v0
9d00a5f4:	00000000 	nop
9d00a5f8:	0f402e1c 	jal	9d00b870 <.LFE0>
9d00a5fc:	02402021 	move	a0,s2

Disassembly of section .text._o_init:

9d00a600 <_o_init>:
9d00a600:	27bdffe8 	addiu	sp,sp,-24
9d00a604:	afbf0014 	sw	ra,20(sp)
9d00a608:	afb00010 	sw	s0,16(sp)
9d00a60c:	00808021 	move	s0,a0
9d00a610:	3c02a000 	lui	v0,0xa000
9d00a614:	8c430008 	lw	v1,8(v0)
9d00a618:	8c820008 	lw	v0,8(a0)
9d00a61c:	3c059d01 	lui	a1,0x9d01
9d00a620:	24a5b52c 	addiu	a1,a1,-19156
9d00a624:	1040001b 	beqz	v0,9d00a694 <_o_init+0x94>
9d00a628:	ac650034 	sw	a1,52(v1)
9d00a62c:	8e03000c 	lw	v1,12(s0)
9d00a630:	50600004 	beqzl	v1,9d00a644 <_o_init+0x44>
9d00a634:	96020010 	lhu	v0,16(s0)
9d00a638:	8e020008 	lw	v0,8(s0)
9d00a63c:	ae020004 	sw	v0,4(s0)
9d00a640:	96020010 	lhu	v0,16(s0)
9d00a644:	ae030000 	sw	v1,0(s0)
9d00a648:	34430002 	ori	v1,v0,0x2
9d00a64c:	30441000 	andi	a0,v0,0x1000
9d00a650:	10800006 	beqz	a0,9d00a66c <_o_init+0x6c>
9d00a654:	a6030010 	sh	v1,16(s0)
9d00a658:	30420008 	andi	v0,v0,0x8
9d00a65c:	14400007 	bnez	v0,9d00a67c <_o_init+0x7c>
9d00a660:	00000000 	nop
9d00a664:	7c036304 	ins	v1,zero,0xc,0x1
9d00a668:	a6030010 	sh	v1,16(s0)
9d00a66c:	8fbf0014 	lw	ra,20(sp)
9d00a670:	8fb00010 	lw	s0,16(sp)
9d00a674:	03e00008 	jr	ra
9d00a678:	27bd0018 	addiu	sp,sp,24
9d00a67c:	0f402e1e 	jal	9d00b878 <.LFE0>
9d00a680:	86040012 	lh	a0,18(s0)
9d00a684:	1440fff7 	bnez	v0,9d00a664 <_o_init+0x64>
9d00a688:	96030010 	lhu	v1,16(s0)
9d00a68c:	0b402999 	j	9d00a664 <_o_init+0x64>
9d00a690:	3063fff7 	andi	v1,v1,0xfff7
9d00a694:	0f402bd0 	jal	9d00af40 <_bufalloc>
9d00a698:	00000000 	nop
9d00a69c:	0b40298c 	j	9d00a630 <_o_init+0x30>
9d00a6a0:	8e03000c 	lw	v1,12(s0)

Disassembly of section .text.repl:

9d00a6a4 <repl>:
9d00a6a4:	27bdffd8 	addiu	sp,sp,-40
9d00a6a8:	afbf0024 	sw	ra,36(sp)
9d00a6ac:	afb40020 	sw	s4,32(sp)
9d00a6b0:	afb3001c 	sw	s3,28(sp)
9d00a6b4:	afb20018 	sw	s2,24(sp)
9d00a6b8:	afb10014 	sw	s1,20(sp)
9d00a6bc:	afb00010 	sw	s0,16(sp)
9d00a6c0:	00a08021 	move	s0,a1
9d00a6c4:	0080a021 	move	s4,a0
9d00a6c8:	00c09821 	move	s3,a2
9d00a6cc:	24120020 	li	s2,32
9d00a6d0:	2411ffff 	li	s1,-1
9d00a6d4:	12000011 	beqz	s0,9d00a71c <repl+0x78>
9d00a6d8:	2e020021 	sltiu	v0,s0,33
9d00a6dc:	02401821 	move	v1,s2
9d00a6e0:	0202180b 	movn	v1,s0,v0
9d00a6e4:	02602021 	move	a0,s3
9d00a6e8:	00602821 	move	a1,v1
9d00a6ec:	02803021 	move	a2,s4
9d00a6f0:	0f402b9c 	jal	9d00ae70 <__sputn>
9d00a6f4:	02038023 	subu	s0,s0,v1
9d00a6f8:	1451fff6 	bne	v0,s1,9d00a6d4 <repl+0x30>
9d00a6fc:	8fbf0024 	lw	ra,36(sp)
9d00a700:	8fb40020 	lw	s4,32(sp)
9d00a704:	8fb3001c 	lw	s3,28(sp)
9d00a708:	8fb20018 	lw	s2,24(sp)
9d00a70c:	8fb10014 	lw	s1,20(sp)
9d00a710:	8fb00010 	lw	s0,16(sp)
9d00a714:	03e00008 	jr	ra
9d00a718:	27bd0028 	addiu	sp,sp,40
9d00a71c:	00001021 	move	v0,zero
9d00a720:	8fbf0024 	lw	ra,36(sp)
9d00a724:	8fb40020 	lw	s4,32(sp)
9d00a728:	8fb3001c 	lw	s3,28(sp)
9d00a72c:	8fb20018 	lw	s2,24(sp)
9d00a730:	8fb10014 	lw	s1,20(sp)
9d00a734:	8fb00010 	lw	s0,16(sp)
9d00a738:	03e00008 	jr	ra
9d00a73c:	27bd0028 	addiu	sp,sp,40

Disassembly of section .text._eat_white:

9d00a740 <_eat_white>:
9d00a740:	27bdffe0 	addiu	sp,sp,-32
9d00a744:	afbf001c 	sw	ra,28(sp)
9d00a748:	afb20018 	sw	s2,24(sp)
9d00a74c:	afb10014 	sw	s1,20(sp)
9d00a750:	afb00010 	sw	s0,16(sp)
9d00a754:	00808021 	move	s0,a0
9d00a758:	2411ffff 	li	s1,-1
9d00a75c:	3c129d01 	lui	s2,0x9d01
9d00a760:	0b4029de 	j	9d00a778 <_eat_white+0x38>
9d00a764:	26529b9d 	addiu	s2,s2,-25699
9d00a768:	80630000 	lb	v1,0(v1)
9d00a76c:	30630088 	andi	v1,v1,0x88
9d00a770:	50600010 	beqzl	v1,9d00a7b4 <_eat_white+0x74>
9d00a774:	8e030010 	lw	v1,16(s0)
9d00a778:	0f402bea 	jal	9d00afa8 <gsgetc>
9d00a77c:	02002021 	move	a0,s0
9d00a780:	1451fff9 	bne	v0,s1,9d00a768 <_eat_white+0x28>
9d00a784:	00521821 	addu	v1,v0,s2
9d00a788:	8e030010 	lw	v1,16(s0)
9d00a78c:	ae110004 	sw	s1,4(s0)
9d00a790:	2402ffff 	li	v0,-1
9d00a794:	2463ffff 	addiu	v1,v1,-1
9d00a798:	ae030010 	sw	v1,16(s0)
9d00a79c:	8fbf001c 	lw	ra,28(sp)
9d00a7a0:	8fb20018 	lw	s2,24(sp)
9d00a7a4:	8fb10014 	lw	s1,20(sp)
9d00a7a8:	8fb00010 	lw	s0,16(sp)
9d00a7ac:	03e00008 	jr	ra
9d00a7b0:	27bd0020 	addiu	sp,sp,32
9d00a7b4:	ae020004 	sw	v0,4(s0)
9d00a7b8:	00001021 	move	v0,zero
9d00a7bc:	2463ffff 	addiu	v1,v1,-1
9d00a7c0:	ae030010 	sw	v1,16(s0)
9d00a7c4:	8fbf001c 	lw	ra,28(sp)
9d00a7c8:	8fb20018 	lw	s2,24(sp)
9d00a7cc:	8fb10014 	lw	s1,20(sp)
9d00a7d0:	8fb00010 	lw	s0,16(sp)
9d00a7d4:	03e00008 	jr	ra
9d00a7d8:	27bd0020 	addiu	sp,sp,32

Disassembly of section .text._i_init:

9d00a7dc <_i_init>:
9d00a7dc:	27bdffe8 	addiu	sp,sp,-24
9d00a7e0:	afbf0014 	sw	ra,20(sp)
9d00a7e4:	afb00010 	sw	s0,16(sp)
9d00a7e8:	8c820008 	lw	v0,8(a0)
9d00a7ec:	1040001d 	beqz	v0,9d00a864 <_i_init+0x88>
9d00a7f0:	00808021 	move	s0,a0
9d00a7f4:	8e02000c 	lw	v0,12(s0)
9d00a7f8:	54400012 	bnezl	v0,9d00a844 <_i_init+0x68>
9d00a7fc:	8e020008 	lw	v0,8(s0)
9d00a800:	2402ffff 	li	v0,-1
9d00a804:	ae020004 	sw	v0,4(s0)
9d00a808:	96020010 	lhu	v0,16(s0)
9d00a80c:	ae000000 	sw	zero,0(s0)
9d00a810:	34430001 	ori	v1,v0,0x1
9d00a814:	30441000 	andi	a0,v0,0x1000
9d00a818:	10800006 	beqz	a0,9d00a834 <_i_init+0x58>
9d00a81c:	a6030010 	sh	v1,16(s0)
9d00a820:	30420008 	andi	v0,v0,0x8
9d00a824:	14400009 	bnez	v0,9d00a84c <_i_init+0x70>
9d00a828:	00000000 	nop
9d00a82c:	7c036304 	ins	v1,zero,0xc,0x1
9d00a830:	a6030010 	sh	v1,16(s0)
9d00a834:	8fbf0014 	lw	ra,20(sp)
9d00a838:	8fb00010 	lw	s0,16(sp)
9d00a83c:	03e00008 	jr	ra
9d00a840:	27bd0018 	addiu	sp,sp,24
9d00a844:	0b402a02 	j	9d00a808 <_i_init+0x2c>
9d00a848:	ae020004 	sw	v0,4(s0)
9d00a84c:	0f402e1e 	jal	9d00b878 <.LFE0>
9d00a850:	86040012 	lh	a0,18(s0)
9d00a854:	1440fff5 	bnez	v0,9d00a82c <_i_init+0x50>
9d00a858:	96030010 	lhu	v1,16(s0)
9d00a85c:	0b402a0b 	j	9d00a82c <_i_init+0x50>
9d00a860:	3063fff7 	andi	v1,v1,0xfff7
9d00a864:	0f402bd0 	jal	9d00af40 <_bufalloc>
9d00a868:	00000000 	nop
9d00a86c:	0b4029fe 	j	9d00a7f8 <_i_init+0x1c>
9d00a870:	8e02000c 	lw	v0,12(s0)

Disassembly of section .text.strlen:

9d00a874 <strlen>:
9d00a874:	30830003 	andi	v1,a0,0x3
9d00a878:	1460001e 	bnez	v1,9d00a8f4 <strlen+0x80>
9d00a87c:	00801021 	move	v0,a0
9d00a880:	8c820000 	lw	v0,0(a0)
9d00a884:	3c07fefe 	lui	a3,0xfefe
9d00a888:	34e7feff 	ori	a3,a3,0xfeff
9d00a88c:	00471821 	addu	v1,v0,a3
9d00a890:	00021027 	nor	v0,zero,v0
9d00a894:	3c068080 	lui	a2,0x8080
9d00a898:	34c68080 	ori	a2,a2,0x8080
9d00a89c:	00621824 	and	v1,v1,v0
9d00a8a0:	00661824 	and	v1,v1,a2
9d00a8a4:	14600013 	bnez	v1,9d00a8f4 <strlen+0x80>
9d00a8a8:	00801021 	move	v0,a0
9d00a8ac:	24420004 	addiu	v0,v0,4
9d00a8b0:	8c430000 	lw	v1,0(v0)
9d00a8b4:	00672821 	addu	a1,v1,a3
9d00a8b8:	00031827 	nor	v1,zero,v1
9d00a8bc:	00a31824 	and	v1,a1,v1
9d00a8c0:	00661824 	and	v1,v1,a2
9d00a8c4:	5460000c 	bnezl	v1,9d00a8f8 <strlen+0x84>
9d00a8c8:	80430000 	lb	v1,0(v0)
9d00a8cc:	24420004 	addiu	v0,v0,4
9d00a8d0:	8c430000 	lw	v1,0(v0)
9d00a8d4:	00672821 	addu	a1,v1,a3
9d00a8d8:	00031827 	nor	v1,zero,v1
9d00a8dc:	00a31824 	and	v1,a1,v1
9d00a8e0:	00661824 	and	v1,v1,a2
9d00a8e4:	5060fff2 	beqzl	v1,9d00a8b0 <strlen+0x3c>
9d00a8e8:	24420004 	addiu	v0,v0,4
9d00a8ec:	0b402a3e 	j	9d00a8f8 <strlen+0x84>
9d00a8f0:	80430000 	lb	v1,0(v0)
9d00a8f4:	80430000 	lb	v1,0(v0)
9d00a8f8:	5460fffe 	bnezl	v1,9d00a8f4 <strlen+0x80>
9d00a8fc:	24420001 	addiu	v0,v0,1
9d00a900:	03e00008 	jr	ra
9d00a904:	00441023 	subu	v0,v0,a0

Disassembly of section .text.dptoli:

9d00a908 <__fixdfsi>:
9d00a908:	00053ac0 00045542 00ea3825 3c018000     .:..BU..%8.....<
9d00a918:	00e13825 00055040 000a5542 2406041e     %8..@P..BU.....$
9d00a928:	00ca3023 18c0000c 00000000 2cc10020     #0.......... ..,
9d00a938:	14200002 00000000 34070000              .. ........4

9d00a944 <L42>:
9d00a944:	04a10002 	bgez	a1,9d00a950 <i50>
9d00a948:	00c73806 	srlv	a3,a3,a2
9d00a94c:	00073823 	negu	a3,a3

9d00a950 <i50>:
9d00a950:	00071025 	or	v0,zero,a3

9d00a954 <I999>:
9d00a954:	03e00008 	jr	ra
9d00a958:	00000000 	nop
9d00a95c:	00000000 	nop

9d00a960 <Inaninf>:
9d00a960:	10800002 	beqz	a0,9d00a96c <i51>
9d00a964:	00000000 	nop
9d00a968:	34a50001 	ori	a1,a1,0x1

9d00a96c <i51>:
9d00a96c:	3c017ff0 	lui	at,0x7ff0
9d00a970:	34210001 	ori	at,at,0x1
9d00a974:	00a1082b 	sltu	at,a1,at
9d00a978:	14200003 	bnez	at,9d00a988 <i52>
9d00a97c:	00000000 	nop
9d00a980:	1000fff4 	b	9d00a954 <I999>
9d00a984:	3c028000 	lui	v0,0x8000

9d00a988 <i52>:
9d00a988:	3c027fff 	lui	v0,0x7fff
9d00a98c:	1000fff1 	b	9d00a954 <I999>
9d00a990:	3442ffff 	ori	v0,v0,0xffff
9d00a994:	00000000 	nop

Disassembly of section .text.dptoul:

9d00a998 <__fixunsdfsi>:
9d00a998:	00053ac0 00045542 00ea3825 3c018000     .:..BU..%8.....<
9d00a9a8:	00e13825 00055040 000a5542 2406041e     %8..@P..BU.....$
9d00a9b8:	00ca3023 04c0000c 00000000 2cc10020     #0.......... ..,
9d00a9c8:	14200002 00000000 34070000              .. ........4

9d00a9d4 <L43>:
9d00a9d4:	04a10002 	bgez	a1,9d00a9e0 <i53>
9d00a9d8:	00c73806 	srlv	a3,a3,a2
9d00a9dc:	00073823 	negu	a3,a3

9d00a9e0 <i53>:
9d00a9e0:	00071025 	or	v0,zero,a3

9d00a9e4 <K999>:
9d00a9e4:	03e00008 	jr	ra
9d00a9e8:	00000000 	nop
9d00a9ec:	00000000 	nop

9d00a9f0 <Knaninf>:
9d00a9f0:	10800002 	beqz	a0,9d00a9fc <i54>
9d00a9f4:	00000000 	nop
9d00a9f8:	34a50001 	ori	a1,a1,0x1

9d00a9fc <i54>:
9d00a9fc:	3c017ff0 	lui	at,0x7ff0
9d00aa00:	34210001 	ori	at,at,0x1
9d00aa04:	00a1082b 	sltu	at,a1,at
9d00aa08:	14200003 	bnez	at,9d00aa18 <i55>
9d00aa0c:	00000000 	nop
9d00aa10:	1000fff4 	b	9d00a9e4 <K999>
9d00aa14:	3c028000 	lui	v0,0x8000

9d00aa18 <i55>:
9d00aa18:	1000fff2 	b	9d00a9e4 <K999>
9d00aa1c:	2402ffff 	li	v0,-1
9d00aa20:	00000000 	nop

Disassembly of section .text:

9d00aa24 <__pic32_data_init>:
9d00aa24:	03e01821 	move	v1,ra

9d00aa28 <_dinit_init>:
9d00aa28:	3c089d00 	lui	t0,0x9d00
9d00aa2c:	2508499c 	addiu	t0,t0,18844
9d00aa30:	8d090000 	lw	t1,0(t0)
9d00aa34:	11200018 	beqz	t1,9d00aa98 <_dinit_end+0x18>
9d00aa38:	25080004 	addiu	t0,t0,4
9d00aa3c:	8d0a0000 	lw	t2,0(t0)
9d00aa40:	25080004 	addiu	t0,t0,4
9d00aa44:	8d0b0000 	lw	t3,0(t0)
9d00aa48:	11600009 	beqz	t3,9d00aa70 <_dinit_clear>
9d00aa4c:	25080004 	addiu	t0,t0,4

9d00aa50 <_dinit_copy>:
9d00aa50:	910c0000 	lbu	t4,0(t0)
9d00aa54:	254affff 	addiu	t2,t2,-1
9d00aa58:	25080001 	addiu	t0,t0,1
9d00aa5c:	a12c0000 	sb	t4,0(t1)
9d00aa60:	1540fffb 	bnez	t2,9d00aa50 <_dinit_copy>
9d00aa64:	25290001 	addiu	t1,t1,1
9d00aa68:	10000005 	b	9d00aa80 <_dinit_end>
9d00aa6c:	00000000 	nop

9d00aa70 <_dinit_clear>:
9d00aa70:	a1200000 	sb	zero,0(t1)
9d00aa74:	254affff 	addiu	t2,t2,-1
9d00aa78:	1540fffd 	bnez	t2,9d00aa70 <_dinit_clear>
9d00aa7c:	25290001 	addiu	t1,t1,1

9d00aa80 <_dinit_end>:
9d00aa80:	25080003 	addiu	t0,t0,3
9d00aa84:	240afffc 	li	t2,-4
9d00aa88:	01484024 	and	t0,t2,t0
9d00aa8c:	8d090000 	lw	t1,0(t0)
9d00aa90:	1520ffe7 	bnez	t1,9d00aa30 <_dinit_init+0x8>
9d00aa94:	00000000 	nop
9d00aa98:	0060f821 	move	ra,v1
9d00aa9c:	03e00008 	jr	ra
9d00aaa0:	00000000 	nop
9d00aaa4:	00000000 	nop

Disassembly of section .text._fflush_simple:

9d00aaa8 <_fflush_simple>:
9d00aaa8:	27bdffe8 	addiu	sp,sp,-24
9d00aaac:	afbf0014 	sw	ra,20(sp)
9d00aab0:	afb00010 	sw	s0,16(sp)
9d00aab4:	94820010 	lhu	v0,16(a0)
9d00aab8:	30420002 	andi	v0,v0,0x2
9d00aabc:	10400013 	beqz	v0,9d00ab0c <_fflush_simple+0x64>
9d00aac0:	00808021 	move	s0,a0
9d00aac4:	8c850000 	lw	a1,0(a0)
9d00aac8:	04a0000c 	bltz	a1,9d00aafc <_fflush_simple+0x54>
9d00aacc:	00001021 	move	v0,zero
9d00aad0:	8c82000c 	lw	v0,12(a0)
9d00aad4:	50a20006 	beql	a1,v0,9d00aaf0 <_fflush_simple+0x48>
9d00aad8:	8e030008 	lw	v1,8(s0)
9d00aadc:	8c840008 	lw	a0,8(a0)
9d00aae0:	0f402c5d 	jal	9d00b174 <.LCFI11>
9d00aae4:	00452823 	subu	a1,v0,a1
9d00aae8:	8e02000c 	lw	v0,12(s0)
9d00aaec:	8e030008 	lw	v1,8(s0)
9d00aaf0:	ae020000 	sw	v0,0(s0)
9d00aaf4:	ae030004 	sw	v1,4(s0)
9d00aaf8:	00001021 	move	v0,zero
9d00aafc:	8fbf0014 	lw	ra,20(sp)
9d00ab00:	8fb00010 	lw	s0,16(sp)
9d00ab04:	03e00008 	jr	ra
9d00ab08:	27bd0018 	addiu	sp,sp,24
9d00ab0c:	2402ffff 	li	v0,-1
9d00ab10:	ac820004 	sw	v0,4(a0)
9d00ab14:	00001021 	move	v0,zero
9d00ab18:	8fbf0014 	lw	ra,20(sp)
9d00ab1c:	8fb00010 	lw	s0,16(sp)
9d00ab20:	03e00008 	jr	ra
9d00ab24:	27bd0018 	addiu	sp,sp,24

Disassembly of section .text._fwrite_simple:

9d00ab28 <_fwrite_simple>:
9d00ab28:	27bdffd8 	addiu	sp,sp,-40
9d00ab2c:	afbf0024 	sw	ra,36(sp)
9d00ab30:	afb10020 	sw	s1,32(sp)
9d00ab34:	afb0001c 	sw	s0,28(sp)
9d00ab38:	70c58002 	mul	s0,a2,a1
9d00ab3c:	12000007 	beqz	s0,9d00ab5c <_fwrite_simple+0x34>
9d00ab40:	00001021 	move	v0,zero
9d00ab44:	94e30010 	lhu	v1,16(a3)
9d00ab48:	30630001 	andi	v1,v1,0x1
9d00ab4c:	10600008 	beqz	v1,9d00ab70 <_fwrite_simple+0x48>
9d00ab50:	3c03a000 	lui	v1,0xa000
9d00ab54:	24040009 	li	a0,9
9d00ab58:	ac640030 	sw	a0,48(v1)
9d00ab5c:	8fbf0024 	lw	ra,36(sp)
9d00ab60:	8fb10020 	lw	s1,32(sp)
9d00ab64:	8fb0001c 	lw	s0,28(sp)
9d00ab68:	03e00008 	jr	ra
9d00ab6c:	27bd0028 	addiu	sp,sp,40
9d00ab70:	00808821 	move	s1,a0
9d00ab74:	00e02021 	move	a0,a3
9d00ab78:	0f402aaa 	jal	9d00aaa8 <_fflush_simple>
9d00ab7c:	afa60010 	sw	a2,16(sp)
9d00ab80:	02202021 	move	a0,s1
9d00ab84:	0f402c5d 	jal	9d00b174 <.LCFI11>
9d00ab88:	02002821 	move	a1,s0
9d00ab8c:	8fa60010 	lw	a2,16(sp)
9d00ab90:	00c01021 	move	v0,a2
9d00ab94:	8fbf0024 	lw	ra,36(sp)
9d00ab98:	8fb10020 	lw	s1,32(sp)
9d00ab9c:	8fb0001c 	lw	s0,28(sp)
9d00aba0:	03e00008 	jr	ra
9d00aba4:	27bd0028 	addiu	sp,sp,40

Disassembly of section .text.fptoli:

9d00aba8 <__fixsfsi>:
9d00aba8:	00042a00 3c018000 00a12825 00043dc2     .*.....<%(...=..
9d00abb8:	30e700ff 2406009e 00c73023 18c0000d     ...0...$#0......
9d00abc8:	00000000 28c10020 14200003 00000000     .... ..(.. .....
9d00abd8:	10000005 24020000                       .......$

9d00abe0 <i42>:
9d00abe0:	04810002 	bgez	a0,9d00abec <i43>
9d00abe4:	00c52806 	srlv	a1,a1,a2
9d00abe8:	00052823 	negu	a1,a1

9d00abec <i43>:
9d00abec:	00051025 	or	v0,zero,a1

9d00abf0 <G999>:
9d00abf0:	03e00008 	jr	ra
9d00abf4:	00000000 	nop
9d00abf8:	00000000 	nop

9d00abfc <Gspec>:
9d00abfc:	3c017f80 	lui	at,0x7f80
9d00ac00:	34210001 	ori	at,at,0x1
9d00ac04:	0081082b 	sltu	at,a0,at
9d00ac08:	14200003 	bnez	at,9d00ac18 <i44>
9d00ac0c:	00000000 	nop
9d00ac10:	1000fff7 	b	9d00abf0 <G999>
9d00ac14:	3c028000 	lui	v0,0x8000

9d00ac18 <i44>:
9d00ac18:	3c027fff 	lui	v0,0x7fff
9d00ac1c:	1000fff4 	b	9d00abf0 <G999>
9d00ac20:	3442ffff 	ori	v0,v0,0xffff
9d00ac24:	00000000 	nop

Disassembly of section .rodata:

9d00ac28 <zeroData-0x1c>:
9d00ac28:	004e614e 	0x4e614e
9d00ac2c:	666e492d 	0x666e492d
9d00ac30:	00000000 	nop
9d00ac34:	666e492b 	0x666e492b
9d00ac38:	00000000 	nop
9d00ac3c:	6c756e28 	0x6c756e28
9d00ac40:	0000296c 	0x296c

9d00ac44 <zeroData>:
9d00ac44:	30303030 30303030 30303030 30303030     0000000000000000
9d00ac54:	30303030 30303030 30303030 30303030     0000000000000000

9d00ac64 <spaceData>:
9d00ac64:	20202020 20202020 20202020 20202020                     
9d00ac74:	20202020 20202020 20202020 20202020                     
	...
9d00ac8c:	40240000 47ae147b 3f847ae1 00000000     ..$@{..G.z.?....
9d00ac9c:	40100000                                ...@

Disassembly of section .text.fgetc:

9d00aca0 <fgetc>:
9d00aca0:	27bdffe8 	addiu	sp,sp,-24
9d00aca4:	afbf0014 	sw	ra,20(sp)
9d00aca8:	afb00010 	sw	s0,16(sp)
9d00acac:	00808021 	move	s0,a0
9d00acb0:	8c820018 	lw	v0,24(a0)
9d00acb4:	8c420010 	lw	v0,16(v0)
9d00acb8:	0040f809 	jalr	v0
9d00acbc:	24050002 	li	a1,2
9d00acc0:	10400009 	beqz	v0,9d00ace8 <fgetc+0x48>
9d00acc4:	2402ffff 	li	v0,-1
9d00acc8:	8e020000 	lw	v0,0(s0)
9d00accc:	2442ffff 	addiu	v0,v0,-1
9d00acd0:	04400009 	bltz	v0,9d00acf8 <fgetc+0x58>
9d00acd4:	ae020000 	sw	v0,0(s0)
9d00acd8:	8e020004 	lw	v0,4(s0)
9d00acdc:	24430001 	addiu	v1,v0,1
9d00ace0:	ae030004 	sw	v1,4(s0)
9d00ace4:	90420000 	lbu	v0,0(v0)
9d00ace8:	8fbf0014 	lw	ra,20(sp)
9d00acec:	8fb00010 	lw	s0,16(sp)
9d00acf0:	03e00008 	jr	ra
9d00acf4:	27bd0018 	addiu	sp,sp,24
9d00acf8:	8e020018 	lw	v0,24(s0)
9d00acfc:	8c420000 	lw	v0,0(v0)
9d00ad00:	0040f809 	jalr	v0
9d00ad04:	02002021 	move	a0,s0
9d00ad08:	8fbf0014 	lw	ra,20(sp)
9d00ad0c:	8fb00010 	lw	s0,16(sp)
9d00ad10:	03e00008 	jr	ra
9d00ad14:	27bd0018 	addiu	sp,sp,24

Disassembly of section .text.litodp:

9d00ad18 <__floatsidf>:
9d00ad18:	24050000 00054825 00053825 00043025     ...$%H..%8..%0..
9d00ad28:	10c0000c 00000000 04c10006 00000000     ................
9d00ad38:	3c098000 0005502b 00052823 00063023     ...<+P..#(..#0..
9d00ad48:	00ca3023                                #0..

9d00ad4c <i40>:
9d00ad4c:	2407041e 	li	a3,1054
9d00ad50:	70c84020 	clz	t0,a2
9d00ad54:	00e83823 	subu	a3,a3,t0
9d00ad58:	01063004 	sllv	a2,a2,t0

9d00ad5c <i39>:
9d00ad5c:	000542c2 	srl	t0,a1,0xb
9d00ad60:	00065540 	sll	t2,a2,0x15
9d00ad64:	010a4025 	or	t0,t0,t2
9d00ad68:	00065040 	sll	t2,a2,0x1
9d00ad6c:	000a5302 	srl	t2,t2,0xc
9d00ad70:	012a4825 	or	t1,t1,t2
9d00ad74:	00075500 	sll	t2,a3,0x14
9d00ad78:	012a4825 	or	t1,t1,t2
9d00ad7c:	00081025 	or	v0,zero,t0
9d00ad80:	00091825 	or	v1,zero,t1

9d00ad84 <E999>:
9d00ad84:	03e00008 	jr	ra
9d00ad88:	00000000 	nop
9d00ad8c:	00000000 	nop

Disassembly of section .text._sscanf_fF:

9d00ad90 <_sscanf_fF>:
9d00ad90:	27bdffc0 	addiu	sp,sp,-64
9d00ad94:	afbf003c 	sw	ra,60(sp)
9d00ad98:	afb00038 	sw	s0,56(sp)
9d00ad9c:	00808021 	move	s0,a0
9d00ada0:	afa60048 	sw	a2,72(sp)
9d00ada4:	afa7004c 	sw	a3,76(sp)
9d00ada8:	2402ffff 	li	v0,-1
9d00adac:	a7a20022 	sh	v0,34(sp)
9d00adb0:	24020081 	li	v0,129
9d00adb4:	a7a20020 	sh	v0,32(sp)
9d00adb8:	0f402a1d 	jal	9d00a874 <strlen>
9d00adbc:	afa50030 	sw	a1,48(sp)
9d00adc0:	27a30048 	addiu	v1,sp,72
9d00adc4:	27a40010 	addiu	a0,sp,16
9d00adc8:	8fa50030 	lw	a1,48(sp)
9d00adcc:	00603021 	move	a2,v1
9d00add0:	afa20010 	sw	v0,16(sp)
9d00add4:	afa2001c 	sw	v0,28(sp)
9d00add8:	afb00018 	sw	s0,24(sp)
9d00addc:	afb00014 	sw	s0,20(sp)
9d00ade0:	3c029d01 	lui	v0,0x9d01
9d00ade4:	2442b754 	addiu	v0,v0,-18604
9d00ade8:	afa20028 	sw	v0,40(sp)
9d00adec:	0f400780 	jal	9d001e00 <do_scan>
9d00adf0:	afa3002c 	sw	v1,44(sp)
9d00adf4:	8fbf003c 	lw	ra,60(sp)
9d00adf8:	8fb00038 	lw	s0,56(sp)
9d00adfc:	03e00008 	jr	ra
9d00ae00:	27bd0040 	addiu	sp,sp,64

Disassembly of section .text._sprintf_cdfFnopuxX:

9d00ae04 <_sprintf_cdfFnopuxX>:
9d00ae04:	27bdffc8 	addiu	sp,sp,-56
9d00ae08:	afbf0034 	sw	ra,52(sp)
9d00ae0c:	27a20040 	addiu	v0,sp,64
9d00ae10:	00801821 	move	v1,a0
9d00ae14:	afa60040 	sw	a2,64(sp)
9d00ae18:	27a40010 	addiu	a0,sp,16
9d00ae1c:	00403021 	move	a2,v0
9d00ae20:	afa70044 	sw	a3,68(sp)
9d00ae24:	2407ffff 	li	a3,-1
9d00ae28:	a7a70022 	sh	a3,34(sp)
9d00ae2c:	24070082 	li	a3,130
9d00ae30:	a7a70020 	sh	a3,32(sp)
9d00ae34:	3c077fff 	lui	a3,0x7fff
9d00ae38:	34e7fffe 	ori	a3,a3,0xfffe
9d00ae3c:	afa70010 	sw	a3,16(sp)
9d00ae40:	afa30018 	sw	v1,24(sp)
9d00ae44:	afa30014 	sw	v1,20(sp)
9d00ae48:	3c039d01 	lui	v1,0x9d01
9d00ae4c:	2463b754 	addiu	v1,v1,-18604
9d00ae50:	afa30028 	sw	v1,40(sp)
9d00ae54:	0f400a85 	jal	9d002a14 <_do_print_cdfFnopuxX>
9d00ae58:	afa2002c 	sw	v0,44(sp)
9d00ae5c:	8fa30014 	lw	v1,20(sp)
9d00ae60:	a0600000 	sb	zero,0(v1)
9d00ae64:	8fbf0034 	lw	ra,52(sp)
9d00ae68:	03e00008 	jr	ra
9d00ae6c:	27bd0038 	addiu	sp,sp,56

Disassembly of section .text.__sputn:

9d00ae70 <__sputn>:
9d00ae70:	27bdffd8 	addiu	sp,sp,-40
9d00ae74:	afbf0024 	sw	ra,36(sp)
9d00ae78:	afb30020 	sw	s3,32(sp)
9d00ae7c:	afb2001c 	sw	s2,28(sp)
9d00ae80:	afb10018 	sw	s1,24(sp)
9d00ae84:	afb00014 	sw	s0,20(sp)
9d00ae88:	00808021 	move	s0,a0
9d00ae8c:	00c09021 	move	s2,a2
9d00ae90:	00858821 	addu	s1,a0,a1
9d00ae94:	0b402bac 	j	9d00aeb0 <__sputn+0x40>
9d00ae98:	2413ffff 	li	s3,-1
9d00ae9c:	26100001 	addiu	s0,s0,1
9d00aea0:	0f402901 	jal	9d00a404 <.LCFI8>
9d00aea4:	8204ffff 	lb	a0,-1(s0)
9d00aea8:	10530005 	beq	v0,s3,9d00aec0 <__sputn+0x50>
9d00aeac:	8fbf0024 	lw	ra,36(sp)
9d00aeb0:	1611fffa 	bne	s0,s1,9d00ae9c <__sputn+0x2c>
9d00aeb4:	02402821 	move	a1,s2
9d00aeb8:	00001021 	move	v0,zero
9d00aebc:	8fbf0024 	lw	ra,36(sp)
9d00aec0:	8fb30020 	lw	s3,32(sp)
9d00aec4:	8fb2001c 	lw	s2,28(sp)
9d00aec8:	8fb10018 	lw	s1,24(sp)
9d00aecc:	8fb00014 	lw	s0,20(sp)
9d00aed0:	03e00008 	jr	ra
9d00aed4:	27bd0028 	addiu	sp,sp,40

Disassembly of section .text.memmove:

9d00aed8 <memmove>:
9d00aed8:	27bdffe8 	addiu	sp,sp,-24
9d00aedc:	0085102b 	sltu	v0,a0,a1
9d00aee0:	14400012 	bnez	v0,9d00af2c <memmove+0x54>
9d00aee4:	afbf0014 	sw	ra,20(sp)
9d00aee8:	00a61021 	addu	v0,a1,a2
9d00aeec:	0082102b 	sltu	v0,a0,v0
9d00aef0:	1040000e 	beqz	v0,9d00af2c <memmove+0x54>
9d00aef4:	24c2ffff 	addiu	v0,a2,-1
9d00aef8:	00821821 	addu	v1,a0,v0
9d00aefc:	00a22821 	addu	a1,a1,v0
9d00af00:	10c00006 	beqz	a2,9d00af1c <memmove+0x44>
9d00af04:	00663823 	subu	a3,v1,a2
9d00af08:	24a5ffff 	addiu	a1,a1,-1
9d00af0c:	90a60001 	lbu	a2,1(a1)
9d00af10:	2463ffff 	addiu	v1,v1,-1
9d00af14:	1467fffc 	bne	v1,a3,9d00af08 <memmove+0x30>
9d00af18:	a0660001 	sb	a2,1(v1)
9d00af1c:	00801021 	move	v0,a0
9d00af20:	8fbf0014 	lw	ra,20(sp)
9d00af24:	03e00008 	jr	ra
9d00af28:	27bd0018 	addiu	sp,sp,24
9d00af2c:	0f402d57 	jal	9d00b55c <memcpy>
9d00af30:	00000000 	nop
9d00af34:	8fbf0014 	lw	ra,20(sp)
9d00af38:	03e00008 	jr	ra
9d00af3c:	27bd0018 	addiu	sp,sp,24

Disassembly of section .text._bufalloc:

9d00af40 <_bufalloc>:
9d00af40:	27bdffe8 	addiu	sp,sp,-24
9d00af44:	afbf0014 	sw	ra,20(sp)
9d00af48:	afb00010 	sw	s0,16(sp)
9d00af4c:	00808021 	move	s0,a0
9d00af50:	8c84000c 	lw	a0,12(a0)
9d00af54:	5880000e 	blezl	a0,9d00af90 <_bufalloc+0x50>
9d00af58:	ae00000c 	sw	zero,12(s0)
9d00af5c:	0f400d2f 	jal	9d0034bc <malloc>
9d00af60:	00000000 	nop
9d00af64:	10400009 	beqz	v0,9d00af8c <_bufalloc+0x4c>
9d00af68:	ae020008 	sw	v0,8(s0)
9d00af6c:	96030010 	lhu	v1,16(s0)
9d00af70:	ae020004 	sw	v0,4(s0)
9d00af74:	34620010 	ori	v0,v1,0x10
9d00af78:	a6020010 	sh	v0,16(s0)
9d00af7c:	8fbf0014 	lw	ra,20(sp)
9d00af80:	8fb00010 	lw	s0,16(sp)
9d00af84:	03e00008 	jr	ra
9d00af88:	27bd0018 	addiu	sp,sp,24
9d00af8c:	ae00000c 	sw	zero,12(s0)
9d00af90:	2402ffff 	li	v0,-1
9d00af94:	ae020004 	sw	v0,4(s0)
9d00af98:	8fbf0014 	lw	ra,20(sp)
9d00af9c:	8fb00010 	lw	s0,16(sp)
9d00afa0:	03e00008 	jr	ra
9d00afa4:	27bd0018 	addiu	sp,sp,24

Disassembly of section .text.gsgetc:

9d00afa8 <gsgetc>:
9d00afa8:	27bdffe0 	addiu	sp,sp,-32
9d00afac:	afbf001c 	sw	ra,28(sp)
9d00afb0:	afb10018 	sw	s1,24(sp)
9d00afb4:	afb00014 	sw	s0,20(sp)
9d00afb8:	8c820004 	lw	v0,4(a0)
9d00afbc:	2411ffff 	li	s1,-1
9d00afc0:	1051000a 	beq	v0,s1,9d00afec <gsgetc+0x44>
9d00afc4:	00808021 	move	s0,a0
9d00afc8:	ac910004 	sw	s1,4(a0)
9d00afcc:	8e030010 	lw	v1,16(s0)
9d00afd0:	24630001 	addiu	v1,v1,1
9d00afd4:	ae030010 	sw	v1,16(s0)
9d00afd8:	8fbf001c 	lw	ra,28(sp)
9d00afdc:	8fb10018 	lw	s1,24(sp)
9d00afe0:	8fb00014 	lw	s0,20(sp)
9d00afe4:	03e00008 	jr	ra
9d00afe8:	27bd0020 	addiu	sp,sp,32
9d00afec:	0f402b28 	jal	9d00aca0 <fgetc>
9d00aff0:	8c840000 	lw	a0,0(a0)
9d00aff4:	1451fff5 	bne	v0,s1,9d00afcc <gsgetc+0x24>
9d00aff8:	8fbf001c 	lw	ra,28(sp)
9d00affc:	8fb10018 	lw	s1,24(sp)
9d00b000:	8fb00014 	lw	s0,20(sp)
9d00b004:	03e00008 	jr	ra
9d00b008:	27bd0020 	addiu	sp,sp,32

Disassembly of section .text._buffree:

9d00b00c <_buffree>:
9d00b00c:	27bdffe8 	addiu	sp,sp,-24
9d00b010:	afbf0014 	sw	ra,20(sp)
9d00b014:	afb00010 	sw	s0,16(sp)
9d00b018:	00808021 	move	s0,a0
9d00b01c:	8c840008 	lw	a0,8(a0)
9d00b020:	10800010 	beqz	a0,9d00b064 <_buffree+0x58>
9d00b024:	8fbf0014 	lw	ra,20(sp)
9d00b028:	96020010 	lhu	v0,16(s0)
9d00b02c:	30420010 	andi	v0,v0,0x10
9d00b030:	5040000d 	beqzl	v0,9d00b068 <_buffree+0x5c>
9d00b034:	8fb00010 	lw	s0,16(sp)
9d00b038:	0f40215e 	jal	9d008578 <free>
9d00b03c:	00000000 	nop
9d00b040:	96020010 	lhu	v0,16(s0)
9d00b044:	ae000008 	sw	zero,8(s0)
9d00b048:	7c0220c4 	ins	v0,zero,0x3,0x2
9d00b04c:	ae00000c 	sw	zero,12(s0)
9d00b050:	ae000000 	sw	zero,0(s0)
9d00b054:	2403ffff 	li	v1,-1
9d00b058:	ae030004 	sw	v1,4(s0)
9d00b05c:	a6020010 	sh	v0,16(s0)
9d00b060:	8fbf0014 	lw	ra,20(sp)
9d00b064:	8fb00010 	lw	s0,16(sp)
9d00b068:	03e00008 	jr	ra
9d00b06c:	27bd0018 	addiu	sp,sp,24

Disassembly of section .text.sitofp:

9d00b070 <__floatsisf>:
9d00b070:	3c018000 10800012 00813024 04810002     ...<....$0......
9d00b080:	00000000 00042023                       ....# ..

9d00b088 <i40>:
9d00b088:	2405009e 	li	a1,158
9d00b08c:	70873820 	clz	a3,a0
9d00b090:	00a72823 	subu	a1,a1,a3
9d00b094:	00e42004 	sllv	a0,a0,a3
9d00b098:	24840080 	addiu	a0,a0,128
9d00b09c:	2c880080 	sltiu	t0,a0,128
9d00b0a0:	00a82821 	addu	a1,a1,t0
9d00b0a4:	00044203 	sra	t0,a0,0x8
9d00b0a8:	31080001 	andi	t0,t0,0x1
9d00b0ac:	00882023 	subu	a0,a0,t0
9d00b0b0:	00042040 	sll	a0,a0,0x1
9d00b0b4:	00042242 	srl	a0,a0,0x9
9d00b0b8:	000545c0 	sll	t0,a1,0x17
9d00b0bc:	00882025 	or	a0,a0,t0

9d00b0c0 <i39>:
9d00b0c0:	00861025 	or	v0,a0,a2

9d00b0c4 <E999>:
9d00b0c4:	03e00008 	jr	ra
9d00b0c8:	00000000 	nop
9d00b0cc:	00000000 	nop

Disassembly of section .text.main_entry:

9d00b0d0 <_main_entry>:
9d00b0d0:	3c040000 	lui	a0,0x0
9d00b0d4:	27bdffe8 	addiu	sp,sp,-24
9d00b0d8:	24840000 	addiu	a0,a0,0
9d00b0dc:	10800003 	beqz	a0,9d00b0ec <_main_entry+0x1c>
9d00b0e0:	afbf0014 	sw	ra,20(sp)
9d00b0e4:	0080f809 	jalr	a0
9d00b0e8:	00000000 	nop
9d00b0ec:	30840000 	andi	a0,a0,0x0
9d00b0f0:	30a50000 	andi	a1,a1,0x0
9d00b0f4:	3c089d00 	lui	t0,0x9d00
9d00b0f8:	250843bc 	addiu	t0,t0,17340
9d00b0fc:	0100f809 	jalr	t0
9d00b100:	00000000 	nop

9d00b104 <__crt0_exit>:
9d00b104:	3c020000 24420000 10400003 00000000     ...<..B$..@.....
9d00b114:	0040f809 00000000 1000fff9 00000000     ..@.............

Disassembly of section .text.sbrk:

9d00b124 <sbrk>:
9d00b124:	27bdffe0 	addiu	sp,sp,-32

9d00b128 <.LCFI9>:
9d00b128:	afbf001c 	sw	ra,28(sp)
9d00b12c:	afb10018 	sw	s1,24(sp)
9d00b130:	afb00014 	sw	s0,20(sp)
9d00b134:	0f4028cf 	jal	9d00a33c <.LFE0>
9d00b138:	00808821 	move	s1,a0
9d00b13c:	1a200007 	blez	s1,9d00b15c <.LCFI9+0x34>
9d00b140:	00408021 	move	s0,v0
9d00b144:	2402ffff 	li	v0,-1
9d00b148:	12020004 	beq	s0,v0,9d00b15c <.LCFI9+0x34>
9d00b14c:	02002021 	move	a0,s0
9d00b150:	00002821 	move	a1,zero
9d00b154:	0f402d6d 	jal	9d00b5b4 <.LFE1>
9d00b158:	02203021 	move	a2,s1
9d00b15c:	02001021 	move	v0,s0
9d00b160:	8fbf001c 	lw	ra,28(sp)
9d00b164:	8fb10018 	lw	s1,24(sp)
9d00b168:	8fb00014 	lw	s0,20(sp)
9d00b16c:	03e00008 	jr	ra
9d00b170:	27bd0020 	addiu	sp,sp,32

Disassembly of section .text._mon_write:

9d00b174 <_mon_write>:
9d00b174:	27bdffe0 	addiu	sp,sp,-32

9d00b178 <.LCFI0>:
9d00b178:	afbf001c 	sw	ra,28(sp)
9d00b17c:	afb10018 	sw	s1,24(sp)
9d00b180:	afb00014 	sw	s0,20(sp)
9d00b184:	10800009 	beqz	a0,9d00b1ac <.LCFI0+0x34>
9d00b188:	00808021 	move	s0,a0
9d00b18c:	10a00007 	beqz	a1,9d00b1ac <.LCFI0+0x34>
9d00b190:	00a08821 	move	s1,a1
9d00b194:	82040000 	lb	a0,0(s0)
9d00b198:	2631ffff 	addiu	s1,s1,-1
9d00b19c:	0f402899 	jal	9d00a264 <_mon_putc>
9d00b1a0:	26100001 	addiu	s0,s0,1
9d00b1a4:	5620fffc 	bnezl	s1,9d00b198 <.LCFI0+0x20>
9d00b1a8:	82040000 	lb	a0,0(s0)
9d00b1ac:	8fbf001c 	lw	ra,28(sp)
9d00b1b0:	8fb10018 	lw	s1,24(sp)
9d00b1b4:	8fb00014 	lw	s0,20(sp)
9d00b1b8:	03e00008 	jr	ra
9d00b1bc:	27bd0020 	addiu	sp,sp,32

Disassembly of section .text._bootstrap_exception_handler:

9d00b1c0 <_bootstrap_exception_handler>:
9d00b1c0:	3c020000 	lui	v0,0x0
9d00b1c4:	24420000 	addiu	v0,v0,0
9d00b1c8:	10400005 	beqz	v0,9d00b1e0 <_bootstrap_exception_handler+0x20>
9d00b1cc:	3c020000 	lui	v0,0x0
9d00b1d0:	24420000 	addiu	v0,v0,0
9d00b1d4:	10400003 	beqz	v0,9d00b1e4 <_bootstrap_exception_handler+0x24>
9d00b1d8:	3c029d01 	lui	v0,0x9d01
9d00b1dc:	7000003f 	sdbbp
9d00b1e0:	3c029d01 	lui	v0,0x9d01
9d00b1e4:	2442b2e0 	addiu	v0,v0,-19744
9d00b1e8:	10400005 	beqz	v0,9d00b200 <.LCFI2>
9d00b1ec:	00000000 	nop
9d00b1f0:	27bdffe8 	addiu	sp,sp,-24

9d00b1f4 <.LCFI0>:
9d00b1f4:	afbf0014 	sw	ra,20(sp)
9d00b1f8:	0040f809 	jalr	v0
9d00b1fc:	00000000 	nop

9d00b200 <.LCFI2>:
9d00b200:	0b402c80 	j	9d00b200 <.LCFI2>
9d00b204:	00000000 	nop

Disassembly of section .text._general_exception_handler:

9d00b208 <_general_exception_handler>:
9d00b208:	3c020000 	lui	v0,0x0
9d00b20c:	24420000 	addiu	v0,v0,0
9d00b210:	10400005 	beqz	v0,9d00b228 <_general_exception_handler+0x20>
9d00b214:	3c020000 	lui	v0,0x0
9d00b218:	24420000 	addiu	v0,v0,0
9d00b21c:	10400003 	beqz	v0,9d00b22c <_general_exception_handler+0x24>
9d00b220:	3c029d01 	lui	v0,0x9d01
9d00b224:	7000003f 	sdbbp
9d00b228:	3c029d01 	lui	v0,0x9d01
9d00b22c:	2442b2e0 	addiu	v0,v0,-19744
9d00b230:	10400005 	beqz	v0,9d00b248 <.LCFI2>
9d00b234:	00000000 	nop
9d00b238:	27bdffe8 	addiu	sp,sp,-24

9d00b23c <.LCFI0>:
9d00b23c:	afbf0014 	sw	ra,20(sp)
9d00b240:	0040f809 	jalr	v0
9d00b244:	00000000 	nop

9d00b248 <.LCFI2>:
9d00b248:	0b402c92 	j	9d00b248 <.LCFI2>
9d00b24c:	00000000 	nop

Disassembly of section .vector_default:

9d00b250 <_DefaultInterrupt>:
9d00b250:	3c020000 	lui	v0,0x0
9d00b254:	24420000 	addiu	v0,v0,0
9d00b258:	10400007 	beqz	v0,9d00b278 <_DefaultInterrupt+0x28>
9d00b25c:	3c020000 	lui	v0,0x0
9d00b260:	24420000 	addiu	v0,v0,0
9d00b264:	50400005 	beqzl	v0,9d00b27c <_DefaultInterrupt+0x2c>
9d00b268:	3c029d01 	lui	v0,0x9d01
9d00b26c:	7000003f 	sdbbp
9d00b270:	03e00008 	jr	ra
9d00b274:	00000000 	nop
9d00b278:	3c029d01 	lui	v0,0x9d01
9d00b27c:	2442b2e0 	addiu	v0,v0,-19744
9d00b280:	10400003 	beqz	v0,9d00b290 <_DefaultInterrupt+0x40>
9d00b284:	00000000 	nop
9d00b288:	0040f809 	jalr	v0
9d00b28c:	00000000 	nop
9d00b290:	03e00008 	jr	ra
9d00b294:	00000000 	nop

Disassembly of section .rodata:

9d00b298 <f5pow>:
9d00b298:	00000000 40140000 00000000 40390000     .......@......9@
9d00b2a8:	00000000 40838800 00000000 4117d784     .......@.......A
9d00b2b8:	37e08000 4241c379 b5056e17 4493b8b5     ...7y.AB.n.....D
9d00b2c8:	e93ff9f5 49384f03 f9301d32 52827748     ..?..O8I2.0.Hw.R
9d00b2d8:	7f73bf3c 65154fdd                       <.s..O.e

Disassembly of section .text:

9d00b2e0 <__pic32_software_reset>:
9d00b2e0:	41606000 	di
9d00b2e4:	000000c0 	ehb
9d00b2e8:	3c03aa99 	lui	v1,0xaa99
9d00b2ec:	3c02bf81 	lui	v0,0xbf81
9d00b2f0:	24636655 	addiu	v1,v1,26197
9d00b2f4:	ac40f230 	sw	zero,-3536(v0)
9d00b2f8:	ac43f230 	sw	v1,-3536(v0)
9d00b2fc:	3c035566 	lui	v1,0x5566
9d00b300:	346399aa 	ori	v1,v1,0x99aa
9d00b304:	ac43f230 	sw	v1,-3536(v0)
9d00b308:	3c02bf81 	lui	v0,0xbf81
9d00b30c:	24030001 	li	v1,1
9d00b310:	ac43f618 	sw	v1,-2536(v0)
9d00b314:	3c02bf81 	lui	v0,0xbf81
9d00b318:	8c42f610 	lw	v0,-2544(v0)
9d00b31c:	0b402cba 	j	9d00b2e8 <__pic32_software_reset+0x8>
9d00b320:	00000000 	nop

9d00b324 <__floatunsidf>:
9d00b324:	27bdffe8 	addiu	sp,sp,-24
9d00b328:	afbf0014 	sw	ra,20(sp)
9d00b32c:	afb00010 	sw	s0,16(sp)
9d00b330:	0f402b46 	jal	9d00ad18 <__floatsidf>
9d00b334:	00808021 	move	s0,a0
9d00b338:	06010008 	bgez	s0,9d00b35c <__floatunsidf+0x38>
9d00b33c:	8fbf0014 	lw	ra,20(sp)
9d00b340:	3c049d01 	lui	a0,0x9d01
9d00b344:	8c86b780 	lw	a2,-18560(a0)
9d00b348:	8c87b784 	lw	a3,-18556(a0)
9d00b34c:	00402021 	move	a0,v0
9d00b350:	0f401ad9 	jal	9d006b64 <__adddf3>
9d00b354:	00602821 	move	a1,v1
9d00b358:	8fbf0014 	lw	ra,20(sp)
9d00b35c:	8fb00010 	lw	s0,16(sp)
9d00b360:	03e00008 	jr	ra
9d00b364:	27bd0018 	addiu	sp,sp,24

Disassembly of section .text._io_exit:

9d00b368 <.text._io_exit>:
9d00b368:	27bdffe8 	addiu	sp,sp,-24
9d00b36c:	afbf0014 	sw	ra,20(sp)
9d00b370:	afb00010 	sw	s0,16(sp)
9d00b374:	3c10a000 	lui	s0,0xa000
9d00b378:	0f402df4 	jal	9d00b7d0 <_weak_pthread_mutex_lock>
9d00b37c:	26041bd8 	addiu	a0,s0,7128
9d00b380:	3c02a000 	lui	v0,0xa000
9d00b384:	8c420008 	lw	v0,8(v0)
9d00b388:	26041bd8 	addiu	a0,s0,7128
9d00b38c:	24030001 	li	v1,1
9d00b390:	0f402df8 	jal	9d00b7e0 <_weak_pthread_mutex_unlock>
9d00b394:	ac430038 	sw	v1,56(v0)
9d00b398:	8fbf0014 	lw	ra,20(sp)
9d00b39c:	8fb00010 	lw	s0,16(sp)
9d00b3a0:	03e00008 	jr	ra
9d00b3a4:	27bd0018 	addiu	sp,sp,24

Disassembly of section .text:

9d00b3a8 <__lshrdi3>:
9d00b3a8:	10c00009 	beqz	a2,9d00b3d0 <.LBE2+0x8>
9d00b3ac:	00801021 	move	v0,a0
9d00b3b0:	24020020 	li	v0,32
9d00b3b4:	00461023 	subu	v0,v0,a2
9d00b3b8:	18400007 	blez	v0,9d00b3d8 <.LBE2+0x10>
9d00b3bc:	00c42006 	srlv	a0,a0,a2

9d00b3c0 <.LBB2>:
9d00b3c0:	00451004 	sllv	v0,a1,v0
9d00b3c4:	00c51806 	srlv	v1,a1,a2

9d00b3c8 <.LBE2>:
9d00b3c8:	03e00008 	jr	ra
9d00b3cc:	00441025 	or	v0,v0,a0
9d00b3d0:	03e00008 	jr	ra
9d00b3d4:	00a01821 	move	v1,a1
9d00b3d8:	00021023 	negu	v0,v0
9d00b3dc:	00001821 	move	v1,zero
9d00b3e0:	03e00008 	jr	ra
9d00b3e4:	00451006 	srlv	v0,a1,v0

9d00b3e8 <__ashldi3>:
9d00b3e8:	10c00009 	beqz	a2,9d00b410 <.LBE2+0x8>
9d00b3ec:	00801021 	move	v0,a0
9d00b3f0:	24030020 	li	v1,32
9d00b3f4:	00661823 	subu	v1,v1,a2
9d00b3f8:	18600007 	blez	v1,9d00b418 <.LBE2+0x10>
9d00b3fc:	00c52804 	sllv	a1,a1,a2

9d00b400 <.LBB2>:
9d00b400:	00641806 	srlv	v1,a0,v1
9d00b404:	00c41004 	sllv	v0,a0,a2

9d00b408 <.LBE2>:
9d00b408:	03e00008 	jr	ra
9d00b40c:	00651825 	or	v1,v1,a1
9d00b410:	03e00008 	jr	ra
9d00b414:	00a01821 	move	v1,a1
9d00b418:	00031823 	negu	v1,v1
9d00b41c:	00001021 	move	v0,zero
9d00b420:	03e00008 	jr	ra
9d00b424:	00641804 	sllv	v1,a0,v1

Disassembly of section .rodata:

9d00b428 <.LC0>:
9d00b428:	25203a47 	addiu	zero,t1,14919
9d00b42c:	66322e35 	0x66322e35
9d00b430:	2e352520 	sltiu	s5,s1,9504
9d00b434:	00006632 	tlt	zero,zero,0x198
9d00b438:	25206625 	addiu	zero,t1,26149
9d00b43c:	00000066 	0x66
9d00b440:	25206425 	addiu	zero,t1,25637
9d00b444:	64252064 	0x64252064
9d00b448:	00000a0d 	break	0x0,0x28
	...
9d00b454:	40590000 	cfc0	t9,c0_index
9d00b458:	00000000 	nop
9d00b45c:	40490000 	cfc0	t1,c0_index

Disassembly of section .text._weak_pthread_once:

9d00b460 <_weak_pthread_once>:
9d00b460:	8c820000 	lw	v0,0(a0)
9d00b464:	10400003 	beqz	v0,9d00b474 <_weak_pthread_once+0x14>
9d00b468:	00001021 	move	v0,zero
9d00b46c:	03e00008 	jr	ra
9d00b470:	00000000 	nop
9d00b474:	27bdffe8 	addiu	sp,sp,-24
9d00b478:	afbf0014 	sw	ra,20(sp)
9d00b47c:	24020002 	li	v0,2
9d00b480:	00a0f809 	jalr	a1
9d00b484:	ac820000 	sw	v0,0(a0)
9d00b488:	00001021 	move	v0,zero
9d00b48c:	8fbf0014 	lw	ra,20(sp)
9d00b490:	03e00008 	jr	ra
9d00b494:	27bd0018 	addiu	sp,sp,24

Disassembly of section .text._filbuf_simple:

9d00b498 <_filbuf_simple>:
9d00b498:	8c820004 	lw	v0,4(a0)
9d00b49c:	2403ffff 	li	v1,-1
9d00b4a0:	10430003 	beq	v0,v1,9d00b4b0 <_filbuf_simple+0x18>
9d00b4a4:	ac800000 	sw	zero,0(a0)
9d00b4a8:	03e00008 	jr	ra
9d00b4ac:	ac830004 	sw	v1,4(a0)
9d00b4b0:	27bdffe8 	addiu	sp,sp,-24
9d00b4b4:	afbf0014 	sw	ra,20(sp)
9d00b4b8:	0f402826 	jal	9d00a098 <_mon_getc>
9d00b4bc:	24040001 	li	a0,1
9d00b4c0:	8fbf0014 	lw	ra,20(sp)
9d00b4c4:	03e00008 	jr	ra
9d00b4c8:	27bd0018 	addiu	sp,sp,24

Disassembly of section .text._fsync_simple:

9d00b4cc <_fsync_simple>:
9d00b4cc:	94830010 	lhu	v1,16(a0)
9d00b4d0:	00a32824 	and	a1,a1,v1
9d00b4d4:	10a00007 	beqz	a1,9d00b4f4 <_fsync_simple+0x28>
9d00b4d8:	24020001 	li	v0,1
9d00b4dc:	34630040 	ori	v1,v1,0x40
9d00b4e0:	a4830010 	sh	v1,16(a0)
9d00b4e4:	24030009 	li	v1,9
9d00b4e8:	3c02a000 	lui	v0,0xa000
9d00b4ec:	ac430030 	sw	v1,48(v0)
9d00b4f0:	00001021 	move	v0,zero
9d00b4f4:	03e00008 	jr	ra
9d00b4f8:	00000000 	nop

Disassembly of section .rodata:

9d00b4fc <.rodata>:
9d00b4fc:	33323130 	andi	s2,t9,0x3130
9d00b500:	37363534 	ori	s6,t9,0x3534
9d00b504:	00000000 	nop
9d00b508:	33323130 	andi	s2,t9,0x3130
9d00b50c:	37363534 	ori	s6,t9,0x3534
9d00b510:	42413938 	c0	0x413938
9d00b514:	46454443 	c1	0x454443
9d00b518:	64636261 	0x64636261
9d00b51c:	00006665 	0x6665
9d00b520:	33323130 	andi	s2,t9,0x3130
9d00b524:	37363534 	ori	s6,t9,0x3534
9d00b528:	00003938 	0x3938

Disassembly of section .text._cleanup:

9d00b52c <_cleanup>:
9d00b52c:	3c02a000 	lui	v0,0xa000
9d00b530:	8c421bfc 	lw	v0,7164(v0)
9d00b534:	10400007 	beqz	v0,9d00b554 <_cleanup+0x28>
9d00b538:	00000000 	nop
9d00b53c:	27bdffe8 	addiu	sp,sp,-24
9d00b540:	afbf0014 	sw	ra,20(sp)
9d00b544:	0040f809 	jalr	v0
9d00b548:	00000000 	nop
9d00b54c:	8fbf0014 	lw	ra,20(sp)
9d00b550:	27bd0018 	addiu	sp,sp,24
9d00b554:	03e00008 	jr	ra
9d00b558:	00000000 	nop

Disassembly of section .text.memcpy:

9d00b55c <memcpy>:
9d00b55c:	00801021 	move	v0,a0
9d00b560:	00863821 	addu	a3,a0,a2
9d00b564:	10c00006 	beqz	a2,9d00b580 <memcpy+0x24>
9d00b568:	00801821 	move	v1,a0
9d00b56c:	24a50001 	addiu	a1,a1,1
9d00b570:	90a6ffff 	lbu	a2,-1(a1)
9d00b574:	24630001 	addiu	v1,v1,1
9d00b578:	1467fffc 	bne	v1,a3,9d00b56c <memcpy+0x10>
9d00b57c:	a066ffff 	sb	a2,-1(v1)
9d00b580:	03e00008 	jr	ra
9d00b584:	00000000 	nop

Disassembly of section .text._stub_sbd_memlayout:

9d00b588 <_stub_sbd_memlayout>:
9d00b588:	3c03a000 	lui	v1,0xa000
9d00b58c:	24621bb4 	addiu	v0,v1,7092
9d00b590:	24040001 	li	a0,1
9d00b594:	ac440008 	sw	a0,8(v0)
9d00b598:	3c04a000 	lui	a0,0xa000
9d00b59c:	24841c08 	addiu	a0,a0,7176
9d00b5a0:	ac641bb4 	sw	a0,7092(v1)
9d00b5a4:	3c030000 	lui	v1,0x0
9d00b5a8:	24630000 	addiu	v1,v1,0
9d00b5ac:	03e00008 	jr	ra
9d00b5b0:	ac430004 	sw	v1,4(v0)

Disassembly of section .text.memset:

9d00b5b4 <memset>:
9d00b5b4:	10c00007 	beqz	a2,9d00b5d4 <memset+0x20>
9d00b5b8:	00801021 	move	v0,a0
9d00b5bc:	30a500ff 	andi	a1,a1,0xff
9d00b5c0:	00863021 	addu	a2,a0,a2
9d00b5c4:	00801821 	move	v1,a0
9d00b5c8:	24630001 	addiu	v1,v1,1
9d00b5cc:	1466fffe 	bne	v1,a2,9d00b5c8 <memset+0x14>
9d00b5d0:	a065ffff 	sb	a1,-1(v1)
9d00b5d4:	03e00008 	jr	ra
9d00b5d8:	00000000 	nop

Disassembly of section .text.putchar:

9d00b5dc <putchar>:
9d00b5dc:	27bdffe8 	addiu	sp,sp,-24
9d00b5e0:	afbf0014 	sw	ra,20(sp)
9d00b5e4:	3c02a000 	lui	v0,0xa000
9d00b5e8:	8c420008 	lw	v0,8(v0)
9d00b5ec:	0f402901 	jal	9d00a404 <.LCFI8>
9d00b5f0:	8c450004 	lw	a1,4(v0)
9d00b5f4:	8fbf0014 	lw	ra,20(sp)
9d00b5f8:	03e00008 	jr	ra
9d00b5fc:	27bd0018 	addiu	sp,sp,24

Disassembly of section .text.getchar:

9d00b600 <getchar>:
9d00b600:	27bdffe8 	addiu	sp,sp,-24
9d00b604:	afbf0014 	sw	ra,20(sp)
9d00b608:	3c02a000 	lui	v0,0xa000
9d00b60c:	8c420008 	lw	v0,8(v0)
9d00b610:	0f402b28 	jal	9d00aca0 <fgetc>
9d00b614:	8c440000 	lw	a0,0(v0)
9d00b618:	8fbf0014 	lw	ra,20(sp)
9d00b61c:	03e00008 	jr	ra
9d00b620:	27bd0018 	addiu	sp,sp,24

Disassembly of section .text._vfprintf_cdfFnopuxX:

9d00b624 <_vfprintf_cdfFnopuxX>:
9d00b624:	27bdffe8 	addiu	sp,sp,-24
9d00b628:	afbf0014 	sw	ra,20(sp)
9d00b62c:	0f400a85 	jal	9d002a14 <_do_print_cdfFnopuxX>
9d00b630:	00000000 	nop
9d00b634:	8fbf0014 	lw	ra,20(sp)
9d00b638:	03e00008 	jr	ra
9d00b63c:	27bd0018 	addiu	sp,sp,24

Disassembly of section .text.putc:

9d00b640 <putc>:
9d00b640:	27bdffe8 	addiu	sp,sp,-24
9d00b644:	afbf0014 	sw	ra,20(sp)
9d00b648:	0f402901 	jal	9d00a404 <.LCFI8>
9d00b64c:	00000000 	nop
9d00b650:	8fbf0014 	lw	ra,20(sp)
9d00b654:	03e00008 	jr	ra
9d00b658:	27bd0018 	addiu	sp,sp,24

Disassembly of section .text.vfscanf:

9d00b65c <vfscanf>:
9d00b65c:	27bdffe8 	addiu	sp,sp,-24
9d00b660:	afbf0014 	sw	ra,20(sp)
9d00b664:	0f400780 	jal	9d001e00 <do_scan>
9d00b668:	00000000 	nop
9d00b66c:	8fbf0014 	lw	ra,20(sp)
9d00b670:	03e00008 	jr	ra
9d00b674:	27bd0018 	addiu	sp,sp,24

Disassembly of section .text.strtod:

9d00b678 <strtod>:
9d00b678:	27bdffe8 	addiu	sp,sp,-24
9d00b67c:	afbf0014 	sw	ra,20(sp)
9d00b680:	0f401be3 	jal	9d006f8c <__strtod>
9d00b684:	00000000 	nop
9d00b688:	8fbf0014 	lw	ra,20(sp)
9d00b68c:	03e00008 	jr	ra
9d00b690:	27bd0018 	addiu	sp,sp,24

Disassembly of section .text.strtof:

9d00b694 <strtof>:
9d00b694:	27bdffe8 	addiu	sp,sp,-24
9d00b698:	afbf0014 	sw	ra,20(sp)
9d00b69c:	0f401db9 	jal	9d0076e4 <__strtof>
9d00b6a0:	00000000 	nop
9d00b6a4:	8fbf0014 	lw	ra,20(sp)
9d00b6a8:	03e00008 	jr	ra
9d00b6ac:	27bd0018 	addiu	sp,sp,24

Disassembly of section .text.getc:

9d00b6b0 <getc>:
9d00b6b0:	27bdffe8 	addiu	sp,sp,-24
9d00b6b4:	afbf0014 	sw	ra,20(sp)
9d00b6b8:	0f402b28 	jal	9d00aca0 <fgetc>
9d00b6bc:	00000000 	nop
9d00b6c0:	8fbf0014 	lw	ra,20(sp)
9d00b6c4:	03e00008 	jr	ra
9d00b6c8:	27bd0018 	addiu	sp,sp,24

Disassembly of section .text.negdf2:

9d00b6cc <__negdf2>:
9d00b6cc:	3c018000 00a12826 00041025 00051825     ...<&(..%...%...

9d00b6dc <M999>:
9d00b6dc:	03e00008 	jr	ra
9d00b6e0:	00000000 	nop
9d00b6e4:	00000000 	nop

Disassembly of section .text:

9d00b6e8 <_nmi_handler>:
9d00b6e8:	401a6000 	mfc0	k0,c0_status
9d00b6ec:	3c1bffbf 	lui	k1,0xffbf
9d00b6f0:	377bffff 	ori	k1,k1,0xffff
9d00b6f4:	035bd024 	and	k0,k0,k1
9d00b6f8:	409a6000 	mtc0	k0,c0_status
9d00b6fc:	42000018 	eret

Disassembly of section .rodata:

9d00b700 <f5pow>:
9d00b700:	40a00000 41c80000 441c4000 48bebc20     ...@...A.@.D ..H
9d00b710:	520e1bca 649dc5ae                       ...R...d

Disassembly of section .text._io_exit:

9d00b718 <_io_exit>:
9d00b718:	3c02a000 	lui	v0,0xa000
9d00b71c:	8c420008 	lw	v0,8(v0)
9d00b720:	24030001 	li	v1,1
9d00b724:	03e00008 	jr	ra
9d00b728:	ac430038 	sw	v1,56(v0)

Disassembly of section .rodata:

9d00b72c <_io_funcs>:
9d00b72c:	9d00b498 9d009ea8 9d00aaa8 9d00ab28     ............(...
9d00b73c:	9d00b4cc                                ....

Disassembly of section .text._io_exit:

9d00b740 <.text._io_exit>:
9d00b740:	3c02a000 	lui	v0,0xa000
9d00b744:	8c420008 	lw	v0,8(v0)
9d00b748:	24030001 	li	v1,1
9d00b74c:	03e00008 	jr	ra
9d00b750:	ac430038 	sw	v1,56(v0)

Disassembly of section .rodata:

9d00b754 <_io_strfuncs>:
9d00b754:	9d00b798 9d00b7a0 9d00b7a8 9d00b7b0     ................
9d00b764:	9d00b7b8                                ....

Disassembly of section .text.negsf2:

9d00b768 <__negsf2>:
9d00b768:	3c018000 00811026                       ...<&...

9d00b770 <L999>:
9d00b770:	03e00008 	jr	ra
9d00b774:	00000000 	nop
9d00b778:	00000000 	nop

Disassembly of section .rodata:

9d00b780 <.rodata>:
9d00b780:	00000000 	nop
9d00b784:	41f00000 	0x41f00000

Disassembly of section .text._on_reset:

9d00b788 <_on_reset>:
9d00b788:	03e00008 	jr	ra
9d00b78c:	00000000 	nop

Disassembly of section .text._on_bootstrap:

9d00b790 <_on_bootstrap>:
9d00b790:	03e00008 	jr	ra
9d00b794:	00000000 	nop

Disassembly of section .text._filbuf_string:

9d00b798 <_filbuf_string>:
9d00b798:	03e00008 	jr	ra
9d00b79c:	2402ffff 	li	v0,-1

Disassembly of section .text._flsbuf_string:

9d00b7a0 <_flsbuf_string>:
9d00b7a0:	03e00008 	jr	ra
9d00b7a4:	00801021 	move	v0,a0

Disassembly of section .text._fflush_string:

9d00b7a8 <_fflush_string>:
9d00b7a8:	03e00008 	jr	ra
9d00b7ac:	00001021 	move	v0,zero

Disassembly of section .text._fwrite_string:

9d00b7b0 <_fwrite_string>:
9d00b7b0:	03e00008 	jr	ra
9d00b7b4:	00001021 	move	v0,zero

Disassembly of section .text._fsync_string:

9d00b7b8 <_fsync_string>:
9d00b7b8:	03e00008 	jr	ra
9d00b7bc:	24020001 	li	v0,1

Disassembly of section .text._weak_pthread_mutex_init:

9d00b7c0 <_weak_pthread_mutex_init>:
9d00b7c0:	03e00008 	jr	ra
9d00b7c4:	00001021 	move	v0,zero

Disassembly of section .text._weak_pthread_mutex_destroy:

9d00b7c8 <_weak_pthread_mutex_destroy>:
9d00b7c8:	03e00008 	jr	ra
9d00b7cc:	00001021 	move	v0,zero

Disassembly of section .text._weak_pthread_mutex_lock:

9d00b7d0 <_weak_pthread_mutex_lock>:
9d00b7d0:	03e00008 	jr	ra
9d00b7d4:	00001021 	move	v0,zero

Disassembly of section .text._weak_pthread_mutex_trylock:

9d00b7d8 <_weak_pthread_mutex_trylock>:
9d00b7d8:	03e00008 	jr	ra
9d00b7dc:	00001021 	move	v0,zero

Disassembly of section .text._weak_pthread_mutex_unlock:

9d00b7e0 <_weak_pthread_mutex_unlock>:
9d00b7e0:	03e00008 	jr	ra
9d00b7e4:	00001021 	move	v0,zero

Disassembly of section .text._weak_pthread_mutex_setname_np:

9d00b7e8 <_weak_pthread_mutex_setname_np>:
9d00b7e8:	03e00008 	jr	ra
9d00b7ec:	00001021 	move	v0,zero

Disassembly of section .text._weak_pthread_mutexattr_init:

9d00b7f0 <_weak_pthread_mutexattr_init>:
9d00b7f0:	03e00008 	jr	ra
9d00b7f4:	00001021 	move	v0,zero

Disassembly of section .text._weak_pthread_mutexattr_destroy:

9d00b7f8 <_weak_pthread_mutexattr_destroy>:
9d00b7f8:	03e00008 	jr	ra
9d00b7fc:	00001021 	move	v0,zero

Disassembly of section .text._weak_pthread_mutexattr_setname_np:

9d00b800 <_weak_pthread_mutexattr_setname_np>:
9d00b800:	03e00008 	jr	ra
9d00b804:	00001021 	move	v0,zero

Disassembly of section .text._weak_pthread_mutexattr_settype_np:

9d00b808 <_weak_pthread_mutexattr_settype_np>:
9d00b808:	03e00008 	jr	ra
9d00b80c:	00001021 	move	v0,zero

Disassembly of section .text._weak_pthread_sysconf_np:

9d00b810 <_weak_pthread_sysconf_np>:
9d00b810:	03e00008 	jr	ra
9d00b814:	2402ffff 	li	v0,-1

Disassembly of section .text._weak_pthread_sigdisable_np:

9d00b818 <_weak_pthread_sigdisable_np>:
9d00b818:	03e00008 	jr	ra
9d00b81c:	00000000 	nop

Disassembly of section .text._weak_pthread_sigrestore_np:

9d00b820 <_weak_pthread_sigrestore_np>:
9d00b820:	03e00008 	jr	ra
9d00b824:	00000000 	nop

Disassembly of section .text._weak__pthread_cleanup_push:

9d00b828 <_weak__pthread_cleanup_push>:
9d00b828:	03e00008 	jr	ra
9d00b82c:	00000000 	nop

Disassembly of section .text._weak__pthread_cleanup_pop:

9d00b830 <_weak__pthread_cleanup_pop>:
9d00b830:	03e00008 	jr	ra
9d00b834:	00000000 	nop

Disassembly of section .text._weak__pthread_cleanup_push_defer:

9d00b838 <_weak__pthread_cleanup_push_defer>:
9d00b838:	03e00008 	jr	ra
9d00b83c:	00000000 	nop

Disassembly of section .text._weak__pthread_cleanup_pop_restore:

9d00b840 <_weak__pthread_cleanup_pop_restore>:
9d00b840:	03e00008 	jr	ra
9d00b844:	00000000 	nop

Disassembly of section .text._weak_pthread_key_create:

9d00b848 <_weak_pthread_key_create>:
9d00b848:	03e00008 	jr	ra
9d00b84c:	2402ffff 	li	v0,-1

Disassembly of section .text._weak_pthread_setspecific:

9d00b850 <_weak_pthread_setspecific>:
9d00b850:	03e00008 	jr	ra
9d00b854:	2402ffff 	li	v0,-1

Disassembly of section .text._weak_pthread_getspecific:

9d00b858 <_weak_pthread_getspecific>:
9d00b858:	03e00008 	jr	ra
9d00b85c:	00001021 	move	v0,zero

Disassembly of section .text._weak__libc_private_storage:

9d00b860 <_weak__libc_private_storage>:
9d00b860:	03e00008 	jr	ra
9d00b864:	00a01021 	move	v0,a1

Disassembly of section .text.getpagesize:

9d00b868 <getpagesize>:
9d00b868:	03e00008 	jr	ra
9d00b86c:	24020080 	li	v0,128

Disassembly of section .text._exit:

9d00b870 <_exit>:
9d00b870:	0b402e1c 	j	9d00b870 <_exit>
9d00b874:	00000000 	nop

Disassembly of section .text.isatty:

9d00b878 <isatty>:
9d00b878:	03e00008 	jr	ra
9d00b87c:	00001021 	move	v0,zero
