
out.elf:     file format elf32-tradlittlemips


Disassembly of section .config_BFC02FF0:

bfc02ff0 <__config_BFC02FF0>:
bfc02ff0:	ff ff fe fa                                         ....

Disassembly of section .config_BFC02FF4:

bfc02ff4 <__config_BFC02FF4>:
bfc02ff4:	d9 79 f8 ff                                         .y..

Disassembly of section .config_BFC02FF8:

bfc02ff8 <__config_BFC02FF8>:
bfc02ff8:	db ce 6c ff                                         ..l.

Disassembly of section .config_BFC02FFC:

bfc02ffc <__config_BFC02FFC>:
bfc02ffc:	ff ff ff 7e                                         ...~

Disassembly of section .reset:

bd001970 <_reset>:
bd001970:	0f40065e 	jal	bd001978 <_startup>
bd001974:	00000000 	nop

bd001978 <_startup>:
bd001978:	401a6000 	mfc0	k0,c0_status
bd00197c:	7f5a04c0 	ext	k0,k0,0x13,0x1
bd001980:	13400005 	beqz	k0,bd001998 <_no_nmi>
bd001984:	00000000 	nop
bd001988:	3c1a9d01 	lui	k0,0x9d01
bd00198c:	275ac844 	addiu	k0,k0,-14268
bd001990:	03400008 	jr	k0
bd001994:	00000000 	nop

bd001998 <_no_nmi>:
bd001998:	3c1da002 	lui	sp,0xa002
bd00199c:	27bdfff8 	addiu	sp,sp,-8
bd0019a0:	3c1ca000 	lui	gp,0xa000
bd0019a4:	279c7ff0 	addiu	gp,gp,32752
bd0019a8:	40096002 	mfc0	t1,c0_srsctl
bd0019ac:	01205820 	add	t3,t1,zero
bd0019b0:	7d2a1e80 	ext	t2,t1,0x1a,0x4
bd0019b4:	7d494984 	ins	t1,t2,0x6,0x4
bd0019b8:	40896002 	mtc0	t1,c0_srsctl
bd0019bc:	000000c0 	ehb
bd0019c0:	41dce000 	wrpgpr	gp,gp
bd0019c4:	408b6002 	mtc0	t3,c0_srsctl
bd0019c8:	000000c0 	ehb
bd0019cc:	3c089d01 	lui	t0,0x9d01
bd0019d0:	2508c8f8 	addiu	t0,t0,-14088
bd0019d4:	0100f809 	jalr	t0
bd0019d8:	00000000 	nop

bd0019dc <_start_bss_init>:
bd0019dc:	3c08a000 	lui	t0,0xa000
bd0019e0:	25080018 	addiu	t0,t0,24
bd0019e4:	3c09a000 	lui	t1,0xa000
bd0019e8:	2529006c 	addiu	t1,t1,108
bd0019ec:	10000003 	b	bd0019fc <_bss_check>
bd0019f0:	00000000 	nop

bd0019f4 <_bss_init>:
bd0019f4:	ad000000 	sw	zero,0(t0)
bd0019f8:	25080004 	addiu	t0,t0,4

bd0019fc <_bss_check>:
bd0019fc:	0109082b 	sltu	at,t0,t1
bd001a00:	1420fffc 	bnez	at,bd0019f4 <_bss_init>
bd001a04:	00000000 	nop
bd001a08:	3c089d01 	lui	t0,0x9d01
bd001a0c:	2508bb54 	addiu	t0,t0,-17580
bd001a10:	0100f809 	jalr	t0
bd001a14:	00000000 	nop
bd001a18:	3c090000 	lui	t1,0x0
bd001a1c:	25290000 	addiu	t1,t1,0
bd001a20:	11200010 	beqz	t1,bd001a64 <_ramfunc_done>
bd001a24:	00000000 	nop
bd001a28:	3c090002 	lui	t1,0x2
bd001a2c:	25290000 	addiu	t1,t1,0
bd001a30:	3c0abf88 	lui	t2,0xbf88
bd001a34:	254a2010 	addiu	t2,t2,8208
bd001a38:	ad490000 	sw	t1,0(t2)
bd001a3c:	3c090002 	lui	t1,0x2
bd001a40:	25290000 	addiu	t1,t1,0
bd001a44:	3c0abf88 	lui	t2,0xbf88
bd001a48:	254a2020 	addiu	t2,t2,8224
bd001a4c:	ad490000 	sw	t1,0(t2)
bd001a50:	3c090002 	lui	t1,0x2
bd001a54:	25290000 	addiu	t1,t1,0
bd001a58:	3c0abf88 	lui	t2,0xbf88
bd001a5c:	254a2030 	addiu	t2,t2,8240
bd001a60:	ad490000 	sw	t1,0(t2)

bd001a64 <_ramfunc_done>:
bd001a64:	40804800 	mtc0	zero,c0_count
bd001a68:	240affff 	li	t2,-1
bd001a6c:	408a5800 	mtc0	t2,c0_compare
bd001a70:	3c080040 	lui	t0,0x40
bd001a74:	400a6000 	mfc0	t2,c0_status
bd001a78:	010a5025 	or	t2,t0,t2
bd001a7c:	408a6000 	mtc0	t2,c0_status
bd001a80:	3c099d00 	lui	t1,0x9d00
bd001a84:	25290000 	addiu	t1,t1,0
bd001a88:	000000c0 	ehb
bd001a8c:	40897801 	mtc0	t1,c0_ebase
bd001a90:	3c090000 	lui	t1,0x0
bd001a94:	25290001 	addiu	t1,t1,1
bd001a98:	240a0000 	li	t2,0
bd001a9c:	7d2a4944 	ins	t2,t1,0x5,0x5
bd001aa0:	408a6001 	mtc0	t2,c0_intctl
bd001aa4:	3c090080 	lui	t1,0x80
bd001aa8:	40896800 	mtc0	t1,c0_cause
bd001aac:	40088000 	mfc0	t0,c0_config
bd001ab0:	7d090580 	ext	t1,t0,0x16,0x1
bd001ab4:	00094c40 	sll	t1,t1,0x11
bd001ab8:	40086000 	mfc0	t0,c0_status
bd001abc:	3c010058 	lui	at,0x58
bd001ac0:	01014024 	and	t0,t0,at
bd001ac4:	01284025 	or	t0,t1,t0
bd001ac8:	40886000 	mtc0	t0,c0_status
bd001acc:	000000c0 	ehb
bd001ad0:	3c089d01 	lui	t0,0x9d01
bd001ad4:	2508c900 	addiu	t0,t0,-14080
bd001ad8:	0100f809 	jalr	t0
bd001adc:	00000000 	nop
bd001ae0:	40086000 	mfc0	t0,c0_status
bd001ae4:	3c01ffbf 	lui	at,0xffbf
bd001ae8:	3421ffff 	ori	at,at,0xffff
bd001aec:	01014024 	and	t0,t0,at
bd001af0:	40886000 	mtc0	t0,c0_status
bd001af4:	30840000 	andi	a0,a0,0x0
bd001af8:	30a50000 	andi	a1,a1,0x0
bd001afc:	3c089d01 	lui	t0,0x9d01
bd001b00:	2508c260 	addiu	t0,t0,-15776
bd001b04:	01000008 	jr	t0
bd001b08:	00000000 	nop

Disassembly of section .bev_excpt:

bd001cf0 <_bev_exception>:
bd001cf0:	3c1a9d01 	lui	k0,0x9d01
bd001cf4:	275ac398 	addiu	k0,k0,-15464
bd001cf8:	03400008 	jr	k0
bd001cfc:	00000000 	nop

Disassembly of section .app_excpt:

9d000180 <_gen_exception>:
9d000180:	3c1a9d01 	lui	k0,0x9d01
9d000184:	275ab2b8 	addiu	k0,k0,-19784
9d000188:	03400008 	jr	k0
9d00018c:	00000000 	nop

Disassembly of section .vector_0:

9d000200 <__vector_dispatch_0>:
9d000200:	0b40310a 	j	9d00c428 <.LFE0>
9d000204:	00000000 	nop

Disassembly of section .vector_1:

9d000220 <__vector_dispatch_1>:
9d000220:	0b40310a 	j	9d00c428 <.LFE0>
9d000224:	00000000 	nop

Disassembly of section .vector_2:

9d000240 <__vector_dispatch_2>:
9d000240:	0b40310a 	j	9d00c428 <.LFE0>
9d000244:	00000000 	nop

Disassembly of section .vector_3:

9d000260 <__vector_dispatch_3>:
9d000260:	0b40310a 	j	9d00c428 <.LFE0>
9d000264:	00000000 	nop

Disassembly of section .vector_4:

9d000280 <__vector_dispatch_4>:
9d000280:	0b40310a 	j	9d00c428 <.LFE0>
9d000284:	00000000 	nop

Disassembly of section .vector_5:

9d0002a0 <__vector_dispatch_5>:
9d0002a0:	0b40310a 	j	9d00c428 <.LFE0>
9d0002a4:	00000000 	nop

Disassembly of section .vector_6:

9d0002c0 <__vector_dispatch_6>:
9d0002c0:	0b40310a 	j	9d00c428 <.LFE0>
9d0002c4:	00000000 	nop

Disassembly of section .vector_7:

9d0002e0 <__vector_dispatch_7>:
9d0002e0:	0b40310a 	j	9d00c428 <.LFE0>
9d0002e4:	00000000 	nop

Disassembly of section .vector_8:

9d000300 <__vector_dispatch_8>:
9d000300:	0b400956 	j	9d002558 <Controller>
9d000304:	00000000 	nop

Disassembly of section .vector_9:

9d000320 <__vector_dispatch_9>:
9d000320:	0b40310a 	j	9d00c428 <.LFE0>
9d000324:	00000000 	nop

Disassembly of section .vector_10:

9d000340 <__vector_dispatch_10>:
9d000340:	0b40310a 	j	9d00c428 <.LFE0>
9d000344:	00000000 	nop

Disassembly of section .vector_11:

9d000360 <__vector_dispatch_11>:
9d000360:	0b40310a 	j	9d00c428 <.LFE0>
9d000364:	00000000 	nop

Disassembly of section .vector_12:

9d000380 <__vector_dispatch_12>:
9d000380:	0b40310a 	j	9d00c428 <.LFE0>
9d000384:	00000000 	nop

Disassembly of section .vector_13:

9d0003a0 <__vector_dispatch_13>:
9d0003a0:	0b40310a 	j	9d00c428 <.LFE0>
9d0003a4:	00000000 	nop

Disassembly of section .vector_14:

9d0003c0 <__vector_dispatch_14>:
9d0003c0:	0b40310a 	j	9d00c428 <.LFE0>
9d0003c4:	00000000 	nop

Disassembly of section .vector_15:

9d0003e0 <__vector_dispatch_15>:
9d0003e0:	0b40310a 	j	9d00c428 <.LFE0>
9d0003e4:	00000000 	nop

Disassembly of section .vector_16:

9d000400 <__vector_dispatch_16>:
9d000400:	0b400a50 	j	9d002940 <positioncontrol>
9d000404:	00000000 	nop

Disassembly of section .vector_17:

9d000420 <__vector_dispatch_17>:
9d000420:	0b40310a 	j	9d00c428 <.LFE0>
9d000424:	00000000 	nop

Disassembly of section .vector_18:

9d000440 <__vector_dispatch_18>:
9d000440:	0b40310a 	j	9d00c428 <.LFE0>
9d000444:	00000000 	nop

Disassembly of section .vector_19:

9d000460 <__vector_dispatch_19>:
9d000460:	0b40310a 	j	9d00c428 <.LFE0>
9d000464:	00000000 	nop

Disassembly of section .vector_20:

9d000480 <__vector_dispatch_20>:
9d000480:	0b40310a 	j	9d00c428 <.LFE0>
9d000484:	00000000 	nop

Disassembly of section .vector_21:

9d0004a0 <__vector_dispatch_21>:
9d0004a0:	0b40310a 	j	9d00c428 <.LFE0>
9d0004a4:	00000000 	nop

Disassembly of section .vector_22:

9d0004c0 <__vector_dispatch_22>:
9d0004c0:	0b40310a 	j	9d00c428 <.LFE0>
9d0004c4:	00000000 	nop

Disassembly of section .vector_23:

9d0004e0 <__vector_dispatch_23>:
9d0004e0:	0b40310a 	j	9d00c428 <.LFE0>
9d0004e4:	00000000 	nop

Disassembly of section .vector_24:

9d000500 <__vector_dispatch_24>:
9d000500:	0b40310a 	j	9d00c428 <.LFE0>
9d000504:	00000000 	nop

Disassembly of section .vector_25:

9d000520 <__vector_dispatch_25>:
9d000520:	0b40310a 	j	9d00c428 <.LFE0>
9d000524:	00000000 	nop

Disassembly of section .vector_26:

9d000540 <__vector_dispatch_26>:
9d000540:	0b40310a 	j	9d00c428 <.LFE0>
9d000544:	00000000 	nop

Disassembly of section .vector_27:

9d000560 <__vector_dispatch_27>:
9d000560:	0b40310a 	j	9d00c428 <.LFE0>
9d000564:	00000000 	nop

Disassembly of section .vector_28:

9d000580 <__vector_dispatch_28>:
9d000580:	0b40310a 	j	9d00c428 <.LFE0>
9d000584:	00000000 	nop

Disassembly of section .vector_29:

9d0005a0 <__vector_dispatch_29>:
9d0005a0:	0b40310a 	j	9d00c428 <.LFE0>
9d0005a4:	00000000 	nop

Disassembly of section .vector_30:

9d0005c0 <__vector_dispatch_30>:
9d0005c0:	0b40310a 	j	9d00c428 <.LFE0>
9d0005c4:	00000000 	nop

Disassembly of section .vector_31:

9d0005e0 <__vector_dispatch_31>:
9d0005e0:	0b40310a 	j	9d00c428 <.LFE0>
9d0005e4:	00000000 	nop

Disassembly of section .vector_32:

9d000600 <__vector_dispatch_32>:
9d000600:	0b40310a 	j	9d00c428 <.LFE0>
9d000604:	00000000 	nop

Disassembly of section .vector_33:

9d000620 <__vector_dispatch_33>:
9d000620:	0b40310a 	j	9d00c428 <.LFE0>
9d000624:	00000000 	nop

Disassembly of section .vector_34:

9d000640 <__vector_dispatch_34>:
9d000640:	0b40310a 	j	9d00c428 <.LFE0>
9d000644:	00000000 	nop

Disassembly of section .vector_35:

9d000660 <__vector_dispatch_35>:
9d000660:	0b40310a 	j	9d00c428 <.LFE0>
9d000664:	00000000 	nop

Disassembly of section .vector_36:

9d000680 <__vector_dispatch_36>:
9d000680:	0b40310a 	j	9d00c428 <.LFE0>
9d000684:	00000000 	nop

Disassembly of section .vector_37:

9d0006a0 <__vector_dispatch_37>:
9d0006a0:	0b40310a 	j	9d00c428 <.LFE0>
9d0006a4:	00000000 	nop

Disassembly of section .vector_38:

9d0006c0 <__vector_dispatch_38>:
9d0006c0:	0b40310a 	j	9d00c428 <.LFE0>
9d0006c4:	00000000 	nop

Disassembly of section .vector_39:

9d0006e0 <__vector_dispatch_39>:
9d0006e0:	0b40310a 	j	9d00c428 <.LFE0>
9d0006e4:	00000000 	nop

Disassembly of section .vector_40:

9d000700 <__vector_dispatch_40>:
9d000700:	0b40310a 	j	9d00c428 <.LFE0>
9d000704:	00000000 	nop

Disassembly of section .vector_41:

9d000720 <__vector_dispatch_41>:
9d000720:	0b40310a 	j	9d00c428 <.LFE0>
9d000724:	00000000 	nop

Disassembly of section .vector_42:

9d000740 <__vector_dispatch_42>:
9d000740:	0b40310a 	j	9d00c428 <.LFE0>
9d000744:	00000000 	nop

Disassembly of section .vector_43:

9d000760 <__vector_dispatch_43>:
9d000760:	0b40310a 	j	9d00c428 <.LFE0>
9d000764:	00000000 	nop

Disassembly of section .vector_44:

9d000780 <__vector_dispatch_44>:
9d000780:	0b40310a 	j	9d00c428 <.LFE0>
9d000784:	00000000 	nop

Disassembly of section .vector_45:

9d0007a0 <__vector_dispatch_45>:
9d0007a0:	0b40310a 	j	9d00c428 <.LFE0>
9d0007a4:	00000000 	nop

Disassembly of section .vector_46:

9d0007c0 <__vector_dispatch_46>:
9d0007c0:	0b40310a 	j	9d00c428 <.LFE0>
9d0007c4:	00000000 	nop

Disassembly of section .vector_47:

9d0007e0 <__vector_dispatch_47>:
9d0007e0:	0b40310a 	j	9d00c428 <.LFE0>
9d0007e4:	00000000 	nop

Disassembly of section .vector_48:

9d000800 <__vector_dispatch_48>:
9d000800:	0b40310a 	j	9d00c428 <.LFE0>
9d000804:	00000000 	nop

Disassembly of section .vector_49:

9d000820 <__vector_dispatch_49>:
9d000820:	0b40310a 	j	9d00c428 <.LFE0>
9d000824:	00000000 	nop

Disassembly of section .vector_50:

9d000840 <__vector_dispatch_50>:
9d000840:	0b40310a 	j	9d00c428 <.LFE0>
9d000844:	00000000 	nop

Disassembly of section .vector_51:

9d000860 <__vector_dispatch_51>:
9d000860:	0b40310a 	j	9d00c428 <.LFE0>
9d000864:	00000000 	nop

Disassembly of section ._debug_exception:

bfc00480 <__DbgExecReturn>:
bfc00480:	409bf800 	mtc0	k1,c0_desave
bfc00484:	000000c0 	ehb
bfc00488:	3c1b9d01 	lui	k1,0x9d01
bfc0048c:	277bc4b8 	addiu	k1,k1,-15176
bfc00490:	13600002 	beqz	k1,bfc0049c <__DbgExecReturn+0x1c>
bfc00494:	00000000 	nop
bfc00498:	409bc000 	mtc0	k1,c0_depc
bfc0049c:	401bf800 	mfc0	k1,c0_desave
bfc004a0:	000000c0 	ehb
bfc004a4:	4200001f 	deret
bfc004a8:	00000000 	nop

Disassembly of section .text:

9d001e00 <main>:
static volatile int Waveform[NUMSAMPS];   // waveform
static volatile int I_array[NUMSAMPS];    // measured values to plot
static volatile int REFarray[NUMSAMPS];   // reference values to plot


int main() {
9d001e00:	27bdfee8 	addiu	sp,sp,-280
9d001e04:	afbf0114 	sw	ra,276(sp)
9d001e08:	afbe0110 	sw	s8,272(sp)
9d001e0c:	afb7010c 	sw	s7,268(sp)
9d001e10:	afb60108 	sw	s6,264(sp)
9d001e14:	afb50104 	sw	s5,260(sp)
9d001e18:	afb40100 	sw	s4,256(sp)
9d001e1c:	afb300fc 	sw	s3,252(sp)
9d001e20:	afb200f8 	sw	s2,248(sp)
9d001e24:	afb100f4 	sw	s1,244(sp)
  char buffer[BUF_SIZE];
  extern volatile modes MODE;

  NU32_Startup();   // cache on, min flash wait, interrupts on, LED/button init, UART init
9d001e28:	0f4026be 	jal	9d009af8 <NU32_Startup>
9d001e2c:	afb000f0 	sw	s0,240(sp)

9d001e30 <.LVL0>:
  LCD_Setup();      // initialize LCD
9d001e30:	0f401c70 	jal	9d0071c0 <LCD_Setup>
9d001e34:	00000000 	nop

9d001e38 <.LVL1>:
  LCD_Clear();                    
9d001e38:	0f401be9 	jal	9d006fa4 <LCD_Clear>
9d001e3c:	00000000 	nop

9d001e40 <.LVL2>:
  LCD_Move(0,0);
9d001e40:	00002021 	move	a0,zero
9d001e44:	0f401c29 	jal	9d0070a4 <LCD_Move>
9d001e48:	00002821 	move	a1,zero

9d001e4c <.LVL3>:
  NU32_LED1 = 1;    // turn off the LEDs
9d001e4c:	3c02bf88 	lui	v0,0xbf88
9d001e50:	90436160 	lbu	v1,24928(v0)
9d001e54:	24040001 	li	a0,1
9d001e58:	7c830004 	ins	v1,a0,0x0,0x1
9d001e5c:	a0436160 	sb	v1,24928(v0)
  NU32_LED2 = 1;    // turn off the LEDs
9d001e60:	90436160 	lbu	v1,24928(v0)
9d001e64:	7c830844 	ins	v1,a0,0x1,0x1
9d001e68:	a0436160 	sb	v1,24928(v0)

  __builtin_disable_interrupts();
9d001e6c:	41626000 	di	v0
9d001e70:	000000c0 	ehb

  MODE = IDLE;
9d001e74:	af808070 	sw	zero,-32656(gp)
  encoder_init();
9d001e78:	0f40294b 	jal	9d00a52c <encoder_init>
9d001e7c:	00000000 	nop

9d001e80 <.LVL4>:
  ADC_init();
9d001e80:	0f40286d 	jal	9d00a1b4 <.LFE2>
9d001e84:	00000000 	nop

9d001e88 <.LVL5>:
  PWM_init();
9d001e88:	0f4021f9 	jal	9d0087e4 <PWM_init>
9d001e8c:	00000000 	nop

9d001e90 <.LVL6>:
  position_init();
9d001e90:	0f4028d0 	jal	9d00a340 <position_init>
9d001e94:	00000000 	nop

9d001e98 <.LVL7>:
  __builtin_enable_interrupts();
9d001e98:	41626020 	ei	v0
  //   }

  while(1) {
    NU32_ReadUART3(buffer,BUF_SIZE);          // we expect the next character to be a
                                              // menu command
    NU32_LED2 = 1;                            // clear the error LED
9d001e9c:	3c14bf88 	lui	s4,0xbf88

    switch (buffer[0]) {
9d001ea0:	3c159d00 	lui	s5,0x9d00
9d001ea4:	26b51f00 	addiu	s5,s5,7936
        sprintf(buffer, "%d\r\n", traj_No_Samples);
        NU32_WriteUART3(buffer);
        display(buffer);
        int i = 0;
        for (i = 0; i < traj_No_Samples; i ++) {
          sprintf(buffer, "%f %d\r\n", traj_ref[i], traj_actual[i]);
9d001ea8:	3c12a000 	lui	s2,0xa000
9d001eac:	2652051c 	addiu	s2,s2,1308
9d001eb0:	3c13a000 	lui	s3,0xa000
9d001eb4:	2673533c 	addiu	s3,s3,21308
  //           // display(buffer);
  //           NU32_WriteUART3(buffer);
  //   }

  while(1) {
    NU32_ReadUART3(buffer,BUF_SIZE);          // we expect the next character to be a
9d001eb8:	27a40020 	addiu	a0,sp,32
9d001ebc:	0f402703 	jal	9d009c0c <NU32_ReadUART3>
9d001ec0:	240500c8 	li	a1,200

9d001ec4 <.LVL8>:
                                              // menu command
    NU32_LED2 = 1;                            // clear the error LED
9d001ec4:	92826160 	lbu	v0,24928(s4)
9d001ec8:	24030001 	li	v1,1
9d001ecc:	7c620844 	ins	v0,v1,0x1,0x1
9d001ed0:	a2826160 	sb	v0,24928(s4)

    switch (buffer[0]) {
9d001ed4:	93a20020 	lbu	v0,32(sp)
9d001ed8:	2442ff9f 	addiu	v0,v0,-97
9d001edc:	304300ff 	andi	v1,v0,0xff
9d001ee0:	2c630018 	sltiu	v1,v1,24
9d001ee4:	10600197 	beqz	v1,9d002544 <.LBE17+0x8>
9d001ee8:	304200ff 	andi	v0,v0,0xff
9d001eec:	00021080 	sll	v0,v0,0x2
9d001ef0:	02a21021 	addu	v0,s5,v0
9d001ef4:	8c420000 	lw	v0,0(v0)
9d001ef8:	00400008 	jr	v0
9d001efc:	00000000 	nop
9d001f00:	9d001f60 	0x9d001f60
9d001f04:	9d001f94 	0x9d001f94
9d001f08:	9d001fc8 	0x9d001fc8
9d001f0c:	9d001ffc 	0x9d001ffc
9d001f10:	9d002030 	0x9d002030
9d001f14:	9d002064 	0x9d002064
9d001f18:	9d00209c 	0x9d00209c
9d001f1c:	9d0020d0 	0x9d0020d0
9d001f20:	9d002128 	0x9d002128
9d001f24:	9d002164 	0x9d002164
9d001f28:	9d0021c8 	0x9d0021c8
9d001f2c:	9d002264 	0x9d002264
9d001f30:	9d0022a8 	0x9d0022a8
9d001f34:	9d002340 	0x9d002340
9d001f38:	9d0023e4 	0x9d0023e4
9d001f3c:	9d002490 	0x9d002490
9d001f40:	9d0024a8 	0x9d0024a8
9d001f44:	9d0024b4 	0x9d0024b4
9d001f48:	9d002544 	0x9d002544
9d001f4c:	9d002544 	0x9d002544
9d001f50:	9d002544 	0x9d002544
9d001f54:	9d002544 	0x9d002544
9d001f58:	9d002544 	0x9d002544
9d001f5c:	9d0024c8 	0x9d0024c8

9d001f60 <.LBB3>:
      case 'a': {                             // Read current sensor (ADC counts)
        unsigned int adc = 0;
        adc = read_adc();
9d001f60:	0f40289f 	jal	9d00a27c <read_adc>
9d001f64:	00000000 	nop

9d001f68 <.LVL10>:
        sprintf(buffer,"%d\r\n", adc);
9d001f68:	27a40020 	addiu	a0,sp,32
9d001f6c:	3c059d01 	lui	a1,0x9d01
9d001f70:	24a5c350 	addiu	a1,a1,-15536
9d001f74:	0f402fcd 	jal	9d00bf34 <_sprintf_cdfFnopuxX>
9d001f78:	00403021 	move	a2,v0

9d001f7c <.LVL11>:
        display(buffer);
9d001f7c:	0f40264d 	jal	9d009934 <display>
9d001f80:	27a40020 	addiu	a0,sp,32

9d001f84 <.LVL12>:
        NU32_WriteUART3(buffer);
9d001f84:	0f402720 	jal	9d009c80 <NU32_WriteUART3>
9d001f88:	27a40020 	addiu	a0,sp,32

9d001f8c <.LVL13>:
        break;
9d001f8c:	0b4007af 	j	9d001ebc <.LVL7+0x24>
9d001f90:	27a40020 	addiu	a0,sp,32

9d001f94 <.LBB4>:
      }

      case 'b': {                             // Read current sensor (mA)
        int current = 0;
        current = read_current();
9d001f94:	0f4028b6 	jal	9d00a2d8 <read_current>
9d001f98:	00000000 	nop

9d001f9c <.LVL15>:
        sprintf(buffer,"%d\r\n", current);
9d001f9c:	27a40020 	addiu	a0,sp,32
9d001fa0:	3c059d01 	lui	a1,0x9d01
9d001fa4:	24a5c350 	addiu	a1,a1,-15536
9d001fa8:	0f402fcd 	jal	9d00bf34 <_sprintf_cdfFnopuxX>
9d001fac:	00403021 	move	a2,v0

9d001fb0 <.LVL16>:
        display(buffer);
9d001fb0:	0f40264d 	jal	9d009934 <display>
9d001fb4:	27a40020 	addiu	a0,sp,32

9d001fb8 <.LVL17>:
        NU32_WriteUART3(buffer);
9d001fb8:	0f402720 	jal	9d009c80 <NU32_WriteUART3>
9d001fbc:	27a40020 	addiu	a0,sp,32

9d001fc0 <.LVL18>:
        break;
9d001fc0:	0b4007af 	j	9d001ebc <.LVL7+0x24>
9d001fc4:	27a40020 	addiu	a0,sp,32

9d001fc8 <.LBB5>:
      }

      case 'c': {                             // Read encoder (counts)
        int count = 0;
        count = encoder_counts();
9d001fc8:	0f402944 	jal	9d00a510 <encoder_counts>
9d001fcc:	00000000 	nop

9d001fd0 <.LVL20>:
        sprintf(buffer, "%d\r\n", count);
9d001fd0:	27a40020 	addiu	a0,sp,32
9d001fd4:	3c059d01 	lui	a1,0x9d01
9d001fd8:	24a5c350 	addiu	a1,a1,-15536
9d001fdc:	0f402fcd 	jal	9d00bf34 <_sprintf_cdfFnopuxX>
9d001fe0:	00403021 	move	a2,v0

9d001fe4 <.LVL21>:
        display(buffer);
9d001fe4:	0f40264d 	jal	9d009934 <display>
9d001fe8:	27a40020 	addiu	a0,sp,32

9d001fec <.LVL22>:
        NU32_WriteUART3(buffer);
9d001fec:	0f402720 	jal	9d009c80 <NU32_WriteUART3>
9d001ff0:	27a40020 	addiu	a0,sp,32

9d001ff4 <.LVL23>:
        break;
9d001ff4:	0b4007af 	j	9d001ebc <.LVL7+0x24>
9d001ff8:	27a40020 	addiu	a0,sp,32

9d001ffc <.LBB6>:
      }

      case 'd': {                             //  Read encoder (deg)
        int angle = 0;
        angle = encoder_angle();
9d001ffc:	0f40296c 	jal	9d00a5b0 <encoder_angle>
9d002000:	00000000 	nop

9d002004 <.LVL25>:
        sprintf(buffer, "%d\r\n", angle);
9d002004:	27a40020 	addiu	a0,sp,32
9d002008:	3c059d01 	lui	a1,0x9d01
9d00200c:	24a5c350 	addiu	a1,a1,-15536
9d002010:	0f402fcd 	jal	9d00bf34 <_sprintf_cdfFnopuxX>
9d002014:	00403021 	move	a2,v0

9d002018 <.LVL26>:
        display(buffer);
9d002018:	0f40264d 	jal	9d009934 <display>
9d00201c:	27a40020 	addiu	a0,sp,32

9d002020 <.LVL27>:
        NU32_WriteUART3(buffer);
9d002020:	0f402720 	jal	9d009c80 <NU32_WriteUART3>
9d002024:	27a40020 	addiu	a0,sp,32

9d002028 <.LVL28>:
        break;
9d002028:	0b4007af 	j	9d001ebc <.LVL7+0x24>
9d00202c:	27a40020 	addiu	a0,sp,32

9d002030 <.LBB7>:
      }

      case 'e': {                             // Reset encoder
        sprintf(buffer, "%d\r\n", encoder_reset());
9d002030:	0f40293d 	jal	9d00a4f4 <encoder_reset>
9d002034:	00000000 	nop

9d002038 <.LVL29>:
9d002038:	27a40020 	addiu	a0,sp,32
9d00203c:	3c059d01 	lui	a1,0x9d01
9d002040:	24a5c350 	addiu	a1,a1,-15536
9d002044:	0f402fcd 	jal	9d00bf34 <_sprintf_cdfFnopuxX>
9d002048:	00403021 	move	a2,v0

9d00204c <.LVL30>:
        display(buffer);
9d00204c:	0f40264d 	jal	9d009934 <display>
9d002050:	27a40020 	addiu	a0,sp,32

9d002054 <.LVL31>:
        NU32_WriteUART3(buffer);
9d002054:	0f402720 	jal	9d009c80 <NU32_WriteUART3>
9d002058:	27a40020 	addiu	a0,sp,32

9d00205c <.LVL32>:
        break;
9d00205c:	0b4007af 	j	9d001ebc <.LVL7+0x24>
9d002060:	27a40020 	addiu	a0,sp,32

9d002064 <.LBB8>:
      }

      case 'f': {                             // Set PWM (-100 to 100)
        MODE = PWM;
9d002064:	24020001 	li	v0,1
9d002068:	af828070 	sw	v0,-32656(gp)
        NU32_ReadUART3(buffer,BUF_SIZE);
9d00206c:	27a40020 	addiu	a0,sp,32
9d002070:	0f402703 	jal	9d009c0c <NU32_ReadUART3>
9d002074:	240500c8 	li	a1,200

9d002078 <.LVL33>:
        sscanf(buffer, "%d", &duty_cycle);
9d002078:	27a40020 	addiu	a0,sp,32
9d00207c:	3c029d01 	lui	v0,0x9d01
9d002080:	2445c358 	addiu	a1,v0,-15528
9d002084:	0f402fb0 	jal	9d00bec0 <_sscanf_cdfFnopuxX>
9d002088:	27868054 	addiu	a2,gp,-32684

9d00208c <.LVL34>:
        display(buffer);
9d00208c:	0f40264d 	jal	9d009934 <display>
9d002090:	27a40020 	addiu	a0,sp,32

9d002094 <.LVL35>:
        break;
9d002094:	0b4007af 	j	9d001ebc <.LVL7+0x24>
9d002098:	27a40020 	addiu	a0,sp,32

9d00209c <.LBB9>:
      }

      case 'g': {                               //Set Current Gains
        NU32_ReadUART3(buffer,BUF_SIZE);
9d00209c:	27a40020 	addiu	a0,sp,32
9d0020a0:	0f402703 	jal	9d009c0c <NU32_ReadUART3>
9d0020a4:	240500c8 	li	a1,200

9d0020a8 <.LVL36>:
        sscanf(buffer, "%f %f", &kp, &ki);
9d0020a8:	27a40020 	addiu	a0,sp,32
9d0020ac:	3c059d01 	lui	a1,0x9d01
9d0020b0:	24a5c35c 	addiu	a1,a1,-15524
9d0020b4:	2786801c 	addiu	a2,gp,-32740
9d0020b8:	0f402fb0 	jal	9d00bec0 <_sscanf_cdfFnopuxX>
9d0020bc:	27878018 	addiu	a3,gp,-32744

9d0020c0 <.LVL37>:
        display(buffer);
9d0020c0:	0f40264d 	jal	9d009934 <display>
9d0020c4:	27a40020 	addiu	a0,sp,32

9d0020c8 <.LVL38>:
        break; 
9d0020c8:	0b4007af 	j	9d001ebc <.LVL7+0x24>
9d0020cc:	27a40020 	addiu	a0,sp,32

9d0020d0 <.LBB10>:
      }

      case 'h': {                             //Get Current Gains
        sprintf(buffer,"%f %f\r\n", kp, ki);
9d0020d0:	8f84801c 	lw	a0,-32740(gp)
9d0020d4:	8f968018 	lw	s6,-32744(gp)
9d0020d8:	0f402d78 	jal	9d00b5e0 <__extendsfdf2>
9d0020dc:	00000000 	nop
9d0020e0:	00408021 	move	s0,v0
9d0020e4:	00608821 	move	s1,v1
9d0020e8:	0f402d78 	jal	9d00b5e0 <__extendsfdf2>
9d0020ec:	02c02021 	move	a0,s6
9d0020f0:	afa20010 	sw	v0,16(sp)
9d0020f4:	afa30014 	sw	v1,20(sp)
9d0020f8:	27a40020 	addiu	a0,sp,32
9d0020fc:	3c059d01 	lui	a1,0x9d01
9d002100:	24a5c364 	addiu	a1,a1,-15516
9d002104:	02003021 	move	a2,s0
9d002108:	0f402fcd 	jal	9d00bf34 <_sprintf_cdfFnopuxX>
9d00210c:	02203821 	move	a3,s1

9d002110 <.LVL41>:
        display(buffer);
9d002110:	0f40264d 	jal	9d009934 <display>
9d002114:	27a40020 	addiu	a0,sp,32

9d002118 <.LVL42>:
        NU32_WriteUART3(buffer);
9d002118:	0f402720 	jal	9d009c80 <NU32_WriteUART3>
9d00211c:	27a40020 	addiu	a0,sp,32

9d002120 <.LVL43>:
        break; 
9d002120:	0b4007af 	j	9d001ebc <.LVL7+0x24>
9d002124:	27a40020 	addiu	a0,sp,32

9d002128 <.LBB11>:
      }

      case 'i': {                             // Set position gains
        NU32_ReadUART3(buffer,BUF_SIZE);
9d002128:	27a40020 	addiu	a0,sp,32
9d00212c:	0f402703 	jal	9d009c0c <NU32_ReadUART3>
9d002130:	240500c8 	li	a1,200

9d002134 <.LVL44>:
        sscanf(buffer, "%f %f %f", &pos_kp, &pos_ki, &pos_kd);
9d002134:	27828010 	addiu	v0,gp,-32752
9d002138:	afa20010 	sw	v0,16(sp)
9d00213c:	27a40020 	addiu	a0,sp,32
9d002140:	3c059d01 	lui	a1,0x9d01
9d002144:	24a5c36c 	addiu	a1,a1,-15508
9d002148:	27868014 	addiu	a2,gp,-32748
9d00214c:	0f402fb0 	jal	9d00bec0 <_sscanf_cdfFnopuxX>
9d002150:	2787803c 	addiu	a3,gp,-32708

9d002154 <.LVL45>:
        display(buffer);
9d002154:	0f40264d 	jal	9d009934 <display>
9d002158:	27a40020 	addiu	a0,sp,32

9d00215c <.LVL46>:
        break;
9d00215c:	0b4007af 	j	9d001ebc <.LVL7+0x24>
9d002160:	27a40020 	addiu	a0,sp,32

9d002164 <.LBE11>:
      }

      case 'j': {                             // Get position gains
        sprintf(buffer,"%f %f %f\r\n", pos_kp, pos_ki, pos_kd);
9d002164:	8f848014 	lw	a0,-32748(gp)
9d002168:	8f97803c 	lw	s7,-32708(gp)
9d00216c:	8f968010 	lw	s6,-32752(gp)
9d002170:	0f402d78 	jal	9d00b5e0 <__extendsfdf2>
9d002174:	00000000 	nop
9d002178:	00408021 	move	s0,v0
9d00217c:	00608821 	move	s1,v1
9d002180:	0f402d78 	jal	9d00b5e0 <__extendsfdf2>
9d002184:	02e02021 	move	a0,s7
9d002188:	afa20010 	sw	v0,16(sp)
9d00218c:	afa30014 	sw	v1,20(sp)
9d002190:	0f402d78 	jal	9d00b5e0 <__extendsfdf2>
9d002194:	02c02021 	move	a0,s6
9d002198:	afa20018 	sw	v0,24(sp)
9d00219c:	afa3001c 	sw	v1,28(sp)
9d0021a0:	27a40020 	addiu	a0,sp,32
9d0021a4:	3c059d01 	lui	a1,0x9d01
9d0021a8:	24a5c378 	addiu	a1,a1,-15496
9d0021ac:	02003021 	move	a2,s0
9d0021b0:	0f402fcd 	jal	9d00bf34 <_sprintf_cdfFnopuxX>
9d0021b4:	02203821 	move	a3,s1

9d0021b8 <.LVL50>:
        NU32_WriteUART3(buffer);
9d0021b8:	0f402720 	jal	9d009c80 <NU32_WriteUART3>
9d0021bc:	27a40020 	addiu	a0,sp,32

9d0021c0 <.LVL51>:
        break; 
9d0021c0:	0b4007af 	j	9d001ebc <.LVL7+0x24>
9d0021c4:	27a40020 	addiu	a0,sp,32

9d0021c8 <.LBB12>:
      }

      case 'k': {                             // Test current control
        MODE = ITEST;
9d0021c8:	24020002 	li	v0,2
9d0021cc:	af828070 	sw	v0,-32656(gp)
        while (MODE == ITEST) {;}
9d0021d0:	24030002 	li	v1,2
9d0021d4:	8f828070 	lw	v0,-32656(gp)
9d0021d8:	1043fffe 	beq	v0,v1,9d0021d4 <.LBB12+0xc>
9d0021dc:	27a40020 	addiu	a0,sp,32

        sprintf(buffer,"%d\r\n", 99);
9d0021e0:	3c059d01 	lui	a1,0x9d01
9d0021e4:	24a5c350 	addiu	a1,a1,-15536
9d0021e8:	0f402fcd 	jal	9d00bf34 <_sprintf_cdfFnopuxX>
9d0021ec:	24060063 	li	a2,99

9d0021f0 <.LVL52>:
        display(buffer);
9d0021f0:	0f40264d 	jal	9d009934 <display>
9d0021f4:	27a40020 	addiu	a0,sp,32

9d0021f8 <.LVL53>:
        NU32_WriteUART3(buffer);
9d0021f8:	0f402720 	jal	9d009c80 <NU32_WriteUART3>
9d0021fc:	27a40020 	addiu	a0,sp,32

9d002200 <.LVL54>:

        int i;
        for (i = 0; i < 99; i++) {
9d002200:	00008021 	move	s0,zero
          sprintf(buffer,"%d %d\r\n", curr_ref_test[i], curr_actual_test[i]);
9d002204:	3c1ea001 	lui	s8,0xa001
9d002208:	27dea2e8 	addiu	s8,s8,-23832
9d00220c:	3c17a001 	lui	s7,0xa001
9d002210:	26f7a15c 	addiu	s7,s7,-24228
9d002214:	3c169d01 	lui	s6,0x9d01
9d002218:	26d6c384 	addiu	s6,s6,-15484
        sprintf(buffer,"%d\r\n", 99);
        display(buffer);
        NU32_WriteUART3(buffer);

        int i;
        for (i = 0; i < 99; i++) {
9d00221c:	24110063 	li	s1,99
          sprintf(buffer,"%d %d\r\n", curr_ref_test[i], curr_actual_test[i]);
9d002220:	00101080 	sll	v0,s0,0x2
9d002224:	005e1821 	addu	v1,v0,s8
9d002228:	8c660000 	lw	a2,0(v1)
9d00222c:	00571021 	addu	v0,v0,s7
9d002230:	8c470000 	lw	a3,0(v0)
9d002234:	27a40020 	addiu	a0,sp,32
9d002238:	0f402fcd 	jal	9d00bf34 <_sprintf_cdfFnopuxX>
9d00223c:	02c02821 	move	a1,s6

9d002240 <.LVL56>:
          display(buffer);
9d002240:	0f40264d 	jal	9d009934 <display>
9d002244:	27a40020 	addiu	a0,sp,32

9d002248 <.LVL57>:
          NU32_WriteUART3(buffer);
9d002248:	0f402720 	jal	9d009c80 <NU32_WriteUART3>
9d00224c:	27a40020 	addiu	a0,sp,32

9d002250 <.LVL58>:
        sprintf(buffer,"%d\r\n", 99);
        display(buffer);
        NU32_WriteUART3(buffer);

        int i;
        for (i = 0; i < 99; i++) {
9d002250:	26100001 	addiu	s0,s0,1
9d002254:	1611fff3 	bne	s0,s1,9d002224 <.LVL54+0x24>
9d002258:	00101080 	sll	v0,s0,0x2
9d00225c:	0b4007af 	j	9d001ebc <.LVL7+0x24>
9d002260:	27a40020 	addiu	a0,sp,32

9d002264 <.LBB13>:
      //   }
      //   break; 
      // }

      case 'l': {                             //  Go to angle (deg)
        curr_E_int = 0;
9d002264:	af808078 	sw	zero,-32648(gp)
        pos_E_int = 0;
9d002268:	af80806c 	sw	zero,-32660(gp)
        pos_E_prev = 0;
9d00226c:	af808068 	sw	zero,-32664(gp)
        NU32_ReadUART3(buffer, BUF_SIZE);
9d002270:	27a40020 	addiu	a0,sp,32
9d002274:	0f402703 	jal	9d009c0c <NU32_ReadUART3>
9d002278:	240500c8 	li	a1,200

9d00227c <.LVL61>:
        display(buffer);
9d00227c:	0f40264d 	jal	9d009934 <display>
9d002280:	27a40020 	addiu	a0,sp,32

9d002284 <.LVL62>:
        sscanf(buffer, "%d", &deg_desired);
9d002284:	27a40020 	addiu	a0,sp,32
9d002288:	3c029d01 	lui	v0,0x9d01
9d00228c:	2445c358 	addiu	a1,v0,-15528
9d002290:	0f402fb0 	jal	9d00bec0 <_sscanf_cdfFnopuxX>
9d002294:	27868050 	addiu	a2,gp,-32688

9d002298 <.LVL63>:
        MODE = HOLD;
9d002298:	24020003 	li	v0,3
9d00229c:	af828070 	sw	v0,-32656(gp)
        break;
9d0022a0:	0b4007af 	j	9d001ebc <.LVL7+0x24>
9d0022a4:	27a40020 	addiu	a0,sp,32

9d0022a8 <.LBB14>:
      }

      case 'm': {                             //  Load step trajectory
        MODE = IDLE;
9d0022a8:	af808070 	sw	zero,-32656(gp)
        NU32_ReadUART3(buffer, BUF_SIZE);
9d0022ac:	27a40020 	addiu	a0,sp,32
9d0022b0:	0f402703 	jal	9d009c0c <NU32_ReadUART3>
9d0022b4:	240500c8 	li	a1,200

9d0022b8 <.LVL64>:
        display(buffer);
9d0022b8:	0f40264d 	jal	9d009934 <display>
9d0022bc:	27a40020 	addiu	a0,sp,32

9d0022c0 <.LVL65>:
        sscanf(buffer, "%d", &traj_No_Samples);
9d0022c0:	27a40020 	addiu	a0,sp,32
9d0022c4:	3c029d01 	lui	v0,0x9d01
9d0022c8:	2445c358 	addiu	a1,v0,-15528
9d0022cc:	0f402fb0 	jal	9d00bec0 <_sscanf_cdfFnopuxX>
9d0022d0:	27868044 	addiu	a2,gp,-32700

9d0022d4 <.LVL66>:
        int i, temp = 0;
9d0022d4:	afa000e8 	sw	zero,232(sp)
        for (i = 0; i < traj_No_Samples; i ++)
9d0022d8:	8f828044 	lw	v0,-32700(gp)
9d0022dc:	1840fef6 	blez	v0,9d001eb8 <.LVL7+0x20>
9d0022e0:	3c029d01 	lui	v0,0x9d01
9d0022e4:	00008021 	move	s0,zero
        {
          NU32_ReadUART3(buffer, BUF_SIZE);
          display(buffer);
          sscanf(buffer, "%d", &temp);
9d0022e8:	2451c358 	addiu	s1,v0,-15528
        display(buffer);
        sscanf(buffer, "%d", &traj_No_Samples);
        int i, temp = 0;
        for (i = 0; i < traj_No_Samples; i ++)
        {
          NU32_ReadUART3(buffer, BUF_SIZE);
9d0022ec:	27a40020 	addiu	a0,sp,32
9d0022f0:	0f402703 	jal	9d009c0c <NU32_ReadUART3>
9d0022f4:	240500c8 	li	a1,200

9d0022f8 <.LVL69>:
          display(buffer);
9d0022f8:	0f40264d 	jal	9d009934 <display>
9d0022fc:	27a40020 	addiu	a0,sp,32

9d002300 <.LVL70>:
          sscanf(buffer, "%d", &temp);
9d002300:	27a40020 	addiu	a0,sp,32
9d002304:	02202821 	move	a1,s1
9d002308:	0f402fb0 	jal	9d00bec0 <_sscanf_cdfFnopuxX>
9d00230c:	27a600e8 	addiu	a2,sp,232

9d002310 <.LVL71>:
          traj_ref[i] = temp;
9d002310:	0f403080 	jal	9d00c200 <__floatsisf>
9d002314:	8fa400e8 	lw	a0,232(sp)
9d002318:	00101880 	sll	v1,s0,0x2
9d00231c:	00721821 	addu	v1,v1,s2
9d002320:	ac620000 	sw	v0,0(v1)
        MODE = IDLE;
        NU32_ReadUART3(buffer, BUF_SIZE);
        display(buffer);
        sscanf(buffer, "%d", &traj_No_Samples);
        int i, temp = 0;
        for (i = 0; i < traj_No_Samples; i ++)
9d002324:	26100001 	addiu	s0,s0,1
9d002328:	8f828044 	lw	v0,-32700(gp)
9d00232c:	0202102a 	slt	v0,s0,v0
9d002330:	1440ffef 	bnez	v0,9d0022f0 <.LVL66+0x1c>
9d002334:	27a40020 	addiu	a0,sp,32
9d002338:	0b4007af 	j	9d001ebc <.LVL7+0x24>
9d00233c:	00000000 	nop

9d002340 <.LBB15>:
          traj_ref[i] = temp;
        }
        break;      }

      case 'n': {                             //  Load cubic trajectory
        MODE = IDLE;
9d002340:	af808070 	sw	zero,-32656(gp)
        NU32_ReadUART3(buffer, BUF_SIZE);
9d002344:	27a40020 	addiu	a0,sp,32
9d002348:	0f402703 	jal	9d009c0c <NU32_ReadUART3>
9d00234c:	240500c8 	li	a1,200

9d002350 <.LVL75>:
        display(buffer);
9d002350:	0f40264d 	jal	9d009934 <display>
9d002354:	27a40020 	addiu	a0,sp,32

9d002358 <.LVL76>:
        sscanf(buffer, "%d", &traj_No_Samples);
9d002358:	27a40020 	addiu	a0,sp,32
9d00235c:	3c029d01 	lui	v0,0x9d01
9d002360:	2445c358 	addiu	a1,v0,-15528
9d002364:	0f402fb0 	jal	9d00bec0 <_sscanf_cdfFnopuxX>
9d002368:	27868044 	addiu	a2,gp,-32700

9d00236c <.LVL77>:
        int i = 0;        
        float temp = 0;
9d00236c:	00001021 	move	v0,zero
9d002370:	afa200e8 	sw	v0,232(sp)

        for (i = 0; i < traj_No_Samples; i ++) {
9d002374:	8f828044 	lw	v0,-32700(gp)
9d002378:	1840fecf 	blez	v0,9d001eb8 <.LVL7+0x20>
9d00237c:	3c119d01 	lui	s1,0x9d01
9d002380:	00008021 	move	s0,zero
          NU32_ReadUART3(buffer, BUF_SIZE);
          display(buffer);
          sscanf(buffer,"%f",&temp);
9d002384:	2631c38c 	addiu	s1,s1,-15476
        sscanf(buffer, "%d", &traj_No_Samples);
        int i = 0;        
        float temp = 0;

        for (i = 0; i < traj_No_Samples; i ++) {
          NU32_ReadUART3(buffer, BUF_SIZE);
9d002388:	27a40020 	addiu	a0,sp,32
9d00238c:	0f402703 	jal	9d009c0c <NU32_ReadUART3>
9d002390:	240500c8 	li	a1,200

9d002394 <.LVL79>:
          display(buffer);
9d002394:	0f40264d 	jal	9d009934 <display>
9d002398:	27a40020 	addiu	a0,sp,32

9d00239c <.LVL80>:
          sscanf(buffer,"%f",&temp);
9d00239c:	27a40020 	addiu	a0,sp,32
9d0023a0:	02202821 	move	a1,s1
9d0023a4:	0f402fb0 	jal	9d00bec0 <_sscanf_cdfFnopuxX>
9d0023a8:	27a600e8 	addiu	a2,sp,232

9d0023ac <.LVL81>:
          traj_ref[i] = (int)temp;
9d0023ac:	0f402f36 	jal	9d00bcd8 <__fixsfsi>
9d0023b0:	8fa400e8 	lw	a0,232(sp)
9d0023b4:	0f403080 	jal	9d00c200 <__floatsisf>
9d0023b8:	00402021 	move	a0,v0
9d0023bc:	00101880 	sll	v1,s0,0x2
9d0023c0:	00721821 	addu	v1,v1,s2
9d0023c4:	ac620000 	sw	v0,0(v1)
        display(buffer);
        sscanf(buffer, "%d", &traj_No_Samples);
        int i = 0;        
        float temp = 0;

        for (i = 0; i < traj_No_Samples; i ++) {
9d0023c8:	26100001 	addiu	s0,s0,1
9d0023cc:	8f828044 	lw	v0,-32700(gp)
9d0023d0:	0202102a 	slt	v0,s0,v0
9d0023d4:	1440ffed 	bnez	v0,9d00238c <.LVL77+0x20>
9d0023d8:	27a40020 	addiu	a0,sp,32
9d0023dc:	0b4007af 	j	9d001ebc <.LVL7+0x24>
9d0023e0:	00000000 	nop

9d0023e4 <.LBE15>:
        }
        break;
      }

      case 'o': {                              //Execute Trajectory
        MODE = TRACK;
9d0023e4:	24020004 	li	v0,4
9d0023e8:	af828070 	sw	v0,-32656(gp)
        while (MODE == TRACK);
9d0023ec:	24030004 	li	v1,4
9d0023f0:	8f828070 	lw	v0,-32656(gp)
9d0023f4:	1043fffe 	beq	v0,v1,9d0023f0 <.LBE15+0xc>
9d0023f8:	00000000 	nop
        sprintf(buffer, "%d\r\n", traj_No_Samples);
9d0023fc:	8f868044 	lw	a2,-32700(gp)
9d002400:	27a40020 	addiu	a0,sp,32
9d002404:	3c059d01 	lui	a1,0x9d01
9d002408:	0f402fcd 	jal	9d00bf34 <_sprintf_cdfFnopuxX>
9d00240c:	24a5c350 	addiu	a1,a1,-15536

9d002410 <.LVL86>:
        NU32_WriteUART3(buffer);
9d002410:	0f402720 	jal	9d009c80 <NU32_WriteUART3>
9d002414:	27a40020 	addiu	a0,sp,32

9d002418 <.LVL87>:
        display(buffer);
9d002418:	0f40264d 	jal	9d009934 <display>
9d00241c:	27a40020 	addiu	a0,sp,32

9d002420 <.LVL88>:
        int i = 0;
        for (i = 0; i < traj_No_Samples; i ++) {
9d002420:	8f828044 	lw	v0,-32700(gp)
9d002424:	1840fea4 	blez	v0,9d001eb8 <.LVL7+0x20>
9d002428:	3c169d01 	lui	s6,0x9d01
9d00242c:	00008021 	move	s0,zero
          sprintf(buffer, "%f %d\r\n", traj_ref[i], traj_actual[i]);
9d002430:	26d6c390 	addiu	s6,s6,-15472
9d002434:	00101080 	sll	v0,s0,0x2
9d002438:	00521821 	addu	v1,v0,s2
9d00243c:	8c640000 	lw	a0,0(v1)
9d002440:	00531021 	addu	v0,v0,s3
9d002444:	8c510000 	lw	s1,0(v0)
9d002448:	0f402d78 	jal	9d00b5e0 <__extendsfdf2>
9d00244c:	26100001 	addiu	s0,s0,1
9d002450:	afb10010 	sw	s1,16(sp)
9d002454:	27a40020 	addiu	a0,sp,32
9d002458:	02c02821 	move	a1,s6
9d00245c:	00403021 	move	a2,v0
9d002460:	0f402fcd 	jal	9d00bf34 <_sprintf_cdfFnopuxX>
9d002464:	00603821 	move	a3,v1

9d002468 <.LVL91>:
          NU32_WriteUART3(buffer);
9d002468:	0f402720 	jal	9d009c80 <NU32_WriteUART3>
9d00246c:	27a40020 	addiu	a0,sp,32

9d002470 <.LVL92>:
          display(buffer);
9d002470:	0f40264d 	jal	9d009934 <display>
9d002474:	27a40020 	addiu	a0,sp,32

9d002478 <.LVL93>:
        while (MODE == TRACK);
        sprintf(buffer, "%d\r\n", traj_No_Samples);
        NU32_WriteUART3(buffer);
        display(buffer);
        int i = 0;
        for (i = 0; i < traj_No_Samples; i ++) {
9d002478:	8f828044 	lw	v0,-32700(gp)
9d00247c:	0202102a 	slt	v0,s0,v0
9d002480:	1440ffed 	bnez	v0,9d002438 <.LVL88+0x18>
9d002484:	00101080 	sll	v0,s0,0x2
9d002488:	0b4007af 	j	9d001ebc <.LVL7+0x24>
9d00248c:	27a40020 	addiu	a0,sp,32
        }
        break;
      }

      case 'p': {                           // Unpower the motor
        MODE = IDLE;
9d002490:	af808070 	sw	zero,-32656(gp)
        get_mode(MODE);
9d002494:	8f848070 	lw	a0,-32656(gp)
9d002498:	0f40265b 	jal	9d00996c <get_mode>
9d00249c:	00000000 	nop

9d0024a0 <.LVL95>:
        break;
9d0024a0:	0b4007af 	j	9d001ebc <.LVL7+0x24>
9d0024a4:	27a40020 	addiu	a0,sp,32
      }

      case 'q': {                           // Quit client
        MODE = IDLE;
9d0024a8:	af808070 	sw	zero,-32656(gp)
        break;
9d0024ac:	0b4007af 	j	9d001ebc <.LVL7+0x24>
9d0024b0:	27a40020 	addiu	a0,sp,32
      }

      case 'r': {                           // Get mode
        get_mode(MODE);
9d0024b4:	8f848070 	lw	a0,-32656(gp)
9d0024b8:	0f40265b 	jal	9d00996c <get_mode>
9d0024bc:	00000000 	nop

9d0024c0 <.LVL96>:
        break;
9d0024c0:	0b4007af 	j	9d001ebc <.LVL7+0x24>
9d0024c4:	27a40020 	addiu	a0,sp,32

9d0024c8 <.LBB17>:
      }

      case 'x': {                           // Test command
        int a = 0;
9d0024c8:	afa000ec 	sw	zero,236(sp)
        int b = 0;
9d0024cc:	afa000e8 	sw	zero,232(sp)

        NU32_ReadUART3(buffer,BUF_SIZE);
9d0024d0:	27a40020 	addiu	a0,sp,32
9d0024d4:	0f402703 	jal	9d009c0c <NU32_ReadUART3>
9d0024d8:	240500c8 	li	a1,200

9d0024dc <.LVL97>:
        sscanf(buffer, "%d", &a);
9d0024dc:	27a40020 	addiu	a0,sp,32
9d0024e0:	3c029d01 	lui	v0,0x9d01
9d0024e4:	2445c358 	addiu	a1,v0,-15528
9d0024e8:	0f402fb0 	jal	9d00bec0 <_sscanf_cdfFnopuxX>
9d0024ec:	27a600ec 	addiu	a2,sp,236

9d0024f0 <.LVL98>:
        NU32_ReadUART3(buffer,BUF_SIZE);
9d0024f0:	27a40020 	addiu	a0,sp,32
9d0024f4:	0f402703 	jal	9d009c0c <NU32_ReadUART3>
9d0024f8:	240500c8 	li	a1,200

9d0024fc <.LVL99>:
        sscanf(buffer, "%d", &b);
9d0024fc:	27a40020 	addiu	a0,sp,32
9d002500:	3c029d01 	lui	v0,0x9d01
9d002504:	2445c358 	addiu	a1,v0,-15528
9d002508:	0f402fb0 	jal	9d00bec0 <_sscanf_cdfFnopuxX>
9d00250c:	27a600e8 	addiu	a2,sp,232

9d002510 <.LVL100>:
        sprintf(buffer,"%d\r\n", (a + b));
9d002510:	27a40020 	addiu	a0,sp,32
9d002514:	3c059d01 	lui	a1,0x9d01
9d002518:	24a5c350 	addiu	a1,a1,-15536
9d00251c:	8fa200e8 	lw	v0,232(sp)
9d002520:	8fa600ec 	lw	a2,236(sp)
9d002524:	0f402fcd 	jal	9d00bf34 <_sprintf_cdfFnopuxX>
9d002528:	00c23021 	addu	a2,a2,v0

9d00252c <.LVL101>:
        display(buffer);
9d00252c:	0f40264d 	jal	9d009934 <display>
9d002530:	27a40020 	addiu	a0,sp,32

9d002534 <.LVL102>:
        NU32_WriteUART3(buffer);
9d002534:	0f402720 	jal	9d009c80 <NU32_WriteUART3>
9d002538:	27a40020 	addiu	a0,sp,32

9d00253c <.LBE17>:
  //           // display(buffer);
  //           NU32_WriteUART3(buffer);
  //   }

  while(1) {
    NU32_ReadUART3(buffer,BUF_SIZE);          // we expect the next character to be a
9d00253c:	0b4007af 	j	9d001ebc <.LVL7+0x24>
9d002540:	27a40020 	addiu	a0,sp,32
        NU32_WriteUART3(buffer);
        break;
      }

      default: {
        NU32_LED2 = 0;  // turn on LED2 to indicate an error
9d002544:	92826160 	lbu	v0,24928(s4)
9d002548:	7c020844 	ins	v0,zero,0x1,0x1
9d00254c:	a2826160 	sb	v0,24928(s4)
        break;
9d002550:	0b4007af 	j	9d001ebc <.LVL7+0x24>
9d002554:	27a40020 	addiu	a0,sp,32

9d002558 <Controller>:
  }
  return 0;
}


void __ISR(_TIMER_2_VECTOR, IPL3SOFT) Controller(void) { // _TIMER_2_VECTOR = 8
9d002558:	415de800 	rdpgpr	sp,sp
9d00255c:	401a7000 	mfc0	k0,c0_epc
9d002560:	401b6000 	mfc0	k1,c0_status
9d002564:	27bdff88 	addiu	sp,sp,-120
9d002568:	afba0074 	sw	k0,116(sp)
9d00256c:	401a6002 	mfc0	k0,c0_srsctl
9d002570:	afbb0070 	sw	k1,112(sp)
9d002574:	afba006c 	sw	k0,108(sp)
9d002578:	7c1b7844 	ins	k1,zero,0x1,0xf
9d00257c:	377b0c00 	ori	k1,k1,0xc00
9d002580:	409b6000 	mtc0	k1,c0_status
9d002584:	afbf005c 	sw	ra,92(sp)
9d002588:	afb90058 	sw	t9,88(sp)
9d00258c:	afb80054 	sw	t8,84(sp)
9d002590:	afb00050 	sw	s0,80(sp)
9d002594:	afaf004c 	sw	t7,76(sp)
9d002598:	afae0048 	sw	t6,72(sp)
9d00259c:	afad0044 	sw	t5,68(sp)
9d0025a0:	afac0040 	sw	t4,64(sp)
9d0025a4:	afab003c 	sw	t3,60(sp)
9d0025a8:	afaa0038 	sw	t2,56(sp)
9d0025ac:	afa90034 	sw	t1,52(sp)
9d0025b0:	afa80030 	sw	t0,48(sp)
9d0025b4:	afa7002c 	sw	a3,44(sp)
9d0025b8:	afa60028 	sw	a2,40(sp)
9d0025bc:	afa50024 	sw	a1,36(sp)
9d0025c0:	afa40020 	sw	a0,32(sp)
9d0025c4:	afa3001c 	sw	v1,28(sp)
9d0025c8:	afa20018 	sw	v0,24(sp)
9d0025cc:	afa10014 	sw	at,20(sp)
9d0025d0:	00001012 	mflo	v0
9d0025d4:	afa20064 	sw	v0,100(sp)
9d0025d8:	00001810 	mfhi	v1
9d0025dc:	afa30060 	sw	v1,96(sp)

  switch (MODE) {
9d0025e0:	8f828070 	lw	v0,-32656(gp)
9d0025e4:	2c430005 	sltiu	v1,v0,5
9d0025e8:	106000af 	beqz	v1,9d0028a8 <.LBE19>
9d0025ec:	00021080 	sll	v0,v0,0x2
9d0025f0:	3c039d00 	lui	v1,0x9d00
9d0025f4:	24632608 	addiu	v1,v1,9736
9d0025f8:	00621021 	addu	v0,v1,v0
9d0025fc:	8c420000 	lw	v0,0(v0)
9d002600:	00400008 	jr	v0
9d002604:	00000000 	nop
9d002608:	9d00261c 	0x9d00261c
9d00260c:	9d002640 	0x9d002640
9d002610:	9d0026f8 	0x9d0026f8
9d002614:	9d002808 	0x9d002808
9d002618:	9d00285c 	0x9d00285c
    case IDLE: {
      duty_cycle = 0;
9d00261c:	af808054 	sw	zero,-32684(gp)
      OC1RS = 0;
9d002620:	3c02bf80 	lui	v0,0xbf80
9d002624:	ac403020 	sw	zero,12320(v0)
      LATDbits.LATD0 = 0;
9d002628:	3c02bf88 	lui	v0,0xbf88
9d00262c:	944360e0 	lhu	v1,24800(v0)
9d002630:	7c030004 	ins	v1,zero,0x0,0x1
9d002634:	a44360e0 	sh	v1,24800(v0)
      break;
9d002638:	0b400a2b 	j	9d0028ac <.LBE19+0x4>
9d00263c:	3c02bf88 	lui	v0,0xbf88
    }

    case PWM: {
      if (duty_cycle < 0) {
9d002640:	8f828054 	lw	v0,-32684(gp)
9d002644:	04410014 	bgez	v0,9d002698 <.LVL104>
9d002648:	00000000 	nop
        if (duty_cycle < -100) {
9d00264c:	8f828054 	lw	v0,-32684(gp)
9d002650:	2842ff9c 	slti	v0,v0,-100
9d002654:	10400002 	beqz	v0,9d002660 <Controller+0x108>
9d002658:	2402ff9c 	li	v0,-100
          duty_cycle = -100;
9d00265c:	af828054 	sw	v0,-32684(gp)
        }
        OC1RS = -40 * duty_cycle;
9d002660:	8f828054 	lw	v0,-32684(gp)
9d002664:	000218c0 	sll	v1,v0,0x3
9d002668:	00021140 	sll	v0,v0,0x5
9d00266c:	00621821 	addu	v1,v1,v0
9d002670:	00031823 	negu	v1,v1
9d002674:	3c02bf80 	lui	v0,0xbf80
9d002678:	ac433020 	sw	v1,12320(v0)
        LATDbits.LATD0 = 1;
9d00267c:	3c02bf88 	lui	v0,0xbf88
9d002680:	944360e0 	lhu	v1,24800(v0)
9d002684:	24040001 	li	a0,1
9d002688:	7c830004 	ins	v1,a0,0x0,0x1
9d00268c:	a44360e0 	sh	v1,24800(v0)
        set_direction(1);
9d002690:	0f40229e 	jal	9d008a78 <set_direction>
9d002694:	00000000 	nop

9d002698 <.LVL104>:
      }

      if (duty_cycle >= 0) {
9d002698:	8f828054 	lw	v0,-32684(gp)
9d00269c:	04400083 	bltz	v0,9d0028ac <.LBE19+0x4>
9d0026a0:	3c02bf88 	lui	v0,0xbf88
        if (duty_cycle > 100) {
9d0026a4:	8f828054 	lw	v0,-32684(gp)
9d0026a8:	28420065 	slti	v0,v0,101
9d0026ac:	54400004 	bnezl	v0,9d0026c0 <.LVL104+0x28>
9d0026b0:	3c02bf88 	lui	v0,0xbf88
          duty_cycle = 100;
9d0026b4:	24020064 	li	v0,100
9d0026b8:	af828054 	sw	v0,-32684(gp)
        }
        LATDbits.LATD0 = 1;
9d0026bc:	3c02bf88 	lui	v0,0xbf88
9d0026c0:	944360e0 	lhu	v1,24800(v0)
9d0026c4:	24040001 	li	a0,1
9d0026c8:	7c830004 	ins	v1,a0,0x0,0x1
9d0026cc:	a44360e0 	sh	v1,24800(v0)
        set_direction(0);
9d0026d0:	0f40229e 	jal	9d008a78 <set_direction>
9d0026d4:	00002021 	move	a0,zero

9d0026d8 <.LVL105>:
        OC1RS = 40 * duty_cycle;
9d0026d8:	8f828054 	lw	v0,-32684(gp)
9d0026dc:	000218c0 	sll	v1,v0,0x3
9d0026e0:	00021140 	sll	v0,v0,0x5
9d0026e4:	00621021 	addu	v0,v1,v0
9d0026e8:	3c03bf80 	lui	v1,0xbf80
9d0026ec:	ac623020 	sw	v0,12320(v1)
      set_direction(dir);
      break;
    }
  }

  IFS0bits.T2IF = 0;                      // clear interrupt flag IFS0
9d0026f0:	0b400a2b 	j	9d0028ac <.LBE19+0x4>
9d0026f4:	3c02bf88 	lui	v0,0xbf88
      }
      break;
    }

    case ITEST: {
      if ((curr_Count > 25 && curr_Count < 50) || (curr_Count > 75)) {
9d0026f8:	8f82804c 	lw	v0,-32692(gp)
9d0026fc:	2842001a 	slti	v0,v0,26
9d002700:	14400005 	bnez	v0,9d002718 <.LVL105+0x40>
9d002704:	00000000 	nop
9d002708:	8f82804c 	lw	v0,-32692(gp)
9d00270c:	28420032 	slti	v0,v0,50
9d002710:	14400005 	bnez	v0,9d002728 <.LVL105+0x50>
9d002714:	00000000 	nop
9d002718:	8f82804c 	lw	v0,-32692(gp)
9d00271c:	2842004c 	slti	v0,v0,76
9d002720:	1440000a 	bnez	v0,9d00274c <.LVL105+0x74>
9d002724:	00000000 	nop
        curr_ref_test[curr_Count] = (-1)*(200);
9d002728:	8f83804c 	lw	v1,-32692(gp)
9d00272c:	00031880 	sll	v1,v1,0x2
9d002730:	3c02a001 	lui	v0,0xa001
9d002734:	2442a2e8 	addiu	v0,v0,-23832
9d002738:	00621021 	addu	v0,v1,v0
9d00273c:	2403ff38 	li	v1,-200
9d002740:	ac430000 	sw	v1,0(v0)
9d002744:	0b4009da 	j	9d002768 <.LVL105+0x90>
9d002748:	00000000 	nop
      }
      else {
        curr_ref_test[curr_Count] = 200;
9d00274c:	8f83804c 	lw	v1,-32692(gp)
9d002750:	00031880 	sll	v1,v1,0x2
9d002754:	3c02a001 	lui	v0,0xa001
9d002758:	2442a2e8 	addiu	v0,v0,-23832
9d00275c:	00621021 	addu	v0,v1,v0
9d002760:	240300c8 	li	v1,200
9d002764:	ac430000 	sw	v1,0(v0)
      }
      curr_actual_test[curr_Count] = read_current();
9d002768:	8f90804c 	lw	s0,-32692(gp)
9d00276c:	0f4028b6 	jal	9d00a2d8 <read_current>
9d002770:	00108080 	sll	s0,s0,0x2

9d002774 <.LVL106>:
9d002774:	3c03a001 	lui	v1,0xa001
9d002778:	2463a15c 	addiu	v1,v1,-24228
9d00277c:	02038021 	addu	s0,s0,v1
9d002780:	ae020000 	sw	v0,0(s0)

      OC1RS = curr_PI(kp, ki, curr_ref_test[curr_Count], curr_actual_test[curr_Count]);
9d002784:	8f84801c 	lw	a0,-32740(gp)
9d002788:	8f858018 	lw	a1,-32744(gp)
9d00278c:	8f86804c 	lw	a2,-32692(gp)
9d002790:	00063080 	sll	a2,a2,0x2
9d002794:	3c02a001 	lui	v0,0xa001
9d002798:	2442a2e8 	addiu	v0,v0,-23832
9d00279c:	00c21021 	addu	v0,a2,v0
9d0027a0:	8c460000 	lw	a2,0(v0)
9d0027a4:	8f82804c 	lw	v0,-32692(gp)
9d0027a8:	00021080 	sll	v0,v0,0x2
9d0027ac:	00431821 	addu	v1,v0,v1
9d0027b0:	8c670000 	lw	a3,0(v1)
9d0027b4:	0f40225f 	jal	9d00897c <curr_PI>
9d0027b8:	00000000 	nop

9d0027bc <.LVL107>:
9d0027bc:	3c03bf80 	lui	v1,0xbf80
9d0027c0:	ac623020 	sw	v0,12320(v1)
      set_direction(dir);
9d0027c4:	8f848074 	lw	a0,-32652(gp)
9d0027c8:	0f40229e 	jal	9d008a78 <set_direction>
9d0027cc:	00000000 	nop

9d0027d0 <.LVL108>:

      if (curr_Count == 99) {
9d0027d0:	8f83804c 	lw	v1,-32692(gp)
9d0027d4:	24020063 	li	v0,99
9d0027d8:	14620006 	bne	v1,v0,9d0027f4 <.LVL108+0x24>
9d0027dc:	00000000 	nop
        curr_Count = 0;
9d0027e0:	af80804c 	sw	zero,-32692(gp)
        MODE = IDLE;
9d0027e4:	af808070 	sw	zero,-32656(gp)
        curr_E_int = 0;
9d0027e8:	af808078 	sw	zero,-32648(gp)
        break;
9d0027ec:	0b400a2b 	j	9d0028ac <.LBE19+0x4>
9d0027f0:	3c02bf88 	lui	v0,0xbf88
      }

      curr_Count++;
9d0027f4:	8f82804c 	lw	v0,-32692(gp)
9d0027f8:	24420001 	addiu	v0,v0,1
9d0027fc:	af82804c 	sw	v0,-32692(gp)
      break;
9d002800:	0b400a2b 	j	9d0028ac <.LBE19+0x4>
9d002804:	3c02bf88 	lui	v0,0xbf88

9d002808 <.LBB18>:
    //   pos_Count++;
    //   break;
    // }

    case HOLD: {
      if (curr_ref < 0) {
9d002808:	8f828048 	lw	v0,-32696(gp)
9d00280c:	04430004 	bgezl	v0,9d002820 <.LBB18+0x18>
9d002810:	24020001 	li	v0,1
        dir = 0;
9d002814:	af808074 	sw	zero,-32652(gp)
9d002818:	0b400a09 	j	9d002824 <.LBB18+0x1c>
9d00281c:	00000000 	nop
      }
      else {
        dir = 1;
9d002820:	af828074 	sw	v0,-32652(gp)
      }
      int curr_actual = read_current();
9d002824:	0f4028b6 	jal	9d00a2d8 <read_current>
9d002828:	00000000 	nop

9d00282c <.LVL109>:
      OC1RS = curr_PI(kp, ki, curr_ref, curr_actual);
9d00282c:	8f84801c 	lw	a0,-32740(gp)
9d002830:	8f858018 	lw	a1,-32744(gp)
9d002834:	8f868048 	lw	a2,-32696(gp)
9d002838:	0f40225f 	jal	9d00897c <curr_PI>
9d00283c:	00403821 	move	a3,v0

9d002840 <.LVL110>:
9d002840:	3c03bf80 	lui	v1,0xbf80
9d002844:	ac623020 	sw	v0,12320(v1)
      set_direction(dir);
9d002848:	8f848074 	lw	a0,-32652(gp)
9d00284c:	0f40229e 	jal	9d008a78 <set_direction>
9d002850:	00000000 	nop

9d002854 <.LVL111>:
      break;
9d002854:	0b400a2b 	j	9d0028ac <.LBE19+0x4>
9d002858:	3c02bf88 	lui	v0,0xbf88

9d00285c <.LBB19>:
    }

    case TRACK: { 
      if (curr_ref < 0) {
9d00285c:	8f828048 	lw	v0,-32696(gp)
9d002860:	04410004 	bgez	v0,9d002874 <.LBB19+0x18>
9d002864:	24020001 	li	v0,1
        dir = 0;
9d002868:	af808074 	sw	zero,-32652(gp)
9d00286c:	0b400a1e 	j	9d002878 <.LBB19+0x1c>
9d002870:	00000000 	nop
      }
      else {
        dir = 1;
9d002874:	af828074 	sw	v0,-32652(gp)
      }
      int curr_actual = read_current();
9d002878:	0f4028b6 	jal	9d00a2d8 <read_current>
9d00287c:	00000000 	nop

9d002880 <.LVL112>:
      OC1RS = curr_PI(kp, ki, curr_ref, curr_actual);
9d002880:	8f84801c 	lw	a0,-32740(gp)
9d002884:	8f858018 	lw	a1,-32744(gp)
9d002888:	8f868048 	lw	a2,-32696(gp)
9d00288c:	0f40225f 	jal	9d00897c <curr_PI>
9d002890:	00403821 	move	a3,v0

9d002894 <.LVL113>:
9d002894:	3c03bf80 	lui	v1,0xbf80
9d002898:	ac623020 	sw	v0,12320(v1)
      set_direction(dir);
9d00289c:	8f848074 	lw	a0,-32652(gp)
9d0028a0:	0f40229e 	jal	9d008a78 <set_direction>
9d0028a4:	00000000 	nop

9d0028a8 <.LBE19>:
      break;
    }
  }

  IFS0bits.T2IF = 0;                      // clear interrupt flag IFS0
9d0028a8:	3c02bf88 	lui	v0,0xbf88
9d0028ac:	8c431030 	lw	v1,4144(v0)
9d0028b0:	7c034204 	ins	v1,zero,0x8,0x1
9d0028b4:	ac431030 	sw	v1,4144(v0)
}
9d0028b8:	8fa20064 	lw	v0,100(sp)
9d0028bc:	00400013 	mtlo	v0
9d0028c0:	8fa30060 	lw	v1,96(sp)
9d0028c4:	00600011 	mthi	v1
9d0028c8:	8fbf005c 	lw	ra,92(sp)
9d0028cc:	8fb90058 	lw	t9,88(sp)
9d0028d0:	8fb80054 	lw	t8,84(sp)
9d0028d4:	8fb00050 	lw	s0,80(sp)
9d0028d8:	8faf004c 	lw	t7,76(sp)
9d0028dc:	8fae0048 	lw	t6,72(sp)
9d0028e0:	8fad0044 	lw	t5,68(sp)
9d0028e4:	8fac0040 	lw	t4,64(sp)
9d0028e8:	8fab003c 	lw	t3,60(sp)
9d0028ec:	8faa0038 	lw	t2,56(sp)
9d0028f0:	8fa90034 	lw	t1,52(sp)
9d0028f4:	8fa80030 	lw	t0,48(sp)
9d0028f8:	8fa7002c 	lw	a3,44(sp)
9d0028fc:	8fa60028 	lw	a2,40(sp)
9d002900:	8fa50024 	lw	a1,36(sp)
9d002904:	8fa40020 	lw	a0,32(sp)
9d002908:	8fa3001c 	lw	v1,28(sp)
9d00290c:	8fa20018 	lw	v0,24(sp)
9d002910:	8fa10014 	lw	at,20(sp)
9d002914:	41606000 	di
9d002918:	000000c0 	ehb
9d00291c:	8fba0074 	lw	k0,116(sp)
9d002920:	8fbb0070 	lw	k1,112(sp)
9d002924:	409a7000 	mtc0	k0,c0_epc
9d002928:	8fba006c 	lw	k0,108(sp)
9d00292c:	27bd0078 	addiu	sp,sp,120
9d002930:	409a6002 	mtc0	k0,c0_srsctl
9d002934:	41dde800 	wrpgpr	sp,sp
9d002938:	409b6000 	mtc0	k1,c0_status
9d00293c:	42000018 	eret

9d002940 <positioncontrol>:

void __ISR(_TIMER_4_VECTOR, IPL5SOFT) positioncontrol(void) { //Timer 4
9d002940:	415de800 	rdpgpr	sp,sp
9d002944:	401a7000 	mfc0	k0,c0_epc
9d002948:	401b6000 	mfc0	k1,c0_status
9d00294c:	27bdff70 	addiu	sp,sp,-144
9d002950:	afba008c 	sw	k0,140(sp)
9d002954:	401a6002 	mfc0	k0,c0_srsctl
9d002958:	afbb0088 	sw	k1,136(sp)
9d00295c:	afba0084 	sw	k0,132(sp)
9d002960:	7c1b7844 	ins	k1,zero,0x1,0xf
9d002964:	377b1400 	ori	k1,k1,0x1400
9d002968:	409b6000 	mtc0	k1,c0_status
9d00296c:	afbf0074 	sw	ra,116(sp)
9d002970:	afb90070 	sw	t9,112(sp)
9d002974:	afb8006c 	sw	t8,108(sp)
9d002978:	afb40068 	sw	s4,104(sp)
9d00297c:	afb30064 	sw	s3,100(sp)
9d002980:	afb20060 	sw	s2,96(sp)
9d002984:	afb1005c 	sw	s1,92(sp)
9d002988:	afb00058 	sw	s0,88(sp)
9d00298c:	afaf0054 	sw	t7,84(sp)
9d002990:	afae0050 	sw	t6,80(sp)
9d002994:	afad004c 	sw	t5,76(sp)
9d002998:	afac0048 	sw	t4,72(sp)
9d00299c:	afab0044 	sw	t3,68(sp)
9d0029a0:	afaa0040 	sw	t2,64(sp)
9d0029a4:	afa9003c 	sw	t1,60(sp)
9d0029a8:	afa80038 	sw	t0,56(sp)
9d0029ac:	afa70034 	sw	a3,52(sp)
9d0029b0:	afa60030 	sw	a2,48(sp)
9d0029b4:	afa5002c 	sw	a1,44(sp)
9d0029b8:	afa40028 	sw	a0,40(sp)
9d0029bc:	afa30024 	sw	v1,36(sp)
9d0029c0:	afa20020 	sw	v0,32(sp)
9d0029c4:	afa1001c 	sw	at,28(sp)
9d0029c8:	00001012 	mflo	v0
9d0029cc:	afa2007c 	sw	v0,124(sp)
9d0029d0:	00001810 	mfhi	v1
9d0029d4:	afa30078 	sw	v1,120(sp)

  if (MODE == HOLD) {
9d0029d8:	8f838070 	lw	v1,-32656(gp)
9d0029dc:	24020003 	li	v0,3
9d0029e0:	1462000a 	bne	v1,v0,9d002a0c <.LBE20>
9d0029e4:	00000000 	nop

9d0029e8 <.LBB20>:
    int actual_pos = (int)encoder_angle();
9d0029e8:	0f40296c 	jal	9d00a5b0 <encoder_angle>
9d0029ec:	00000000 	nop

9d0029f0 <.LVL115>:
    curr_ref = position_PID(pos_kp, pos_ki, pos_kd, deg_desired, actual_pos);
9d0029f0:	8f848014 	lw	a0,-32748(gp)
9d0029f4:	8f85803c 	lw	a1,-32708(gp)
9d0029f8:	8f868010 	lw	a2,-32752(gp)
9d0029fc:	8f878050 	lw	a3,-32688(gp)
9d002a00:	0f4028f0 	jal	9d00a3c0 <position_PID>
9d002a04:	afa20010 	sw	v0,16(sp)

9d002a08 <.LVL116>:
9d002a08:	af828048 	sw	v0,-32696(gp)

9d002a0c <.LBE20>:
  }

  if (MODE == TRACK) {
9d002a0c:	8f838070 	lw	v1,-32656(gp)
9d002a10:	24020004 	li	v0,4
9d002a14:	14620031 	bne	v1,v0,9d002adc <.LBE21+0x4>
9d002a18:	3c02bf88 	lui	v0,0xbf88

9d002a1c <.LBB21>:
    int actual_pos = (int)encoder_angle();
9d002a1c:	0f40296c 	jal	9d00a5b0 <encoder_angle>
9d002a20:	00000000 	nop

9d002a24 <.LVL117>:
9d002a24:	0040a021 	move	s4,v0
    traj_actual[traj_i] = actual_pos;
9d002a28:	8f848040 	lw	a0,-32704(gp)
9d002a2c:	00042080 	sll	a0,a0,0x2
9d002a30:	3c03a000 	lui	v1,0xa000
9d002a34:	2463533c 	addiu	v1,v1,21308
9d002a38:	00832021 	addu	a0,a0,v1
9d002a3c:	ac820000 	sw	v0,0(a0)
    curr_ref = position_PID(pos_kp, pos_ki, pos_kd, traj_ref[traj_i], traj_actual[traj_i]);
9d002a40:	8f928014 	lw	s2,-32748(gp)
9d002a44:	8f91803c 	lw	s1,-32708(gp)
9d002a48:	8f908010 	lw	s0,-32752(gp)
9d002a4c:	8f848040 	lw	a0,-32704(gp)
9d002a50:	00042080 	sll	a0,a0,0x2
9d002a54:	3c02a000 	lui	v0,0xa000
9d002a58:	2442051c 	addiu	v0,v0,1308
9d002a5c:	00821021 	addu	v0,a0,v0
9d002a60:	8c440000 	lw	a0,0(v0)
9d002a64:	8f828040 	lw	v0,-32704(gp)
9d002a68:	00021080 	sll	v0,v0,0x2
9d002a6c:	00431821 	addu	v1,v0,v1
9d002a70:	8c730000 	lw	s3,0(v1)
9d002a74:	0f402f36 	jal	9d00bcd8 <__fixsfsi>
9d002a78:	00000000 	nop
9d002a7c:	afb30010 	sw	s3,16(sp)
9d002a80:	02402021 	move	a0,s2
9d002a84:	02202821 	move	a1,s1
9d002a88:	02003021 	move	a2,s0
9d002a8c:	0f4028f0 	jal	9d00a3c0 <position_PID>
9d002a90:	00403821 	move	a3,v0

9d002a94 <.LVL121>:
9d002a94:	af828048 	sw	v0,-32696(gp)

    if(traj_i == traj_No_Samples) {
9d002a98:	8f848040 	lw	a0,-32704(gp)
9d002a9c:	8f838044 	lw	v1,-32700(gp)
9d002aa0:	1483000a 	bne	a0,v1,9d002acc <.LVL121+0x38>
9d002aa4:	00000000 	nop
      curr_E_int = 0;
9d002aa8:	af808078 	sw	zero,-32648(gp)
      pos_E_int = 0;
9d002aac:	af80806c 	sw	zero,-32660(gp)
      pos_E_prev = 0;
9d002ab0:	af808068 	sw	zero,-32664(gp)
      traj_i = 0;
9d002ab4:	af808040 	sw	zero,-32704(gp)
      deg_desired = actual_pos;
9d002ab8:	af948050 	sw	s4,-32688(gp)
      MODE = HOLD;
9d002abc:	24020003 	li	v0,3
9d002ac0:	af828070 	sw	v0,-32656(gp)
9d002ac4:	0b400ab7 	j	9d002adc <.LBE21+0x4>
9d002ac8:	3c02bf88 	lui	v0,0xbf88
    }
    else {
      traj_i++;
9d002acc:	8f828040 	lw	v0,-32704(gp)
9d002ad0:	24420001 	addiu	v0,v0,1
9d002ad4:	af828040 	sw	v0,-32704(gp)

9d002ad8 <.LBE21>:
    }
  }

  IFS0bits.T4IF = 0;       //int flag
9d002ad8:	3c02bf88 	lui	v0,0xbf88
9d002adc:	8c431030 	lw	v1,4144(v0)
9d002ae0:	7c038404 	ins	v1,zero,0x10,0x1
9d002ae4:	ac431030 	sw	v1,4144(v0)
9d002ae8:	8fa2007c 	lw	v0,124(sp)
9d002aec:	00400013 	mtlo	v0
9d002af0:	8fa30078 	lw	v1,120(sp)
9d002af4:	00600011 	mthi	v1
9d002af8:	8fbf0074 	lw	ra,116(sp)
9d002afc:	8fb90070 	lw	t9,112(sp)
9d002b00:	8fb8006c 	lw	t8,108(sp)
9d002b04:	8fb40068 	lw	s4,104(sp)
9d002b08:	8fb30064 	lw	s3,100(sp)
9d002b0c:	8fb20060 	lw	s2,96(sp)
9d002b10:	8fb1005c 	lw	s1,92(sp)
9d002b14:	8fb00058 	lw	s0,88(sp)
9d002b18:	8faf0054 	lw	t7,84(sp)
9d002b1c:	8fae0050 	lw	t6,80(sp)
9d002b20:	8fad004c 	lw	t5,76(sp)
9d002b24:	8fac0048 	lw	t4,72(sp)
9d002b28:	8fab0044 	lw	t3,68(sp)
9d002b2c:	8faa0040 	lw	t2,64(sp)
9d002b30:	8fa9003c 	lw	t1,60(sp)
9d002b34:	8fa80038 	lw	t0,56(sp)
9d002b38:	8fa70034 	lw	a3,52(sp)
9d002b3c:	8fa60030 	lw	a2,48(sp)
9d002b40:	8fa5002c 	lw	a1,44(sp)
9d002b44:	8fa40028 	lw	a0,40(sp)
9d002b48:	8fa30024 	lw	v1,36(sp)
9d002b4c:	8fa20020 	lw	v0,32(sp)
9d002b50:	8fa1001c 	lw	at,28(sp)
9d002b54:	41606000 	di
9d002b58:	000000c0 	ehb
9d002b5c:	8fba008c 	lw	k0,140(sp)
9d002b60:	8fbb0088 	lw	k1,136(sp)
9d002b64:	409a7000 	mtc0	k0,c0_epc
9d002b68:	8fba0084 	lw	k0,132(sp)
9d002b6c:	27bd0090 	addiu	sp,sp,144
9d002b70:	409a6002 	mtc0	k0,c0_srsctl
9d002b74:	41dde800 	wrpgpr	sp,sp
9d002b78:	409b6000 	mtc0	k1,c0_status
9d002b7c:	42000018 	eret

Disassembly of section .text.do_scan:

9d002b80 <do_scan>:
9d002b80:	27bdff00 	addiu	sp,sp,-256
9d002b84:	afbf00fc 	sw	ra,252(sp)
9d002b88:	afbe00f8 	sw	s8,248(sp)
9d002b8c:	afb700f4 	sw	s7,244(sp)
9d002b90:	afb600f0 	sw	s6,240(sp)
9d002b94:	afb500ec 	sw	s5,236(sp)
9d002b98:	afb400e8 	sw	s4,232(sp)
9d002b9c:	afb300e4 	sw	s3,228(sp)
9d002ba0:	afb200e0 	sw	s2,224(sp)
9d002ba4:	afb100dc 	sw	s1,220(sp)
9d002ba8:	afb000d8 	sw	s0,216(sp)
9d002bac:	00809821 	move	s3,a0
9d002bb0:	8c820018 	lw	v0,24(a0)
9d002bb4:	00a08021 	move	s0,a1
9d002bb8:	24050002 	li	a1,2
9d002bbc:	8c420010 	lw	v0,16(v0)
9d002bc0:	0040f809 	jalr	v0
9d002bc4:	00c08821 	move	s1,a2
9d002bc8:	104000a2 	beqz	v0,9d002e54 <do_scan+0x2d4>
9d002bcc:	2402ffff 	li	v0,-1
9d002bd0:	afb30098 	sw	s3,152(sp)
9d002bd4:	afa2009c 	sw	v0,156(sp)
9d002bd8:	afb100a4 	sw	s1,164(sp)
9d002bdc:	afa000ac 	sw	zero,172(sp)
9d002be0:	afa000b0 	sw	zero,176(sp)
9d002be4:	afa000a8 	sw	zero,168(sp)
9d002be8:	02002821 	move	a1,s0
9d002bec:	0000f021 	move	s8,zero
9d002bf0:	3c109d01 	lui	s0,0x9d01
9d002bf4:	2610abcd 	addiu	s0,s0,-21555
9d002bf8:	3c159d00 	lui	s5,0x9d00
9d002bfc:	24a20001 	addiu	v0,a1,1
9d002c00:	afa200a0 	sw	v0,160(sp)
9d002c04:	80b10000 	lb	s1,0(a1)
9d002c08:	12200012 	beqz	s1,9d002c54 <do_scan+0xd4>
9d002c0c:	26b52d78 	addiu	s5,s5,11640
9d002c10:	17c00010 	bnez	s8,9d002c54 <do_scan+0xd4>
9d002c14:	24020025 	li	v0,37
9d002c18:	12220033 	beq	s1,v0,9d002ce8 <do_scan+0x168>
9d002c1c:	02301021 	addu	v0,s1,s0
9d002c20:	80420000 	lb	v0,0(v0)
9d002c24:	30420088 	andi	v0,v0,0x88
9d002c28:	10400021 	beqz	v0,9d002cb0 <do_scan+0x130>
9d002c2c:	27a40098 	addiu	a0,sp,152
9d002c30:	0f402e1c 	jal	9d00b870 <_eat_white>
9d002c34:	00000000 	nop
9d002c38:	0040f021 	move	s8,v0
9d002c3c:	8fa500a0 	lw	a1,160(sp)
9d002c40:	24a20001 	addiu	v0,a1,1
9d002c44:	afa200a0 	sw	v0,160(sp)
9d002c48:	80b10000 	lb	s1,0(a1)
9d002c4c:	1620fff0 	bnez	s1,9d002c10 <do_scan+0x90>
9d002c50:	00000000 	nop
9d002c54:	8fa4009c 	lw	a0,156(sp)
9d002c58:	2402ffff 	li	v0,-1
9d002c5c:	10820005 	beq	a0,v0,9d002c74 <do_scan+0xf4>
9d002c60:	00000000 	nop
9d002c64:	96620010 	lhu	v0,16(s3)
9d002c68:	30420080 	andi	v0,v0,0x80
9d002c6c:	1040008d 	beqz	v0,9d002ea4 <do_scan+0x324>
9d002c70:	2402ffff 	li	v0,-1
9d002c74:	13c20075 	beq	s8,v0,9d002e4c <do_scan+0x2cc>
9d002c78:	8fa200ac 	lw	v0,172(sp)
9d002c7c:	8fa200b0 	lw	v0,176(sp)
9d002c80:	8fbf00fc 	lw	ra,252(sp)
9d002c84:	8fbe00f8 	lw	s8,248(sp)
9d002c88:	8fb700f4 	lw	s7,244(sp)
9d002c8c:	8fb600f0 	lw	s6,240(sp)
9d002c90:	8fb500ec 	lw	s5,236(sp)
9d002c94:	8fb400e8 	lw	s4,232(sp)
9d002c98:	8fb300e4 	lw	s3,228(sp)
9d002c9c:	8fb200e0 	lw	s2,224(sp)
9d002ca0:	8fb100dc 	lw	s1,220(sp)
9d002ca4:	8fb000d8 	lw	s0,216(sp)
9d002ca8:	03e00008 	jr	ra
9d002cac:	27bd0100 	addiu	sp,sp,256
9d002cb0:	0f403036 	jal	9d00c0d8 <gsgetc>
9d002cb4:	00000000 	nop
9d002cb8:	2403ffff 	li	v1,-1
9d002cbc:	504301cf 	beql	v0,v1,9d0033fc <do_scan+0x87c>
9d002cc0:	241effff 	li	s8,-1
9d002cc4:	5222ffde 	beql	s1,v0,9d002c40 <do_scan+0xc0>
9d002cc8:	8fa500a0 	lw	a1,160(sp)
9d002ccc:	afa2009c 	sw	v0,156(sp)
9d002cd0:	241e0001 	li	s8,1
9d002cd4:	8fa200a8 	lw	v0,168(sp)
9d002cd8:	2442ffff 	addiu	v0,v0,-1
9d002cdc:	afa200a8 	sw	v0,168(sp)
9d002ce0:	0b400b10 	j	9d002c40 <do_scan+0xc0>
9d002ce4:	8fa500a0 	lw	a1,160(sp)
9d002ce8:	24a20002 	addiu	v0,a1,2
9d002cec:	afa200a0 	sw	v0,160(sp)
9d002cf0:	80b20001 	lb	s2,1(a1)
9d002cf4:	125101a2 	beq	s2,s1,9d003380 <do_scan+0x800>
9d002cf8:	2402002a 	li	v0,42
9d002cfc:	124200dd 	beq	s2,v0,9d003074 <do_scan+0x4f4>
9d002d00:	00008821 	move	s1,zero
9d002d04:	02121021 	addu	v0,s0,s2
9d002d08:	90420000 	lbu	v0,0(v0)
9d002d0c:	30420004 	andi	v0,v0,0x4
9d002d10:	144000c1 	bnez	v0,9d003018 <do_scan+0x498>
9d002d14:	3c167fff 	lui	s6,0x7fff
9d002d18:	36d6ffff 	ori	s6,s6,0xffff
9d002d1c:	24020068 	li	v0,104
9d002d20:	124200cc 	beq	s2,v0,9d003054 <do_scan+0x4d4>
9d002d24:	afb600d0 	sw	s6,208(sp)
9d002d28:	2a420069 	slti	v0,s2,105
9d002d2c:	144000b2 	bnez	v0,9d002ff8 <do_scan+0x478>
9d002d30:	2402006c 	li	v0,108
9d002d34:	12420054 	beq	s2,v0,9d002e88 <do_scan+0x308>
9d002d38:	8fa300a0 	lw	v1,160(sp)
9d002d3c:	24020071 	li	v0,113
9d002d40:	16420005 	bne	s2,v0,9d002d58 <do_scan+0x1d8>
9d002d44:	8fa200a0 	lw	v0,160(sp)
9d002d48:	36310800 	ori	s1,s1,0x800
9d002d4c:	24430001 	addiu	v1,v0,1
9d002d50:	afa300a0 	sw	v1,160(sp)
9d002d54:	80520000 	lb	s2,0(v0)
9d002d58:	2652ffbc 	addiu	s2,s2,-68
9d002d5c:	2e420035 	sltiu	v0,s2,53
9d002d60:	104001bf 	beqz	v0,9d003460 <do_scan+0x8e0>
9d002d64:	00129080 	sll	s2,s2,0x2
9d002d68:	02b29021 	addu	s2,s5,s2
9d002d6c:	8e420000 	lw	v0,0(s2)
9d002d70:	00400008 	jr	v0
9d002d74:	00000000 	nop
9d002d78:	9d002ec0 	0x9d002ec0
9d002d7c:	9d003190 	0x9d003190
9d002d80:	9d003190 	0x9d003190
9d002d84:	9d003190 	0x9d003190
9d002d88:	9d003460 	0x9d003460
9d002d8c:	9d003460 	0x9d003460
9d002d90:	9d003460 	0x9d003460
9d002d94:	9d003460 	0x9d003460
9d002d98:	9d003460 	0x9d003460
9d002d9c:	9d003460 	0x9d003460
9d002da0:	9d003460 	0x9d003460
9d002da4:	9d003180 	0x9d003180
9d002da8:	9d003460 	0x9d003460
9d002dac:	9d003460 	0x9d003460
9d002db0:	9d003460 	0x9d003460
9d002db4:	9d003460 	0x9d003460
9d002db8:	9d003460 	0x9d003460
9d002dbc:	9d003170 	0x9d003170
9d002dc0:	9d003460 	0x9d003460
9d002dc4:	9d003460 	0x9d003460
9d002dc8:	9d003164 	0x9d003164
9d002dcc:	9d003460 	0x9d003460
9d002dd0:	9d003460 	0x9d003460
9d002dd4:	9d0030d4 	0x9d0030d4
9d002dd8:	9d003460 	0x9d003460
9d002ddc:	9d003460 	0x9d003460
9d002de0:	9d003460 	0x9d003460
9d002de4:	9d003460 	0x9d003460
9d002de8:	9d003460 	0x9d003460
9d002dec:	9d003460 	0x9d003460
9d002df0:	9d003460 	0x9d003460
9d002df4:	9d003094 	0x9d003094
9d002df8:	9d002ec4 	0x9d002ec4
9d002dfc:	9d003190 	0x9d003190
9d002e00:	9d003190 	0x9d003190
9d002e04:	9d003190 	0x9d003190
9d002e08:	9d003460 	0x9d003460
9d002e0c:	9d0030fc 	0x9d0030fc
9d002e10:	9d003460 	0x9d003460
9d002e14:	9d003460 	0x9d003460
9d002e18:	9d003460 	0x9d003460
9d002e1c:	9d003460 	0x9d003460
9d002e20:	9d003108 	0x9d003108
9d002e24:	9d003088 	0x9d003088
9d002e28:	9d003164 	0x9d003164
9d002e2c:	9d003460 	0x9d003460
9d002e30:	9d003460 	0x9d003460
9d002e34:	9d003144 	0x9d003144
9d002e38:	9d003460 	0x9d003460
9d002e3c:	9d002ec8 	0x9d002ec8
9d002e40:	9d003460 	0x9d003460
9d002e44:	9d003460 	0x9d003460
9d002e48:	9d003164 	0x9d003164
9d002e4c:	1440ff8c 	bnez	v0,9d002c80 <do_scan+0x100>
9d002e50:	8fa200b0 	lw	v0,176(sp)
9d002e54:	2402ffff 	li	v0,-1
9d002e58:	8fbf00fc 	lw	ra,252(sp)
9d002e5c:	8fbe00f8 	lw	s8,248(sp)
9d002e60:	8fb700f4 	lw	s7,244(sp)
9d002e64:	8fb600f0 	lw	s6,240(sp)
9d002e68:	8fb500ec 	lw	s5,236(sp)
9d002e6c:	8fb400e8 	lw	s4,232(sp)
9d002e70:	8fb300e4 	lw	s3,228(sp)
9d002e74:	8fb200e0 	lw	s2,224(sp)
9d002e78:	8fb100dc 	lw	s1,220(sp)
9d002e7c:	8fb000d8 	lw	s0,216(sp)
9d002e80:	03e00008 	jr	ra
9d002e84:	27bd0100 	addiu	sp,sp,256
9d002e88:	24640001 	addiu	a0,v1,1
9d002e8c:	afa400a0 	sw	a0,160(sp)
9d002e90:	80720000 	lb	s2,0(v1)
9d002e94:	12420119 	beq	s2,v0,9d0032fc <do_scan+0x77c>
9d002e98:	24620002 	addiu	v0,v1,2
9d002e9c:	0b400b56 	j	9d002d58 <do_scan+0x1d8>
9d002ea0:	36310200 	ori	s1,s1,0x200
9d002ea4:	0f4029d0 	jal	9d00a740 <ungetc>
9d002ea8:	8fa50098 	lw	a1,152(sp)
9d002eac:	2402ffff 	li	v0,-1
9d002eb0:	57c2ff73 	bnel	s8,v0,9d002c80 <do_scan+0x100>
9d002eb4:	8fa200b0 	lw	v0,176(sp)
9d002eb8:	0b400b93 	j	9d002e4c <do_scan+0x2cc>
9d002ebc:	8fa200ac 	lw	v0,172(sp)
9d002ec0:	36310200 	ori	s1,s1,0x200
9d002ec4:	36311000 	ori	s1,s1,0x1000
9d002ec8:	2403000a 	li	v1,10
9d002ecc:	afa300d4 	sw	v1,212(sp)
9d002ed0:	0f402e1c 	jal	9d00b870 <_eat_white>
9d002ed4:	27a40098 	addiu	a0,sp,152
9d002ed8:	1440ff58 	bnez	v0,9d002c3c <do_scan+0xbc>
9d002edc:	0040f021 	move	s8,v0
9d002ee0:	27a40018 	addiu	a0,sp,24
9d002ee4:	afa400cc 	sw	a0,204(sp)
9d002ee8:	8fa200d0 	lw	v0,208(sp)
9d002eec:	1440010b 	bnez	v0,9d00331c <do_scan+0x79c>
9d002ef0:	00009021 	move	s2,zero
9d002ef4:	27b60018 	addiu	s6,sp,24
9d002ef8:	8fa300d4 	lw	v1,212(sp)
9d002efc:	106000fa 	beqz	v1,9d0032e8 <do_scan+0x768>
9d002f00:	2417ffff 	li	s7,-1
9d002f04:	24020010 	li	v0,16
9d002f08:	8fa300d4 	lw	v1,212(sp)
9d002f0c:	1062015a 	beq	v1,v0,9d003478 <do_scan+0x8f8>
9d002f10:	24020030 	li	v0,48
9d002f14:	24020008 	li	v0,8
9d002f18:	8fa300d4 	lw	v1,212(sp)
9d002f1c:	146200f5 	bne	v1,v0,9d0032f4 <do_scan+0x774>
9d002f20:	3c029d01 	lui	v0,0x9d01
9d002f24:	24030008 	li	v1,8
9d002f28:	afa300d4 	sw	v1,212(sp)
9d002f2c:	3c049d01 	lui	a0,0x9d01
9d002f30:	2494c658 	addiu	s4,a0,-14760
9d002f34:	2403ffff 	li	v1,-1
9d002f38:	12e30009 	beq	s7,v1,9d002f60 <do_scan+0x3e0>
9d002f3c:	02802021 	move	a0,s4
9d002f40:	0f402c35 	jal	9d00b0d4 <strchr>
9d002f44:	02e02821 	move	a1,s7
9d002f48:	1040011d 	beqz	v0,9d0033c0 <do_scan+0x840>
9d002f4c:	26c20001 	addiu	v0,s6,1
9d002f50:	afa200cc 	sw	v0,204(sp)
9d002f54:	16400121 	bnez	s2,9d0033dc <do_scan+0x85c>
9d002f58:	a2d70000 	sb	s7,0(s6)
9d002f5c:	8fb600cc 	lw	s6,204(sp)
9d002f60:	a2c00000 	sb	zero,0(s6)
9d002f64:	2417ffff 	li	s7,-1
9d002f68:	32340800 	andi	s4,s1,0x800
9d002f6c:	32361000 	andi	s6,s1,0x1000
9d002f70:	27a40018 	addiu	a0,sp,24
9d002f74:	27a500cc 	addiu	a1,sp,204
9d002f78:	1280010a 	beqz	s4,9d0033a4 <do_scan+0x824>
9d002f7c:	8fa600d4 	lw	a2,212(sp)
9d002f80:	12c00126 	beqz	s6,9d00341c <do_scan+0x89c>
9d002f84:	00000000 	nop
9d002f88:	0f401eb3 	jal	9d007acc <.LFE23>
9d002f8c:	00000000 	nop
9d002f90:	00402021 	move	a0,v0
9d002f94:	00602821 	move	a1,v1
9d002f98:	00001021 	move	v0,zero
9d002f9c:	8fa300ac 	lw	v1,172(sp)
9d002fa0:	24630001 	addiu	v1,v1,1
9d002fa4:	afa300ac 	sw	v1,172(sp)
9d002fa8:	8fa300d0 	lw	v1,208(sp)
9d002fac:	10720115 	beq	v1,s2,9d003404 <do_scan+0x884>
9d002fb0:	32230001 	andi	v1,s1,0x1
9d002fb4:	5460ff22 	bnezl	v1,9d002c40 <do_scan+0xc0>
9d002fb8:	8fa500a0 	lw	a1,160(sp)
9d002fbc:	56800122 	bnezl	s4,9d003448 <do_scan+0x8c8>
9d002fc0:	8fa200a4 	lw	v0,164(sp)
9d002fc4:	32230200 	andi	v1,s1,0x200
9d002fc8:	10600171 	beqz	v1,9d003590 <do_scan+0xa10>
9d002fcc:	32230100 	andi	v1,s1,0x100
9d002fd0:	8fa300a4 	lw	v1,164(sp)
9d002fd4:	24640004 	addiu	a0,v1,4
9d002fd8:	afa400a4 	sw	a0,164(sp)
9d002fdc:	8c630000 	lw	v1,0(v1)
9d002fe0:	ac620000 	sw	v0,0(v1)
9d002fe4:	8fa200b0 	lw	v0,176(sp)
9d002fe8:	24420001 	addiu	v0,v0,1
9d002fec:	afa200b0 	sw	v0,176(sp)
9d002ff0:	0b400b10 	j	9d002c40 <do_scan+0xc0>
9d002ff4:	8fa500a0 	lw	a1,160(sp)
9d002ff8:	2402004c 	li	v0,76
9d002ffc:	1642ff56 	bne	s2,v0,9d002d58 <do_scan+0x1d8>
9d003000:	8fa200a0 	lw	v0,160(sp)
9d003004:	36310400 	ori	s1,s1,0x400
9d003008:	24430001 	addiu	v1,v0,1
9d00300c:	afa300a0 	sw	v1,160(sp)
9d003010:	0b400b56 	j	9d002d58 <do_scan+0x1d8>
9d003014:	80520000 	lb	s2,0(v0)
9d003018:	27a500a0 	addiu	a1,sp,160
9d00301c:	2406000a 	li	a2,10
9d003020:	8fa200a0 	lw	v0,160(sp)
9d003024:	2442ffff 	addiu	v0,v0,-1
9d003028:	00402021 	move	a0,v0
9d00302c:	0f402345 	jal	9d008d14 <strtoul>
9d003030:	afa200a0 	sw	v0,160(sp)
9d003034:	afa200d0 	sw	v0,208(sp)
9d003038:	8fa200a0 	lw	v0,160(sp)
9d00303c:	24430001 	addiu	v1,v0,1
9d003040:	afa300a0 	sw	v1,160(sp)
9d003044:	80520000 	lb	s2,0(v0)
9d003048:	24020068 	li	v0,104
9d00304c:	5642ff37 	bnel	s2,v0,9d002d2c <do_scan+0x1ac>
9d003050:	2a420069 	slti	v0,s2,105
9d003054:	8fa300a0 	lw	v1,160(sp)
9d003058:	24640001 	addiu	a0,v1,1
9d00305c:	afa400a0 	sw	a0,160(sp)
9d003060:	80720000 	lb	s2,0(v1)
9d003064:	124200a9 	beq	s2,v0,9d00330c <do_scan+0x78c>
9d003068:	24620002 	addiu	v0,v1,2
9d00306c:	0b400b56 	j	9d002d58 <do_scan+0x1d8>
9d003070:	36310100 	ori	s1,s1,0x100
9d003074:	24a20003 	addiu	v0,a1,3
9d003078:	afa200a0 	sw	v0,160(sp)
9d00307c:	80b20002 	lb	s2,2(a1)
9d003080:	0b400b41 	j	9d002d04 <do_scan+0x184>
9d003084:	24110001 	li	s1,1
9d003088:	24030008 	li	v1,8
9d00308c:	0b400bb4 	j	9d002ed0 <do_scan+0x350>
9d003090:	afa300d4 	sw	v1,212(sp)
9d003094:	3c077fff 	lui	a3,0x7fff
9d003098:	34e7ffff 	ori	a3,a3,0xffff
9d00309c:	8fa300d0 	lw	v1,208(sp)
9d0030a0:	00673826 	xor	a3,v1,a3
9d0030a4:	27a20098 	addiu	v0,sp,152
9d0030a8:	afa20010 	sw	v0,16(sp)
9d0030ac:	00002021 	move	a0,zero
9d0030b0:	00002821 	move	a1,zero
9d0030b4:	02203021 	move	a2,s1
9d0030b8:	24020001 	li	v0,1
9d0030bc:	0047180a 	movz	v1,v0,a3
9d0030c0:	0f4022a4 	jal	9d008a90 <.LFE10>
9d0030c4:	00603821 	move	a3,v1
9d0030c8:	0040f021 	move	s8,v0
9d0030cc:	0b400b10 	j	9d002c40 <do_scan+0xc0>
9d0030d0:	8fa500a0 	lw	a1,160(sp)
9d0030d4:	27a20098 	addiu	v0,sp,152
9d0030d8:	afa20010 	sw	v0,16(sp)
9d0030dc:	24040002 	li	a0,2
9d0030e0:	24050001 	li	a1,1
9d0030e4:	02203021 	move	a2,s1
9d0030e8:	0f4022a4 	jal	9d008a90 <.LFE10>
9d0030ec:	8fa700d0 	lw	a3,208(sp)
9d0030f0:	0040f021 	move	s8,v0
9d0030f4:	0b400b10 	j	9d002c40 <do_scan+0xc0>
9d0030f8:	8fa500a0 	lw	a1,160(sp)
9d0030fc:	36311000 	ori	s1,s1,0x1000
9d003100:	0b400bb4 	j	9d002ed0 <do_scan+0x350>
9d003104:	afa000d4 	sw	zero,212(sp)
9d003108:	32220001 	andi	v0,s1,0x1
9d00310c:	1440fecc 	bnez	v0,9d002c40 <do_scan+0xc0>
9d003110:	8fa500a0 	lw	a1,160(sp)
9d003114:	32230800 	andi	v1,s1,0x800
9d003118:	10600113 	beqz	v1,9d003568 <do_scan+0x9e8>
9d00311c:	8fa200a8 	lw	v0,168(sp)
9d003120:	8fa300a4 	lw	v1,164(sp)
9d003124:	000227c3 	sra	a0,v0,0x1f
9d003128:	24650004 	addiu	a1,v1,4
9d00312c:	afa500a4 	sw	a1,164(sp)
9d003130:	8c630000 	lw	v1,0(v1)
9d003134:	ac620000 	sw	v0,0(v1)
9d003138:	ac640004 	sw	a0,4(v1)
9d00313c:	0b400b10 	j	9d002c40 <do_scan+0xc0>
9d003140:	8fa500a0 	lw	a1,160(sp)
9d003144:	0f402e1c 	jal	9d00b870 <_eat_white>
9d003148:	27a40098 	addiu	a0,sp,152
9d00314c:	1440febb 	bnez	v0,9d002c3c <do_scan+0xbc>
9d003150:	0040f021 	move	s8,v0
9d003154:	27a20098 	addiu	v0,sp,152
9d003158:	afa20010 	sw	v0,16(sp)
9d00315c:	0b400c38 	j	9d0030e0 <do_scan+0x560>
9d003160:	24040001 	li	a0,1
9d003164:	24030010 	li	v1,16
9d003168:	0b400bb4 	j	9d002ed0 <do_scan+0x350>
9d00316c:	afa300d4 	sw	v1,212(sp)
9d003170:	36310200 	ori	s1,s1,0x200
9d003174:	2403000a 	li	v1,10
9d003178:	0b400bb4 	j	9d002ed0 <do_scan+0x350>
9d00317c:	afa300d4 	sw	v1,212(sp)
9d003180:	36310200 	ori	s1,s1,0x200
9d003184:	24030008 	li	v1,8
9d003188:	0b400bb4 	j	9d002ed0 <do_scan+0x350>
9d00318c:	afa300d4 	sw	v1,212(sp)
9d003190:	0f402e1c 	jal	9d00b870 <_eat_white>
9d003194:	27a40098 	addiu	a0,sp,152
9d003198:	1440fea8 	bnez	v0,9d002c3c <do_scan+0xbc>
9d00319c:	0040f021 	move	s8,v0
9d0031a0:	8fa400d0 	lw	a0,208(sp)
9d0031a4:	afa400b8 	sw	a0,184(sp)
9d0031a8:	27a20098 	addiu	v0,sp,152
9d0031ac:	afa200b4 	sw	v0,180(sp)
9d0031b0:	27a20018 	addiu	v0,sp,24
9d0031b4:	afa200bc 	sw	v0,188(sp)
9d0031b8:	afa000c0 	sw	zero,192(sp)
9d0031bc:	24020080 	li	v0,128
9d0031c0:	afa200c4 	sw	v0,196(sp)
9d0031c4:	1480010a 	bnez	a0,9d0035f0 <do_scan+0xa70>
9d0031c8:	afa000c8 	sw	zero,200(sp)
9d0031cc:	3c049d01 	lui	a0,0x9d01
9d0031d0:	2482abcc 	addiu	v0,a0,-21556
9d0031d4:	2416ffff 	li	s6,-1
9d0031d8:	0000a021 	move	s4,zero
9d0031dc:	0b400c7d 	j	9d0031f4 <do_scan+0x674>
9d0031e0:	27b200b4 	addiu	s2,sp,180
9d0031e4:	0f402ab0 	jal	9d00aac0 <putget.2782>
9d0031e8:	02c02021 	move	a0,s6
9d0031ec:	0040b021 	move	s6,v0
9d0031f0:	02021021 	addu	v0,s0,v0
9d0031f4:	90420000 	lbu	v0,0(v0)
9d0031f8:	30420004 	andi	v0,v0,0x4
9d0031fc:	1440fff9 	bnez	v0,9d0031e4 <do_scan+0x664>
9d003200:	02407821 	move	t7,s2
9d003204:	2402002e 	li	v0,46
9d003208:	12c20136 	beq	s6,v0,9d0036e4 <do_scan+0xb64>
9d00320c:	8fa200c8 	lw	v0,200(sp)
9d003210:	00541023 	subu	v0,v0,s4
9d003214:	18400005 	blez	v0,9d00322c <do_scan+0x6ac>
9d003218:	2404ffdf 	li	a0,-33
9d00321c:	02c41824 	and	v1,s6,a0
9d003220:	24020045 	li	v0,69
9d003224:	1062010b 	beq	v1,v0,9d003654 <do_scan+0xad4>
9d003228:	02407821 	move	t7,s2
9d00322c:	02407821 	move	t7,s2
9d003230:	0f402ab0 	jal	9d00aac0 <putget.2782>
9d003234:	00002021 	move	a0,zero
9d003238:	2402ffff 	li	v0,-1
9d00323c:	12c20008 	beq	s6,v0,9d003260 <do_scan+0x6e0>
9d003240:	8fa200b4 	lw	v0,180(sp)
9d003244:	8c430010 	lw	v1,16(v0)
9d003248:	8fa400b8 	lw	a0,184(sp)
9d00324c:	24840001 	addiu	a0,a0,1
9d003250:	afa400b8 	sw	a0,184(sp)
9d003254:	2463ffff 	addiu	v1,v1,-1
9d003258:	ac560004 	sw	s6,4(v0)
9d00325c:	ac430010 	sw	v1,16(v0)
9d003260:	8fa200c8 	lw	v0,200(sp)
9d003264:	0054a023 	subu	s4,v0,s4
9d003268:	1a8000f8 	blez	s4,9d00364c <do_scan+0xacc>
9d00326c:	8fa200b4 	lw	v0,180(sp)
9d003270:	32230001 	andi	v1,s1,0x1
9d003274:	8c440014 	lw	a0,20(v0)
9d003278:	24840001 	addiu	a0,a0,1
9d00327c:	14600012 	bnez	v1,9d0032c8 <do_scan+0x748>
9d003280:	ac440014 	sw	a0,20(v0)
9d003284:	32230400 	andi	v1,s1,0x400
9d003288:	1460012a 	bnez	v1,9d003734 <do_scan+0xbb4>
9d00328c:	8fa400bc 	lw	a0,188(sp)
9d003290:	32310200 	andi	s1,s1,0x200
9d003294:	8c43000c 	lw	v1,12(v0)
9d003298:	00002821 	move	a1,zero
9d00329c:	24660004 	addiu	a2,v1,4
9d0032a0:	1220011d 	beqz	s1,9d003718 <do_scan+0xb98>
9d0032a4:	ac46000c 	sw	a2,12(v0)
9d0032a8:	0f4031f5 	jal	9d00c7d4 <strtod>
9d0032ac:	8c710000 	lw	s1,0(v1)
9d0032b0:	ae220000 	sw	v0,0(s1)
9d0032b4:	ae230004 	sw	v1,4(s1)
9d0032b8:	8fa200b4 	lw	v0,180(sp)
9d0032bc:	8c430018 	lw	v1,24(v0)
9d0032c0:	24630001 	addiu	v1,v1,1
9d0032c4:	ac430018 	sw	v1,24(v0)
9d0032c8:	8fa400c0 	lw	a0,192(sp)
9d0032cc:	5080fe5c 	beqzl	a0,9d002c40 <do_scan+0xc0>
9d0032d0:	8fa500a0 	lw	a1,160(sp)
9d0032d4:	0f4023e5 	jal	9d008f94 <free>
9d0032d8:	00000000 	nop
9d0032dc:	0b400b10 	j	9d002c40 <do_scan+0xc0>
9d0032e0:	8fa500a0 	lw	a1,160(sp)
9d0032e4:	2417ffff 	li	s7,-1
9d0032e8:	2403000a 	li	v1,10
9d0032ec:	afa300d4 	sw	v1,212(sp)
9d0032f0:	3c029d01 	lui	v0,0x9d01
9d0032f4:	0b400bcd 	j	9d002f34 <do_scan+0x3b4>
9d0032f8:	2454c67c 	addiu	s4,v0,-14724
9d0032fc:	afa200a0 	sw	v0,160(sp)
9d003300:	80720001 	lb	s2,1(v1)
9d003304:	0b400b56 	j	9d002d58 <do_scan+0x1d8>
9d003308:	36310800 	ori	s1,s1,0x800
9d00330c:	afa200a0 	sw	v0,160(sp)
9d003310:	80720001 	lb	s2,1(v1)
9d003314:	0b400b56 	j	9d002d58 <do_scan+0x1d8>
9d003318:	36310080 	ori	s1,s1,0x80
9d00331c:	0f403036 	jal	9d00c0d8 <gsgetc>
9d003320:	27a40098 	addiu	a0,sp,152
9d003324:	0040b821 	move	s7,v0
9d003328:	2402ffff 	li	v0,-1
9d00332c:	12e2004f 	beq	s7,v0,9d00346c <do_scan+0x8ec>
9d003330:	8fa300d0 	lw	v1,208(sp)
9d003334:	2402002b 	li	v0,43
9d003338:	16e2010a 	bne	s7,v0,9d003764 <do_scan+0xbe4>
9d00333c:	2472ffff 	addiu	s2,v1,-1
9d003340:	8fa200cc 	lw	v0,204(sp)
9d003344:	24430001 	addiu	v1,v0,1
9d003348:	afa300cc 	sw	v1,204(sp)
9d00334c:	16400063 	bnez	s2,9d0034dc <do_scan+0x95c>
9d003350:	a0570000 	sb	s7,0(v0)
9d003354:	8fa300d4 	lw	v1,212(sp)
9d003358:	1060ffe2 	beqz	v1,9d0032e4 <do_scan+0x764>
9d00335c:	8fb600cc 	lw	s6,204(sp)
9d003360:	24020010 	li	v0,16
9d003364:	1462feeb 	bne	v1,v0,9d002f14 <do_scan+0x394>
9d003368:	2417ffff 	li	s7,-1
9d00336c:	24030010 	li	v1,16
9d003370:	afa300d4 	sw	v1,212(sp)
9d003374:	3c049d01 	lui	a0,0x9d01
9d003378:	0b400bcd 	j	9d002f34 <do_scan+0x3b4>
9d00337c:	2494c664 	addiu	s4,a0,-14748
9d003380:	0f403036 	jal	9d00c0d8 <gsgetc>
9d003384:	27a40098 	addiu	a0,sp,152
9d003388:	2403ffff 	li	v1,-1
9d00338c:	5043001b 	beql	v0,v1,9d0033fc <do_scan+0x87c>
9d003390:	241effff 	li	s8,-1
9d003394:	5452fe4e 	bnel	v0,s2,9d002cd0 <do_scan+0x150>
9d003398:	afa2009c 	sw	v0,156(sp)
9d00339c:	0b400b10 	j	9d002c40 <do_scan+0xc0>
9d0033a0:	8fa500a0 	lw	a1,160(sp)
9d0033a4:	12c00023 	beqz	s6,9d003434 <do_scan+0x8b4>
9d0033a8:	00000000 	nop
9d0033ac:	0f402484 	jal	9d009210 <strtol>
9d0033b0:	00000000 	nop
9d0033b4:	00002021 	move	a0,zero
9d0033b8:	0b400be7 	j	9d002f9c <do_scan+0x41c>
9d0033bc:	00002821 	move	a1,zero
9d0033c0:	a2c00000 	sb	zero,0(s6)
9d0033c4:	26520001 	addiu	s2,s2,1
9d0033c8:	afb7009c 	sw	s7,156(sp)
9d0033cc:	8fa200a8 	lw	v0,168(sp)
9d0033d0:	2442ffff 	addiu	v0,v0,-1
9d0033d4:	0b400bda 	j	9d002f68 <do_scan+0x3e8>
9d0033d8:	afa200a8 	sw	v0,168(sp)
9d0033dc:	0f403036 	jal	9d00c0d8 <gsgetc>
9d0033e0:	27a40098 	addiu	a0,sp,152
9d0033e4:	0040b821 	move	s7,v0
9d0033e8:	00021027 	nor	v0,zero,v0
9d0033ec:	8fb600cc 	lw	s6,204(sp)
9d0033f0:	0002102b 	sltu	v0,zero,v0
9d0033f4:	0b400bcd 	j	9d002f34 <do_scan+0x3b4>
9d0033f8:	02429023 	subu	s2,s2,v0
9d0033fc:	0b400b10 	j	9d002c40 <do_scan+0xc0>
9d003400:	8fa500a0 	lw	a1,160(sp)
9d003404:	241effff 	li	s8,-1
9d003408:	00174027 	nor	t0,zero,s7
9d00340c:	24020001 	li	v0,1
9d003410:	0048f00b 	movn	s8,v0,t0
9d003414:	0b400b10 	j	9d002c40 <do_scan+0xc0>
9d003418:	8fa500a0 	lw	a1,160(sp)
9d00341c:	0f402136 	jal	9d0084d8 <strtoull>
9d003420:	00000000 	nop
9d003424:	00402021 	move	a0,v0
9d003428:	00602821 	move	a1,v1
9d00342c:	0b400be7 	j	9d002f9c <do_scan+0x41c>
9d003430:	00001021 	move	v0,zero
9d003434:	0f402345 	jal	9d008d14 <strtoul>
9d003438:	00000000 	nop
9d00343c:	00002021 	move	a0,zero
9d003440:	0b400be7 	j	9d002f9c <do_scan+0x41c>
9d003444:	00002821 	move	a1,zero
9d003448:	24430004 	addiu	v1,v0,4
9d00344c:	afa300a4 	sw	v1,164(sp)
9d003450:	8c420000 	lw	v0,0(v0)
9d003454:	ac440000 	sw	a0,0(v0)
9d003458:	0b400bf9 	j	9d002fe4 <do_scan+0x464>
9d00345c:	ac450004 	sw	a1,4(v0)
9d003460:	241e0001 	li	s8,1
9d003464:	0b400b10 	j	9d002c40 <do_scan+0xc0>
9d003468:	8fa500a0 	lw	a1,160(sp)
9d00346c:	8fb600cc 	lw	s6,204(sp)
9d003470:	0b400bbe 	j	9d002ef8 <do_scan+0x378>
9d003474:	8fb200d0 	lw	s2,208(sp)
9d003478:	16e2ffbd 	bne	s7,v0,9d003370 <do_scan+0x7f0>
9d00347c:	24030010 	li	v1,16
9d003480:	26c20001 	addiu	v0,s6,1
9d003484:	afa200cc 	sw	v0,204(sp)
9d003488:	16400004 	bnez	s2,9d00349c <do_scan+0x91c>
9d00348c:	a2d70000 	sb	s7,0(s6)
9d003490:	8fb600cc 	lw	s6,204(sp)
9d003494:	0b400cdb 	j	9d00336c <do_scan+0x7ec>
9d003498:	2417ffff 	li	s7,-1
9d00349c:	0f403036 	jal	9d00c0d8 <gsgetc>
9d0034a0:	27a40098 	addiu	a0,sp,152
9d0034a4:	2416ffff 	li	s6,-1
9d0034a8:	1056fff9 	beq	v0,s6,9d003490 <do_scan+0x910>
9d0034ac:	0040b821 	move	s7,v0
9d0034b0:	2404ffdf 	li	a0,-33
9d0034b4:	00441824 	and	v1,v0,a0
9d0034b8:	24020058 	li	v0,88
9d0034bc:	146200a6 	bne	v1,v0,9d003758 <do_scan+0xbd8>
9d0034c0:	2654ffff 	addiu	s4,s2,-1
9d0034c4:	16800080 	bnez	s4,9d0036c8 <do_scan+0xb48>
9d0034c8:	00000000 	nop
9d0034cc:	8fb600cc 	lw	s6,204(sp)
9d0034d0:	00009021 	move	s2,zero
9d0034d4:	0b400cdb 	j	9d00336c <do_scan+0x7ec>
9d0034d8:	2417ffff 	li	s7,-1
9d0034dc:	0f403036 	jal	9d00c0d8 <gsgetc>
9d0034e0:	27a40098 	addiu	a0,sp,152
9d0034e4:	0040b821 	move	s7,v0
9d0034e8:	2402ffff 	li	v0,-1
9d0034ec:	12e2ff9a 	beq	s7,v0,9d003358 <do_scan+0x7d8>
9d0034f0:	8fa300d4 	lw	v1,212(sp)
9d0034f4:	8fb600cc 	lw	s6,204(sp)
9d0034f8:	8fa400d0 	lw	a0,208(sp)
9d0034fc:	2492fffe 	addiu	s2,a0,-2
9d003500:	8fa300d4 	lw	v1,212(sp)
9d003504:	1460fe81 	bnez	v1,9d002f0c <do_scan+0x38c>
9d003508:	24020010 	li	v0,16
9d00350c:	24020030 	li	v0,48
9d003510:	16e2ff76 	bne	s7,v0,9d0032ec <do_scan+0x76c>
9d003514:	2403000a 	li	v1,10
9d003518:	26c20001 	addiu	v0,s6,1
9d00351c:	afa200cc 	sw	v0,204(sp)
9d003520:	16400004 	bnez	s2,9d003534 <do_scan+0x9b4>
9d003524:	a2d70000 	sb	s7,0(s6)
9d003528:	2417ffff 	li	s7,-1
9d00352c:	0b400bc9 	j	9d002f24 <do_scan+0x3a4>
9d003530:	8fb600cc 	lw	s6,204(sp)
9d003534:	0f403036 	jal	9d00c0d8 <gsgetc>
9d003538:	27a40098 	addiu	a0,sp,152
9d00353c:	2416ffff 	li	s6,-1
9d003540:	1056fff9 	beq	v0,s6,9d003528 <do_scan+0x9a8>
9d003544:	0040b821 	move	s7,v0
9d003548:	2404ffdf 	li	a0,-33
9d00354c:	00441824 	and	v1,v0,a0
9d003550:	24020058 	li	v0,88
9d003554:	1062ffdb 	beq	v1,v0,9d0034c4 <do_scan+0x944>
9d003558:	2654ffff 	addiu	s4,s2,-1
9d00355c:	02809021 	move	s2,s4
9d003560:	0b400bc9 	j	9d002f24 <do_scan+0x3a4>
9d003564:	8fb600cc 	lw	s6,204(sp)
9d003568:	32230200 	andi	v1,s1,0x200
9d00356c:	10600010 	beqz	v1,9d0035b0 <do_scan+0xa30>
9d003570:	32230100 	andi	v1,s1,0x100
9d003574:	8fa300a4 	lw	v1,164(sp)
9d003578:	24640004 	addiu	a0,v1,4
9d00357c:	afa400a4 	sw	a0,164(sp)
9d003580:	8c630000 	lw	v1,0(v1)
9d003584:	ac620000 	sw	v0,0(v1)
9d003588:	0b400b10 	j	9d002c40 <do_scan+0xc0>
9d00358c:	8fa500a0 	lw	a1,160(sp)
9d003590:	10600010 	beqz	v1,9d0035d4 <do_scan+0xa54>
9d003594:	32310080 	andi	s1,s1,0x80
9d003598:	8fa300a4 	lw	v1,164(sp)
9d00359c:	24640004 	addiu	a0,v1,4
9d0035a0:	afa400a4 	sw	a0,164(sp)
9d0035a4:	8c630000 	lw	v1,0(v1)
9d0035a8:	0b400bf9 	j	9d002fe4 <do_scan+0x464>
9d0035ac:	a4620000 	sh	v0,0(v1)
9d0035b0:	1060003d 	beqz	v1,9d0036a8 <do_scan+0xb28>
9d0035b4:	32310080 	andi	s1,s1,0x80
9d0035b8:	8fa300a4 	lw	v1,164(sp)
9d0035bc:	24640004 	addiu	a0,v1,4
9d0035c0:	afa400a4 	sw	a0,164(sp)
9d0035c4:	8c630000 	lw	v1,0(v1)
9d0035c8:	a4620000 	sh	v0,0(v1)
9d0035cc:	0b400b10 	j	9d002c40 <do_scan+0xc0>
9d0035d0:	8fa500a0 	lw	a1,160(sp)
9d0035d4:	8fa300a4 	lw	v1,164(sp)
9d0035d8:	24640004 	addiu	a0,v1,4
9d0035dc:	afa400a4 	sw	a0,164(sp)
9d0035e0:	1220002f 	beqz	s1,9d0036a0 <do_scan+0xb20>
9d0035e4:	8c630000 	lw	v1,0(v1)
9d0035e8:	0b400bf9 	j	9d002fe4 <do_scan+0x464>
9d0035ec:	a0620000 	sb	v0,0(v1)
9d0035f0:	0f403036 	jal	9d00c0d8 <gsgetc>
9d0035f4:	27a40098 	addiu	a0,sp,152
9d0035f8:	0040b021 	move	s6,v0
9d0035fc:	2402ffff 	li	v0,-1
9d003600:	52c2fef3 	beql	s6,v0,9d0031d0 <do_scan+0x650>
9d003604:	3c049d01 	lui	a0,0x9d01
9d003608:	8fa200b8 	lw	v0,184(sp)
9d00360c:	2442ffff 	addiu	v0,v0,-1
9d003610:	afa200b8 	sw	v0,184(sp)
9d003614:	2402002b 	li	v0,43
9d003618:	56c20057 	bnel	s6,v0,9d003778 <do_scan+0xbf8>
9d00361c:	2402002d 	li	v0,45
9d003620:	27b200b4 	addiu	s2,sp,180
9d003624:	02407821 	move	t7,s2
9d003628:	0f402ab0 	jal	9d00aac0 <putget.2782>
9d00362c:	02c02021 	move	a0,s6
9d003630:	0040b021 	move	s6,v0
9d003634:	24420001 	addiu	v0,v0,1
9d003638:	3c049d01 	lui	a0,0x9d01
9d00363c:	2483abcc 	addiu	v1,a0,-21556
9d003640:	00621021 	addu	v0,v1,v0
9d003644:	0b400c7d 	j	9d0031f4 <do_scan+0x674>
9d003648:	24140001 	li	s4,1
9d00364c:	0b400cb2 	j	9d0032c8 <do_scan+0x748>
9d003650:	241e0001 	li	s8,1
9d003654:	0f402ab0 	jal	9d00aac0 <putget.2782>
9d003658:	02c02021 	move	a0,s6
9d00365c:	0040b021 	move	s6,v0
9d003660:	2402002d 	li	v0,45
9d003664:	12c20003 	beq	s6,v0,9d003674 <do_scan+0xaf4>
9d003668:	2402002b 	li	v0,43
9d00366c:	16c20006 	bne	s6,v0,9d003688 <do_scan+0xb08>
9d003670:	02161021 	addu	v0,s0,s6
9d003674:	02407821 	move	t7,s2
9d003678:	0f402ab0 	jal	9d00aac0 <putget.2782>
9d00367c:	02c02021 	move	a0,s6
9d003680:	0040b021 	move	s6,v0
9d003684:	02161021 	addu	v0,s0,s6
9d003688:	90420000 	lbu	v0,0(v0)
9d00368c:	30420004 	andi	v0,v0,0x4
9d003690:	1440fff9 	bnez	v0,9d003678 <do_scan+0xaf8>
9d003694:	02407821 	move	t7,s2
9d003698:	0b400c8c 	j	9d003230 <do_scan+0x6b0>
9d00369c:	00000000 	nop
9d0036a0:	0b400bf9 	j	9d002fe4 <do_scan+0x464>
9d0036a4:	ac620000 	sw	v0,0(v1)
9d0036a8:	8fa300a4 	lw	v1,164(sp)
9d0036ac:	24640004 	addiu	a0,v1,4
9d0036b0:	afa400a4 	sw	a0,164(sp)
9d0036b4:	1220001c 	beqz	s1,9d003728 <do_scan+0xba8>
9d0036b8:	8c630000 	lw	v1,0(v1)
9d0036bc:	a0620000 	sb	v0,0(v1)
9d0036c0:	0b400b10 	j	9d002c40 <do_scan+0xc0>
9d0036c4:	8fa500a0 	lw	a1,160(sp)
9d0036c8:	0f403036 	jal	9d00c0d8 <gsgetc>
9d0036cc:	27a40098 	addiu	a0,sp,152
9d0036d0:	10560021 	beq	v0,s6,9d003758 <do_scan+0xbd8>
9d0036d4:	0040b821 	move	s7,v0
9d0036d8:	2652fffe 	addiu	s2,s2,-2
9d0036dc:	0b400cdb 	j	9d00336c <do_scan+0x7ec>
9d0036e0:	8fb600cc 	lw	s6,204(sp)
9d0036e4:	0b400dbc 	j	9d0036f0 <do_scan+0xb70>
9d0036e8:	2404002e 	li	a0,46
9d0036ec:	02c02021 	move	a0,s6
9d0036f0:	0f402ab0 	jal	9d00aac0 <putget.2782>
9d0036f4:	00000000 	nop
9d0036f8:	0040b021 	move	s6,v0
9d0036fc:	02021021 	addu	v0,s0,v0
9d003700:	90420000 	lbu	v0,0(v0)
9d003704:	30420004 	andi	v0,v0,0x4
9d003708:	1440fff8 	bnez	v0,9d0036ec <do_scan+0xb6c>
9d00370c:	02407821 	move	t7,s2
9d003710:	0b400c84 	j	9d003210 <do_scan+0x690>
9d003714:	8fa200c8 	lw	v0,200(sp)
9d003718:	0f4031fc 	jal	9d00c7f0 <strtof>
9d00371c:	8c710000 	lw	s1,0(v1)
9d003720:	0b400cae 	j	9d0032b8 <do_scan+0x738>
9d003724:	ae220000 	sw	v0,0(s1)
9d003728:	ac620000 	sw	v0,0(v1)
9d00372c:	0b400b10 	j	9d002c40 <do_scan+0xc0>
9d003730:	8fa500a0 	lw	a1,160(sp)
9d003734:	8c43000c 	lw	v1,12(v0)
9d003738:	00002821 	move	a1,zero
9d00373c:	24660004 	addiu	a2,v1,4
9d003740:	ac46000c 	sw	a2,12(v0)
9d003744:	0f4031f5 	jal	9d00c7d4 <strtod>
9d003748:	8c710000 	lw	s1,0(v1)
9d00374c:	ae220000 	sw	v0,0(s1)
9d003750:	0b400cae 	j	9d0032b8 <do_scan+0x738>
9d003754:	ae230004 	sw	v1,4(s1)
9d003758:	8fb600cc 	lw	s6,204(sp)
9d00375c:	0b400cdb 	j	9d00336c <do_scan+0x7ec>
9d003760:	02809021 	move	s2,s4
9d003764:	2402002d 	li	v0,45
9d003768:	12e2fef6 	beq	s7,v0,9d003344 <do_scan+0x7c4>
9d00376c:	8fa200cc 	lw	v0,204(sp)
9d003770:	0b400d40 	j	9d003500 <do_scan+0x980>
9d003774:	8fb600cc 	lw	s6,204(sp)
9d003778:	52c2ffaa 	beql	s6,v0,9d003624 <do_scan+0xaa4>
9d00377c:	27b200b4 	addiu	s2,sp,180
9d003780:	26c20001 	addiu	v0,s6,1
9d003784:	3c049d01 	lui	a0,0x9d01
9d003788:	2483abcc 	addiu	v1,a0,-21556
9d00378c:	0b400c76 	j	9d0031d8 <do_scan+0x658>
9d003790:	00621021 	addu	v0,v1,v0

Disassembly of section .text._do_print_cdfFnopuxX:

9d003794 <_do_print_cdfFnopuxX>:
9d003794:	27bdff58 	addiu	sp,sp,-168
9d003798:	afbf00a4 	sw	ra,164(sp)
9d00379c:	afbe00a0 	sw	s8,160(sp)
9d0037a0:	afb7009c 	sw	s7,156(sp)
9d0037a4:	afb60098 	sw	s6,152(sp)
9d0037a8:	afb50094 	sw	s5,148(sp)
9d0037ac:	afb40090 	sw	s4,144(sp)
9d0037b0:	afb3008c 	sw	s3,140(sp)
9d0037b4:	afb20088 	sw	s2,136(sp)
9d0037b8:	afb10084 	sw	s1,132(sp)
9d0037bc:	afb00080 	sw	s0,128(sp)
9d0037c0:	afa400a8 	sw	a0,168(sp)
9d0037c4:	8c820018 	lw	v0,24(a0)
9d0037c8:	00a09021 	move	s2,a1
9d0037cc:	24050001 	li	a1,1
9d0037d0:	8c420010 	lw	v0,16(v0)
9d0037d4:	0040f809 	jalr	v0
9d0037d8:	afa600b0 	sw	a2,176(sp)
9d0037dc:	104001ab 	beqz	v0,9d003e8c <_do_print_cdfFnopuxX+0x6f8>
9d0037e0:	27a20060 	addiu	v0,sp,96
9d0037e4:	afa00070 	sw	zero,112(sp)
9d0037e8:	afa20068 	sw	v0,104(sp)
9d0037ec:	82440000 	lb	a0,0(s2)
9d0037f0:	1080000d 	beqz	a0,9d003828 <_do_print_cdfFnopuxX+0x94>
9d0037f4:	26500001 	addiu	s0,s2,1
9d0037f8:	24020025 	li	v0,37
9d0037fc:	5082001c 	beql	a0,v0,9d003870 <_do_print_cdfFnopuxX+0xdc>
9d003800:	82450001 	lb	a1,1(s2)
9d003804:	0f402d4d 	jal	9d00b534 <.LCFI8>
9d003808:	8fa500a8 	lw	a1,168(sp)
9d00380c:	8fa30070 	lw	v1,112(sp)
9d003810:	24630001 	addiu	v1,v1,1
9d003814:	afa30070 	sw	v1,112(sp)
9d003818:	02009021 	move	s2,s0
9d00381c:	82440000 	lb	a0,0(s2)
9d003820:	1480fff5 	bnez	a0,9d0037f8 <_do_print_cdfFnopuxX+0x64>
9d003824:	26500001 	addiu	s0,s2,1
9d003828:	8fa400a8 	lw	a0,168(sp)
9d00382c:	94820010 	lhu	v0,16(a0)
9d003830:	30420040 	andi	v0,v0,0x40
9d003834:	14400196 	bnez	v0,9d003e90 <_do_print_cdfFnopuxX+0x6fc>
9d003838:	2402ffff 	li	v0,-1
9d00383c:	8fa20070 	lw	v0,112(sp)
9d003840:	8fbf00a4 	lw	ra,164(sp)
9d003844:	8fbe00a0 	lw	s8,160(sp)
9d003848:	8fb7009c 	lw	s7,156(sp)
9d00384c:	8fb60098 	lw	s6,152(sp)
9d003850:	8fb50094 	lw	s5,148(sp)
9d003854:	8fb40090 	lw	s4,144(sp)
9d003858:	8fb3008c 	lw	s3,140(sp)
9d00385c:	8fb20088 	lw	s2,136(sp)
9d003860:	8fb10084 	lw	s1,132(sp)
9d003864:	8fb00080 	lw	s0,128(sp)
9d003868:	03e00008 	jr	ra
9d00386c:	27bd00a8 	addiu	sp,sp,168
9d003870:	10a4017a 	beq	a1,a0,9d003e5c <_do_print_cdfFnopuxX+0x6c8>
9d003874:	0000b821 	move	s7,zero
9d003878:	2402002d 	li	v0,45
9d00387c:	2403002b 	li	v1,43
9d003880:	24040020 	li	a0,32
9d003884:	24060023 	li	a2,35
9d003888:	10a2000e 	beq	a1,v0,9d0038c4 <_do_print_cdfFnopuxX+0x130>
9d00388c:	24070030 	li	a3,48
9d003890:	50a30010 	beql	a1,v1,9d0038d4 <_do_print_cdfFnopuxX+0x140>
9d003894:	36f70002 	ori	s7,s7,0x2
9d003898:	50a40011 	beql	a1,a0,9d0038e0 <_do_print_cdfFnopuxX+0x14c>
9d00389c:	36f70001 	ori	s7,s7,0x1
9d0038a0:	50a60012 	beql	a1,a2,9d0038ec <_do_print_cdfFnopuxX+0x158>
9d0038a4:	36f70800 	ori	s7,s7,0x800
9d0038a8:	54a70013 	bnel	a1,a3,9d0038f8 <_do_print_cdfFnopuxX+0x164>
9d0038ac:	2402002a 	li	v0,42
9d0038b0:	36f70004 	ori	s7,s7,0x4
9d0038b4:	26100001 	addiu	s0,s0,1
9d0038b8:	82050000 	lb	a1,0(s0)
9d0038bc:	14a2fff4 	bne	a1,v0,9d003890 <_do_print_cdfFnopuxX+0xfc>
9d0038c0:	00000000 	nop
9d0038c4:	36f70008 	ori	s7,s7,0x8
9d0038c8:	26100001 	addiu	s0,s0,1
9d0038cc:	0b400e2f 	j	9d0038bc <_do_print_cdfFnopuxX+0x128>
9d0038d0:	82050000 	lb	a1,0(s0)
9d0038d4:	26100001 	addiu	s0,s0,1
9d0038d8:	0b400e2f 	j	9d0038bc <_do_print_cdfFnopuxX+0x128>
9d0038dc:	82050000 	lb	a1,0(s0)
9d0038e0:	26100001 	addiu	s0,s0,1
9d0038e4:	0b400e2f 	j	9d0038bc <_do_print_cdfFnopuxX+0x128>
9d0038e8:	82050000 	lb	a1,0(s0)
9d0038ec:	26100001 	addiu	s0,s0,1
9d0038f0:	0b400e2f 	j	9d0038bc <_do_print_cdfFnopuxX+0x128>
9d0038f4:	82050000 	lb	a1,0(s0)
9d0038f8:	10a20147 	beq	a1,v0,9d003e18 <_do_print_cdfFnopuxX+0x684>
9d0038fc:	02001821 	move	v1,s0
9d003900:	24a2ffd0 	addiu	v0,a1,-48
9d003904:	2c42000a 	sltiu	v0,v0,10
9d003908:	1040000b 	beqz	v0,9d003938 <_do_print_cdfFnopuxX+0x1a4>
9d00390c:	0000b021 	move	s6,zero
9d003910:	00161040 	sll	v0,s6,0x1
9d003914:	001640c0 	sll	t0,s6,0x3
9d003918:	00484021 	addu	t0,v0,t0
9d00391c:	26100001 	addiu	s0,s0,1
9d003920:	01054021 	addu	t0,t0,a1
9d003924:	82050000 	lb	a1,0(s0)
9d003928:	24a2ffd0 	addiu	v0,a1,-48
9d00392c:	2c42000a 	sltiu	v0,v0,10
9d003930:	1440fff7 	bnez	v0,9d003910 <_do_print_cdfFnopuxX+0x17c>
9d003934:	2516ffd0 	addiu	s6,t0,-48
9d003938:	2402002e 	li	v0,46
9d00393c:	10a20122 	beq	a1,v0,9d003dc8 <_do_print_cdfFnopuxX+0x634>
9d003940:	241effff 	li	s8,-1
9d003944:	24020068 	li	v0,104
9d003948:	10a2010d 	beq	a1,v0,9d003d80 <_do_print_cdfFnopuxX+0x5ec>
9d00394c:	2402006c 	li	v0,108
9d003950:	10a2013b 	beq	a1,v0,9d003e40 <_do_print_cdfFnopuxX+0x6ac>
9d003954:	24020071 	li	v0,113
9d003958:	10a20148 	beq	a1,v0,9d003e7c <_do_print_cdfFnopuxX+0x6e8>
9d00395c:	2402004c 	li	v0,76
9d003960:	50a201c6 	beql	a1,v0,9d00407c <_do_print_cdfFnopuxX+0x8e8>
9d003964:	82050001 	lb	a1,1(s0)
9d003968:	32e30002 	andi	v1,s7,0x2
9d00396c:	32e2fffe 	andi	v0,s7,0xfffe
9d003970:	0043b80b 	movn	s7,v0,v1
9d003974:	24a2ffbc 	addiu	v0,a1,-68
9d003978:	32e60008 	andi	a2,s7,0x8
9d00397c:	32e4fffb 	andi	a0,s7,0xfffb
9d003980:	2c430035 	sltiu	v1,v0,53
9d003984:	26120001 	addiu	s2,s0,1
9d003988:	1060010d 	beqz	v1,9d003dc0 <_do_print_cdfFnopuxX+0x62c>
9d00398c:	0086b80b 	movn	s7,a0,a2
9d003990:	00021080 	sll	v0,v0,0x2
9d003994:	3c049d00 	lui	a0,0x9d00
9d003998:	248439ac 	addiu	a0,a0,14764
9d00399c:	00821021 	addu	v0,a0,v0
9d0039a0:	8c420000 	lw	v0,0(v0)
9d0039a4:	00400008 	jr	v0
9d0039a8:	00000000 	nop
9d0039ac:	9d003d6c 	0x9d003d6c
9d0039b0:	9d003dc0 	0x9d003dc0
9d0039b4:	9d003d10 	0x9d003d10
9d0039b8:	9d003dc0 	0x9d003dc0
9d0039bc:	9d003dc0 	0x9d003dc0
9d0039c0:	9d003dc0 	0x9d003dc0
9d0039c4:	9d003dc0 	0x9d003dc0
9d0039c8:	9d003dc0 	0x9d003dc0
9d0039cc:	9d003dc0 	0x9d003dc0
9d0039d0:	9d003dc0 	0x9d003dc0
9d0039d4:	9d003dc0 	0x9d003dc0
9d0039d8:	9d003ff0 	0x9d003ff0
9d0039dc:	9d003d00 	0x9d003d00
9d0039e0:	9d003dc0 	0x9d003dc0
9d0039e4:	9d003dc0 	0x9d003dc0
9d0039e8:	9d003dc0 	0x9d003dc0
9d0039ec:	9d003dc0 	0x9d003dc0
9d0039f0:	9d003c34 	0x9d003c34
9d0039f4:	9d003dc0 	0x9d003dc0
9d0039f8:	9d003dc0 	0x9d003dc0
9d0039fc:	9d003a80 	0x9d003a80
9d003a00:	9d003dc0 	0x9d003dc0
9d003a04:	9d003dc0 	0x9d003dc0
9d003a08:	9d003dc0 	0x9d003dc0
9d003a0c:	9d003dc0 	0x9d003dc0
9d003a10:	9d003dc0 	0x9d003dc0
9d003a14:	9d003dc0 	0x9d003dc0
9d003a18:	9d003dc0 	0x9d003dc0
9d003a1c:	9d003dc0 	0x9d003dc0
9d003a20:	9d003dc0 	0x9d003dc0
9d003a24:	9d003dc0 	0x9d003dc0
9d003a28:	9d003fb0 	0x9d003fb0
9d003a2c:	9d003d70 	0x9d003d70
9d003a30:	9d003dc0 	0x9d003dc0
9d003a34:	9d003d14 	0x9d003d14
9d003a38:	9d003dc0 	0x9d003dc0
9d003a3c:	9d003dc0 	0x9d003dc0
9d003a40:	9d003d70 	0x9d003d70
9d003a44:	9d003dc0 	0x9d003dc0
9d003a48:	9d003dc0 	0x9d003dc0
9d003a4c:	9d003dc0 	0x9d003dc0
9d003a50:	9d003dc0 	0x9d003dc0
9d003a54:	9d003ef4 	0x9d003ef4
9d003a58:	9d003eec 	0x9d003eec
9d003a5c:	9d003d04 	0x9d003d04
9d003a60:	9d003dc0 	0x9d003dc0
9d003a64:	9d003dc0 	0x9d003dc0
9d003a68:	9d003f3c 	0x9d003f3c
9d003a6c:	9d003dc0 	0x9d003dc0
9d003a70:	9d003c38 	0x9d003c38
9d003a74:	9d003dc0 	0x9d003dc0
9d003a78:	9d003dc0 	0x9d003dc0
9d003a7c:	9d003a84 	0x9d003a84
9d003a80:	36f70020 	ori	s7,s7,0x20
9d003a84:	24100010 	li	s0,16
9d003a88:	2402ffff 	li	v0,-1
9d003a8c:	13c2006f 	beq	s8,v0,9d003c4c <_do_print_cdfFnopuxX+0x4b8>
9d003a90:	00002821 	move	a1,zero
9d003a94:	32f7fffb 	andi	s7,s7,0xfffb
9d003a98:	27c5ffff 	addiu	a1,s8,-1
9d003a9c:	32e200c0 	andi	v0,s7,0xc0
9d003aa0:	1040006e 	beqz	v0,9d003c5c <_do_print_cdfFnopuxX+0x4c8>
9d003aa4:	afa20074 	sw	v0,116(sp)
9d003aa8:	7c171620 	seh	v0,s7
9d003aac:	0440017d 	bltz	v0,9d0040a4 <_do_print_cdfFnopuxX+0x910>
9d003ab0:	32e20010 	andi	v0,s7,0x10
9d003ab4:	14400108 	bnez	v0,9d003ed8 <_do_print_cdfFnopuxX+0x744>
9d003ab8:	8fa200b0 	lw	v0,176(sp)
9d003abc:	32e20041 	andi	v0,s7,0x41
9d003ac0:	104001a5 	beqz	v0,9d004158 <_do_print_cdfFnopuxX+0x9c4>
9d003ac4:	8fa400b0 	lw	a0,176(sp)
9d003ac8:	8fa300b0 	lw	v1,176(sp)
9d003acc:	8c750000 	lw	s5,0(v1)
9d003ad0:	24630004 	addiu	v1,v1,4
9d003ad4:	afa300b0 	sw	v1,176(sp)
9d003ad8:	0015a7c3 	sra	s4,s5,0x1f
9d003adc:	0683006d 	bgezl	s4,9d003c94 <_do_print_cdfFnopuxX+0x500>
9d003ae0:	afa0007c 	sw	zero,124(sp)
9d003ae4:	00156823 	negu	t5,s5
9d003ae8:	000d102b 	sltu	v0,zero,t5
9d003aec:	00146023 	negu	t4,s4
9d003af0:	01a0a821 	move	s5,t5
9d003af4:	0182a023 	subu	s4,t4,v0
9d003af8:	24020001 	li	v0,1
9d003afc:	12800067 	beqz	s4,9d003c9c <_do_print_cdfFnopuxX+0x508>
9d003b00:	afa2007c 	sw	v0,124(sp)
9d003b04:	02b41025 	or	v0,s5,s4
9d003b08:	104001a9 	beqz	v0,9d0041b0 <_do_print_cdfFnopuxX+0xa1c>
9d003b0c:	27a2005f 	addiu	v0,sp,95
9d003b10:	afa20078 	sw	v0,120(sp)
9d003b14:	32e30020 	andi	v1,s7,0x20
9d003b18:	24040037 	li	a0,55
9d003b1c:	00108fc3 	sra	s1,s0,0x1f
9d003b20:	00409821 	move	s3,v0
9d003b24:	24020057 	li	v0,87
9d003b28:	0043200a 	movz	a0,v0,v1
9d003b2c:	afa4006c 	sw	a0,108(sp)
9d003b30:	02a02021 	move	a0,s5
9d003b34:	02802821 	move	a1,s4
9d003b38:	02003021 	move	a2,s0
9d003b3c:	0f40196f 	jal	9d0065bc <__umoddi3>
9d003b40:	02203821 	move	a3,s1
9d003b44:	2843000a 	slti	v1,v0,10
9d003b48:	24460030 	addiu	a2,v0,48
9d003b4c:	8fa4006c 	lw	a0,108(sp)
9d003b50:	00441021 	addu	v0,v0,a0
9d003b54:	0043300a 	movz	a2,v0,v1
9d003b58:	2673ffff 	addiu	s3,s3,-1
9d003b5c:	02a02021 	move	a0,s5
9d003b60:	02802821 	move	a1,s4
9d003b64:	a2660001 	sb	a2,1(s3)
9d003b68:	02003021 	move	a2,s0
9d003b6c:	0f401a88 	jal	9d006a20 <.LFE1>
9d003b70:	02203821 	move	a3,s1
9d003b74:	00622025 	or	a0,v1,v0
9d003b78:	0040a821 	move	s5,v0
9d003b7c:	0060a021 	move	s4,v1
9d003b80:	1480ffeb 	bnez	a0,9d003b30 <_do_print_cdfFnopuxX+0x39c>
9d003b84:	27deffff 	addiu	s8,s8,-1
9d003b88:	27c5ffff 	addiu	a1,s8,-1
9d003b8c:	04a0000a 	bltz	a1,9d003bb8 <_do_print_cdfFnopuxX+0x424>
9d003b90:	02601021 	move	v0,s3
9d003b94:	2664ffff 	addiu	a0,s3,-1
9d003b98:	00852023 	subu	a0,a0,a1
9d003b9c:	24030030 	li	v1,48
9d003ba0:	a0430000 	sb	v1,0(v0)
9d003ba4:	2442ffff 	addiu	v0,v0,-1
9d003ba8:	5444fffe 	bnel	v0,a0,9d003ba4 <_do_print_cdfFnopuxX+0x410>
9d003bac:	a0430000 	sb	v1,0(v0)
9d003bb0:	00052827 	nor	a1,zero,a1
9d003bb4:	02659821 	addu	s3,s3,a1
9d003bb8:	32e20004 	andi	v0,s7,0x4
9d003bbc:	1440010f 	bnez	v0,9d003ffc <_do_print_cdfFnopuxX+0x868>
9d003bc0:	32e40800 	andi	a0,s7,0x800
9d003bc4:	3084ffff 	andi	a0,a0,0xffff
9d003bc8:	50800007 	beqzl	a0,9d003be8 <_do_print_cdfFnopuxX+0x454>
9d003bcc:	8fa30074 	lw	v1,116(sp)
9d003bd0:	24020008 	li	v0,8
9d003bd4:	1202012c 	beq	s0,v0,9d004088 <_do_print_cdfFnopuxX+0x8f4>
9d003bd8:	24020010 	li	v0,16
9d003bdc:	12020150 	beq	s0,v0,9d004120 <_do_print_cdfFnopuxX+0x98c>
9d003be0:	32e40020 	andi	a0,s7,0x20
9d003be4:	8fa30074 	lw	v1,116(sp)
9d003be8:	10600007 	beqz	v1,9d003c08 <_do_print_cdfFnopuxX+0x474>
9d003bec:	8fa4007c 	lw	a0,124(sp)
9d003bf0:	1480011e 	bnez	a0,9d00406c <_do_print_cdfFnopuxX+0x8d8>
9d003bf4:	32e20002 	andi	v0,s7,0x2
9d003bf8:	10400003 	beqz	v0,9d003c08 <_do_print_cdfFnopuxX+0x474>
9d003bfc:	2402002b 	li	v0,43
9d003c00:	a2620000 	sb	v0,0(s3)
9d003c04:	2673ffff 	addiu	s3,s3,-1
9d003c08:	26650001 	addiu	a1,s3,1
9d003c0c:	afb70010 	sw	s7,16(sp)
9d003c10:	8fa400a8 	lw	a0,168(sp)
9d003c14:	8fa20068 	lw	v0,104(sp)
9d003c18:	00453023 	subu	a2,v0,a1
9d003c1c:	0f402981 	jal	9d00a604 <.LFE11>
9d003c20:	02c03821 	move	a3,s6
9d003c24:	8fa30070 	lw	v1,112(sp)
9d003c28:	00621821 	addu	v1,v1,v0
9d003c2c:	0b400dfb 	j	9d0037ec <_do_print_cdfFnopuxX+0x58>
9d003c30:	afa30070 	sw	v1,112(sp)
9d003c34:	36f70010 	ori	s7,s7,0x10
9d003c38:	32f7f7ff 	andi	s7,s7,0xf7ff
9d003c3c:	2402ffff 	li	v0,-1
9d003c40:	17c2ff94 	bne	s8,v0,9d003a94 <_do_print_cdfFnopuxX+0x300>
9d003c44:	2410000a 	li	s0,10
9d003c48:	00002821 	move	a1,zero
9d003c4c:	241e0001 	li	s8,1
9d003c50:	32e200c0 	andi	v0,s7,0xc0
9d003c54:	1440ff94 	bnez	v0,9d003aa8 <_do_print_cdfFnopuxX+0x314>
9d003c58:	afa20074 	sw	v0,116(sp)
9d003c5c:	7c171620 	seh	v0,s7
9d003c60:	04400118 	bltz	v0,9d0040c4 <_do_print_cdfFnopuxX+0x930>
9d003c64:	32e20010 	andi	v0,s7,0x10
9d003c68:	14400095 	bnez	v0,9d003ec0 <_do_print_cdfFnopuxX+0x72c>
9d003c6c:	8fa200b0 	lw	v0,176(sp)
9d003c70:	32e20041 	andi	v0,s7,0x41
9d003c74:	10400132 	beqz	v0,9d004140 <_do_print_cdfFnopuxX+0x9ac>
9d003c78:	8fa400b0 	lw	a0,176(sp)
9d003c7c:	8fa300b0 	lw	v1,176(sp)
9d003c80:	8c750000 	lw	s5,0(v1)
9d003c84:	0000a021 	move	s4,zero
9d003c88:	24630004 	addiu	v1,v1,4
9d003c8c:	afa300b0 	sw	v1,176(sp)
9d003c90:	afa0007c 	sw	zero,124(sp)
9d003c94:	1680ff9c 	bnez	s4,9d003b08 <_do_print_cdfFnopuxX+0x374>
9d003c98:	02b41025 	or	v0,s5,s4
9d003c9c:	12a00148 	beqz	s5,9d0041c0 <_do_print_cdfFnopuxX+0xa2c>
9d003ca0:	02a06821 	move	t5,s5
9d003ca4:	27a4005f 	addiu	a0,sp,95
9d003ca8:	afa40078 	sw	a0,120(sp)
9d003cac:	32e30020 	andi	v1,s7,0x20
9d003cb0:	24050037 	li	a1,55
9d003cb4:	00809821 	move	s3,a0
9d003cb8:	24020057 	li	v0,87
9d003cbc:	0043280a 	movz	a1,v0,v1
9d003cc0:	01b0001b 	divu	zero,t5,s0
9d003cc4:	020001f4 	teq	s0,zero,0x7
9d003cc8:	00001810 	mfhi	v1
9d003ccc:	2673ffff 	addiu	s3,s3,-1
9d003cd0:	27deffff 	addiu	s8,s8,-1
9d003cd4:	01b0001b 	divu	zero,t5,s0
9d003cd8:	020001f4 	teq	s0,zero,0x7
9d003cdc:	00006812 	mflo	t5
9d003ce0:	2864000a 	slti	a0,v1,10
9d003ce4:	24620030 	addiu	v0,v1,48
9d003ce8:	00651821 	addu	v1,v1,a1
9d003cec:	0064100a 	movz	v0,v1,a0
9d003cf0:	15a0fff3 	bnez	t5,9d003cc0 <_do_print_cdfFnopuxX+0x52c>
9d003cf4:	a2620001 	sb	v0,1(s3)
9d003cf8:	0b400ee3 	j	9d003b8c <_do_print_cdfFnopuxX+0x3f8>
9d003cfc:	27c5ffff 	addiu	a1,s8,-1
9d003d00:	36f70020 	ori	s7,s7,0x20
9d003d04:	36f70810 	ori	s7,s7,0x810
9d003d08:	0b400ea2 	j	9d003a88 <_do_print_cdfFnopuxX+0x2f4>
9d003d0c:	24100010 	li	s0,16
9d003d10:	36f70020 	ori	s7,s7,0x20
9d003d14:	32e20080 	andi	v0,s7,0x80
9d003d18:	144000b2 	bnez	v0,9d003fe4 <_do_print_cdfFnopuxX+0x850>
9d003d1c:	36ea0400 	ori	t2,s7,0x400
9d003d20:	8fa400b0 	lw	a0,176(sp)
9d003d24:	24950007 	addiu	s5,a0,7
9d003d28:	7c151004 	ins	s5,zero,0x0,0x3
9d003d2c:	8ea20000 	lw	v0,0(s5)
9d003d30:	8ea30004 	lw	v1,4(s5)
9d003d34:	26b50008 	addiu	s5,s5,8
9d003d38:	afb500b0 	sw	s5,176(sp)
9d003d3c:	afa20060 	sw	v0,96(sp)
9d003d40:	afa30064 	sw	v1,100(sp)
9d003d44:	8fa60060 	lw	a2,96(sp)
9d003d48:	8fa70064 	lw	a3,100(sp)
9d003d4c:	afa50010 	sw	a1,16(sp)
9d003d50:	afb60014 	sw	s6,20(sp)
9d003d54:	afbe0018 	sw	s8,24(sp)
9d003d58:	afaa001c 	sw	t2,28(sp)
9d003d5c:	0f40128f 	jal	9d004a3c <_fconvert>
9d003d60:	8fa400a8 	lw	a0,168(sp)
9d003d64:	0b400f0a 	j	9d003c28 <_do_print_cdfFnopuxX+0x494>
9d003d68:	8fa30070 	lw	v1,112(sp)
9d003d6c:	36f70010 	ori	s7,s7,0x10
9d003d70:	32eaf7ff 	andi	t2,s7,0xf7ff
9d003d74:	355700c0 	ori	s7,t2,0xc0
9d003d78:	0b400ea2 	j	9d003a88 <_do_print_cdfFnopuxX+0x2f4>
9d003d7c:	2410000a 	li	s0,10
9d003d80:	82020001 	lb	v0,1(s0)
9d003d84:	504500e2 	beql	v0,a1,9d004110 <_do_print_cdfFnopuxX+0x97c>
9d003d88:	82050002 	lb	a1,2(s0)
9d003d8c:	36f70040 	ori	s7,s7,0x40
9d003d90:	00402821 	move	a1,v0
9d003d94:	26100001 	addiu	s0,s0,1
9d003d98:	32e30002 	andi	v1,s7,0x2
9d003d9c:	32e2fffe 	andi	v0,s7,0xfffe
9d003da0:	0043b80b 	movn	s7,v0,v1
9d003da4:	24a2ffbc 	addiu	v0,a1,-68
9d003da8:	32e60008 	andi	a2,s7,0x8
9d003dac:	32e4fffb 	andi	a0,s7,0xfffb
9d003db0:	2c430035 	sltiu	v1,v0,53
9d003db4:	26120001 	addiu	s2,s0,1
9d003db8:	1460fef5 	bnez	v1,9d003990 <_do_print_cdfFnopuxX+0x1fc>
9d003dbc:	0086b80b 	movn	s7,a0,a2
9d003dc0:	0b400f09 	j	9d003c24 <_do_print_cdfFnopuxX+0x490>
9d003dc4:	00001021 	move	v0,zero
9d003dc8:	82050001 	lb	a1,1(s0)
9d003dcc:	2402002a 	li	v0,42
9d003dd0:	10a200c5 	beq	a1,v0,9d0040e8 <_do_print_cdfFnopuxX+0x954>
9d003dd4:	24a2ffd0 	addiu	v0,a1,-48
9d003dd8:	2c42000a 	sltiu	v0,v0,10
9d003ddc:	26100001 	addiu	s0,s0,1
9d003de0:	1040fed8 	beqz	v0,9d003944 <_do_print_cdfFnopuxX+0x1b0>
9d003de4:	0000f021 	move	s8,zero
9d003de8:	001e1040 	sll	v0,s8,0x1
9d003dec:	001e48c0 	sll	t1,s8,0x3
9d003df0:	00494821 	addu	t1,v0,t1
9d003df4:	26100001 	addiu	s0,s0,1
9d003df8:	01254821 	addu	t1,t1,a1
9d003dfc:	82050000 	lb	a1,0(s0)
9d003e00:	24a2ffd0 	addiu	v0,a1,-48
9d003e04:	2c42000a 	sltiu	v0,v0,10
9d003e08:	1440fff7 	bnez	v0,9d003de8 <_do_print_cdfFnopuxX+0x654>
9d003e0c:	253effd0 	addiu	s8,t1,-48
9d003e10:	0b400e52 	j	9d003948 <_do_print_cdfFnopuxX+0x1b4>
9d003e14:	24020068 	li	v0,104
9d003e18:	8fa200b0 	lw	v0,176(sp)
9d003e1c:	8c560000 	lw	s6,0(v0)
9d003e20:	24550004 	addiu	s5,v0,4
9d003e24:	26100001 	addiu	s0,s0,1
9d003e28:	06c10003 	bgez	s6,9d003e38 <_do_print_cdfFnopuxX+0x6a4>
9d003e2c:	80650001 	lb	a1,1(v1)
9d003e30:	36f70008 	ori	s7,s7,0x8
9d003e34:	0016b023 	negu	s6,s6
9d003e38:	0b400e4e 	j	9d003938 <_do_print_cdfFnopuxX+0x1a4>
9d003e3c:	afb500b0 	sw	s5,176(sp)
9d003e40:	82020001 	lb	v0,1(s0)
9d003e44:	504500c9 	beql	v0,a1,9d00416c <_do_print_cdfFnopuxX+0x9d8>
9d003e48:	82050002 	lb	a1,2(s0)
9d003e4c:	36f70010 	ori	s7,s7,0x10
9d003e50:	00402821 	move	a1,v0
9d003e54:	0b400f66 	j	9d003d98 <_do_print_cdfFnopuxX+0x604>
9d003e58:	26100001 	addiu	s0,s0,1
9d003e5c:	24040025 	li	a0,37
9d003e60:	0f402d4d 	jal	9d00b534 <.LCFI8>
9d003e64:	8fa500a8 	lw	a1,168(sp)
9d003e68:	26520002 	addiu	s2,s2,2
9d003e6c:	8fa40070 	lw	a0,112(sp)
9d003e70:	24840001 	addiu	a0,a0,1
9d003e74:	0b400dfb 	j	9d0037ec <_do_print_cdfFnopuxX+0x58>
9d003e78:	afa40070 	sw	a0,112(sp)
9d003e7c:	82050001 	lb	a1,1(s0)
9d003e80:	36f78000 	ori	s7,s7,0x8000
9d003e84:	0b400e5a 	j	9d003968 <_do_print_cdfFnopuxX+0x1d4>
9d003e88:	26100001 	addiu	s0,s0,1
9d003e8c:	2402ffff 	li	v0,-1
9d003e90:	8fbf00a4 	lw	ra,164(sp)
9d003e94:	8fbe00a0 	lw	s8,160(sp)
9d003e98:	8fb7009c 	lw	s7,156(sp)
9d003e9c:	8fb60098 	lw	s6,152(sp)
9d003ea0:	8fb50094 	lw	s5,148(sp)
9d003ea4:	8fb40090 	lw	s4,144(sp)
9d003ea8:	8fb3008c 	lw	s3,140(sp)
9d003eac:	8fb20088 	lw	s2,136(sp)
9d003eb0:	8fb10084 	lw	s1,132(sp)
9d003eb4:	8fb00080 	lw	s0,128(sp)
9d003eb8:	03e00008 	jr	ra
9d003ebc:	27bd00a8 	addiu	sp,sp,168
9d003ec0:	8c550000 	lw	s5,0(v0)
9d003ec4:	0000a021 	move	s4,zero
9d003ec8:	24420004 	addiu	v0,v0,4
9d003ecc:	afa200b0 	sw	v0,176(sp)
9d003ed0:	0b400f25 	j	9d003c94 <_do_print_cdfFnopuxX+0x500>
9d003ed4:	afa0007c 	sw	zero,124(sp)
9d003ed8:	8c550000 	lw	s5,0(v0)
9d003edc:	24420004 	addiu	v0,v0,4
9d003ee0:	afa200b0 	sw	v0,176(sp)
9d003ee4:	0b400eb7 	j	9d003adc <_do_print_cdfFnopuxX+0x348>
9d003ee8:	0015a7c3 	sra	s4,s5,0x1f
9d003eec:	0b400ea2 	j	9d003a88 <_do_print_cdfFnopuxX+0x2f4>
9d003ef0:	24100008 	li	s0,8
9d003ef4:	7c171620 	seh	v0,s7
9d003ef8:	044000b9 	bltz	v0,9d0041e0 <_do_print_cdfFnopuxX+0xa4c>
9d003efc:	8fa400b0 	lw	a0,176(sp)
9d003f00:	32e20010 	andi	v0,s7,0x10
9d003f04:	144000a2 	bnez	v0,9d004190 <_do_print_cdfFnopuxX+0x9fc>
9d003f08:	8fa200b0 	lw	v0,176(sp)
9d003f0c:	32e20040 	andi	v0,s7,0x40
9d003f10:	104000be 	beqz	v0,9d00420c <_do_print_cdfFnopuxX+0xa78>
9d003f14:	32ea0001 	andi	t2,s7,0x1
9d003f18:	8fa200b0 	lw	v0,176(sp)
9d003f1c:	8c430000 	lw	v1,0(v0)
9d003f20:	00001021 	move	v0,zero
9d003f24:	8fa400b0 	lw	a0,176(sp)
9d003f28:	24840004 	addiu	a0,a0,4
9d003f2c:	afa400b0 	sw	a0,176(sp)
9d003f30:	8fa40070 	lw	a0,112(sp)
9d003f34:	0b400f09 	j	9d003c24 <_do_print_cdfFnopuxX+0x490>
9d003f38:	a4640000 	sh	a0,0(v1)
9d003f3c:	8fa400b0 	lw	a0,176(sp)
9d003f40:	8c900000 	lw	s0,0(a0)
9d003f44:	3c039d01 	lui	v1,0x9d01
9d003f48:	2462bd6c 	addiu	v0,v1,-17044
9d003f4c:	0050800a 	movz	s0,v0,s0
9d003f50:	2402ffff 	li	v0,-1
9d003f54:	13c2009e 	beq	s8,v0,9d0041d0 <_do_print_cdfFnopuxX+0xa3c>
9d003f58:	24950004 	addiu	s5,a0,4
9d003f5c:	1bc00004 	blez	s8,9d003f70 <_do_print_cdfFnopuxX+0x7dc>
9d003f60:	021e4821 	addu	t1,s0,s8
9d003f64:	82030000 	lb	v1,0(s0)
9d003f68:	14600005 	bnez	v1,9d003f80 <_do_print_cdfFnopuxX+0x7ec>
9d003f6c:	02001021 	move	v0,s0
9d003f70:	0b400fe4 	j	9d003f90 <_do_print_cdfFnopuxX+0x7fc>
9d003f74:	00001021 	move	v0,zero
9d003f78:	50600005 	beqzl	v1,9d003f90 <_do_print_cdfFnopuxX+0x7fc>
9d003f7c:	00501023 	subu	v0,v0,s0
9d003f80:	24420001 	addiu	v0,v0,1
9d003f84:	5449fffc 	bnel	v0,t1,9d003f78 <_do_print_cdfFnopuxX+0x7e4>
9d003f88:	80430000 	lb	v1,0(v0)
9d003f8c:	00501023 	subu	v0,v0,s0
9d003f90:	afb70010 	sw	s7,16(sp)
9d003f94:	8fa400a8 	lw	a0,168(sp)
9d003f98:	02002821 	move	a1,s0
9d003f9c:	00403021 	move	a2,v0
9d003fa0:	0f402981 	jal	9d00a604 <.LFE11>
9d003fa4:	02c03821 	move	a3,s6
9d003fa8:	0b400f09 	j	9d003c24 <_do_print_cdfFnopuxX+0x490>
9d003fac:	afb500b0 	sw	s5,176(sp)
9d003fb0:	8fa300b0 	lw	v1,176(sp)
9d003fb4:	8c620000 	lw	v0,0(v1)
9d003fb8:	24750004 	addiu	s5,v1,4
9d003fbc:	afb70010 	sw	s7,16(sp)
9d003fc0:	8fa400a8 	lw	a0,168(sp)
9d003fc4:	27a50020 	addiu	a1,sp,32
9d003fc8:	24060001 	li	a2,1
9d003fcc:	02c03821 	move	a3,s6
9d003fd0:	a3a20020 	sb	v0,32(sp)
9d003fd4:	0f402981 	jal	9d00a604 <.LFE11>
9d003fd8:	afb500b0 	sw	s5,176(sp)
9d003fdc:	0b400f0a 	j	9d003c28 <_do_print_cdfFnopuxX+0x494>
9d003fe0:	8fa30070 	lw	v1,112(sp)
9d003fe4:	8fa300b0 	lw	v1,176(sp)
9d003fe8:	0b400f4a 	j	9d003d28 <_do_print_cdfFnopuxX+0x594>
9d003fec:	24750007 	addiu	s5,v1,7
9d003ff0:	36f70010 	ori	s7,s7,0x10
9d003ff4:	0b400ea2 	j	9d003a88 <_do_print_cdfFnopuxX+0x2f4>
9d003ff8:	24100008 	li	s0,8
9d003ffc:	8fa20078 	lw	v0,120(sp)
9d004000:	02621823 	subu	v1,s3,v0
9d004004:	3084ffff 	andi	a0,a0,0xffff
9d004008:	10800006 	beqz	a0,9d004024 <_do_print_cdfFnopuxX+0x890>
9d00400c:	02c31821 	addu	v1,s6,v1
9d004010:	24020008 	li	v0,8
9d004014:	12020059 	beq	s0,v0,9d00417c <_do_print_cdfFnopuxX+0x9e8>
9d004018:	2462fffe 	addiu	v0,v1,-2
9d00401c:	3a050010 	xori	a1,s0,0x10
9d004020:	0045180a 	movz	v1,v0,a1
9d004024:	8fa20074 	lw	v0,116(sp)
9d004028:	10400006 	beqz	v0,9d004044 <_do_print_cdfFnopuxX+0x8b0>
9d00402c:	8fa2007c 	lw	v0,124(sp)
9d004030:	54400004 	bnezl	v0,9d004044 <_do_print_cdfFnopuxX+0x8b0>
9d004034:	2463ffff 	addiu	v1,v1,-1
9d004038:	32e20003 	andi	v0,s7,0x3
9d00403c:	54400001 	bnezl	v0,9d004044 <_do_print_cdfFnopuxX+0x8b0>
9d004040:	2463ffff 	addiu	v1,v1,-1
9d004044:	1860fee0 	blez	v1,9d003bc8 <_do_print_cdfFnopuxX+0x434>
9d004048:	02601021 	move	v0,s3
9d00404c:	02635823 	subu	t3,s3,v1
9d004050:	24030030 	li	v1,48
9d004054:	a0430000 	sb	v1,0(v0)
9d004058:	2442ffff 	addiu	v0,v0,-1
9d00405c:	5562fffe 	bnel	t3,v0,9d004058 <_do_print_cdfFnopuxX+0x8c4>
9d004060:	a0430000 	sb	v1,0(v0)
9d004064:	0b400ef2 	j	9d003bc8 <_do_print_cdfFnopuxX+0x434>
9d004068:	01609821 	move	s3,t3
9d00406c:	2402002d 	li	v0,45
9d004070:	a2620000 	sb	v0,0(s3)
9d004074:	0b400f02 	j	9d003c08 <_do_print_cdfFnopuxX+0x474>
9d004078:	2673ffff 	addiu	s3,s3,-1
9d00407c:	36f70080 	ori	s7,s7,0x80
9d004080:	0b400f66 	j	9d003d98 <_do_print_cdfFnopuxX+0x604>
9d004084:	26100001 	addiu	s0,s0,1
9d004088:	82630001 	lb	v1,1(s3)
9d00408c:	24020030 	li	v0,48
9d004090:	1062fed5 	beq	v1,v0,9d003be8 <_do_print_cdfFnopuxX+0x454>
9d004094:	8fa30074 	lw	v1,116(sp)
9d004098:	a2620000 	sb	v0,0(s3)
9d00409c:	0b400ef9 	j	9d003be4 <_do_print_cdfFnopuxX+0x450>
9d0040a0:	2673ffff 	addiu	s3,s3,-1
9d0040a4:	8fa300b0 	lw	v1,176(sp)
9d0040a8:	24620007 	addiu	v0,v1,7
9d0040ac:	7c021004 	ins	v0,zero,0x0,0x3
9d0040b0:	24440008 	addiu	a0,v0,8
9d0040b4:	afa400b0 	sw	a0,176(sp)
9d0040b8:	8c550000 	lw	s5,0(v0)
9d0040bc:	0b400eb7 	j	9d003adc <_do_print_cdfFnopuxX+0x348>
9d0040c0:	8c540004 	lw	s4,4(v0)
9d0040c4:	8fa300b0 	lw	v1,176(sp)
9d0040c8:	24620007 	addiu	v0,v1,7
9d0040cc:	7c021004 	ins	v0,zero,0x0,0x3
9d0040d0:	24440008 	addiu	a0,v0,8
9d0040d4:	afa400b0 	sw	a0,176(sp)
9d0040d8:	8c550000 	lw	s5,0(v0)
9d0040dc:	8c540004 	lw	s4,4(v0)
9d0040e0:	0b400f25 	j	9d003c94 <_do_print_cdfFnopuxX+0x500>
9d0040e4:	afa0007c 	sw	zero,124(sp)
9d0040e8:	8fa300b0 	lw	v1,176(sp)
9d0040ec:	8c7e0000 	lw	s8,0(v1)
9d0040f0:	24750004 	addiu	s5,v1,4
9d0040f4:	26020002 	addiu	v0,s0,2
9d0040f8:	82050002 	lb	a1,2(s0)
9d0040fc:	afb500b0 	sw	s5,176(sp)
9d004100:	07c1fe10 	bgez	s8,9d003944 <_do_print_cdfFnopuxX+0x1b0>
9d004104:	00408021 	move	s0,v0
9d004108:	0b400e51 	j	9d003944 <_do_print_cdfFnopuxX+0x1b0>
9d00410c:	241effff 	li	s8,-1
9d004110:	36f70001 	ori	s7,s7,0x1
9d004114:	26100001 	addiu	s0,s0,1
9d004118:	0b400f66 	j	9d003d98 <_do_print_cdfFnopuxX+0x604>
9d00411c:	26100001 	addiu	s0,s0,1
9d004120:	24020058 	li	v0,88
9d004124:	24030078 	li	v1,120
9d004128:	0064100a 	movz	v0,v1,a0
9d00412c:	a2620000 	sb	v0,0(s3)
9d004130:	24020030 	li	v0,48
9d004134:	a262ffff 	sb	v0,-1(s3)
9d004138:	0b400ef9 	j	9d003be4 <_do_print_cdfFnopuxX+0x450>
9d00413c:	2673fffe 	addiu	s3,s3,-2
9d004140:	8c950000 	lw	s5,0(a0)
9d004144:	0000a021 	move	s4,zero
9d004148:	24840004 	addiu	a0,a0,4
9d00414c:	afa400b0 	sw	a0,176(sp)
9d004150:	0b400f25 	j	9d003c94 <_do_print_cdfFnopuxX+0x500>
9d004154:	afa0007c 	sw	zero,124(sp)
9d004158:	8c950000 	lw	s5,0(a0)
9d00415c:	24840004 	addiu	a0,a0,4
9d004160:	afa400b0 	sw	a0,176(sp)
9d004164:	0b400eb7 	j	9d003adc <_do_print_cdfFnopuxX+0x348>
9d004168:	0015a7c3 	sra	s4,s5,0x1f
9d00416c:	36f78000 	ori	s7,s7,0x8000
9d004170:	26100001 	addiu	s0,s0,1
9d004174:	0b400f66 	j	9d003d98 <_do_print_cdfFnopuxX+0x604>
9d004178:	26100001 	addiu	s0,s0,1
9d00417c:	82620001 	lb	v0,1(s3)
9d004180:	38420030 	xori	v0,v0,0x30
9d004184:	0002102b 	sltu	v0,zero,v0
9d004188:	0b401009 	j	9d004024 <_do_print_cdfFnopuxX+0x890>
9d00418c:	00621823 	subu	v1,v1,v0
9d004190:	8c430000 	lw	v1,0(v0)
9d004194:	00001021 	move	v0,zero
9d004198:	8fa400b0 	lw	a0,176(sp)
9d00419c:	24840004 	addiu	a0,a0,4
9d0041a0:	afa400b0 	sw	a0,176(sp)
9d0041a4:	8fa40070 	lw	a0,112(sp)
9d0041a8:	0b400f09 	j	9d003c24 <_do_print_cdfFnopuxX+0x490>
9d0041ac:	ac640000 	sw	a0,0(v1)
9d0041b0:	27a3005f 	addiu	v1,sp,95
9d0041b4:	afa30078 	sw	v1,120(sp)
9d0041b8:	0b400ee3 	j	9d003b8c <_do_print_cdfFnopuxX+0x3f8>
9d0041bc:	00609821 	move	s3,v1
9d0041c0:	27a2005f 	addiu	v0,sp,95
9d0041c4:	afa20078 	sw	v0,120(sp)
9d0041c8:	0b400ee3 	j	9d003b8c <_do_print_cdfFnopuxX+0x3f8>
9d0041cc:	00409821 	move	s3,v0
9d0041d0:	0f402e69 	jal	9d00b9a4 <strlen>
9d0041d4:	02002021 	move	a0,s0
9d0041d8:	0b400fe5 	j	9d003f94 <_do_print_cdfFnopuxX+0x800>
9d0041dc:	afb70010 	sw	s7,16(sp)
9d0041e0:	8c820000 	lw	v0,0(a0)
9d0041e4:	8fa40070 	lw	a0,112(sp)
9d0041e8:	00041fc3 	sra	v1,a0,0x1f
9d0041ec:	8fa400b0 	lw	a0,176(sp)
9d0041f0:	24840004 	addiu	a0,a0,4
9d0041f4:	afa400b0 	sw	a0,176(sp)
9d0041f8:	8fa40070 	lw	a0,112(sp)
9d0041fc:	ac440000 	sw	a0,0(v0)
9d004200:	ac430004 	sw	v1,4(v0)
9d004204:	0b400f09 	j	9d003c24 <_do_print_cdfFnopuxX+0x490>
9d004208:	00001021 	move	v0,zero
9d00420c:	8fa200b0 	lw	v0,176(sp)
9d004210:	8c430000 	lw	v1,0(v0)
9d004214:	00001021 	move	v0,zero
9d004218:	8fa400b0 	lw	a0,176(sp)
9d00421c:	24840004 	addiu	a0,a0,4
9d004220:	afa400b0 	sw	a0,176(sp)
9d004224:	11400003 	beqz	t2,9d004234 <_do_print_cdfFnopuxX+0xaa0>
9d004228:	8fa40070 	lw	a0,112(sp)
9d00422c:	0b400f09 	j	9d003c24 <_do_print_cdfFnopuxX+0x490>
9d004230:	a0640000 	sb	a0,0(v1)
9d004234:	0b400f09 	j	9d003c24 <_do_print_cdfFnopuxX+0x490>
9d004238:	ac640000 	sw	a0,0(v1)

Disassembly of section .text.malloc:

9d00423c <malloc>:
9d00423c:	27bdffc0 	addiu	sp,sp,-64
9d004240:	afbf003c 	sw	ra,60(sp)
9d004244:	afbe0038 	sw	s8,56(sp)
9d004248:	afb70034 	sw	s7,52(sp)
9d00424c:	afb60030 	sw	s6,48(sp)
9d004250:	afb5002c 	sw	s5,44(sp)
9d004254:	afb40028 	sw	s4,40(sp)
9d004258:	afb30024 	sw	s3,36(sp)
9d00425c:	afb20020 	sw	s2,32(sp)
9d004260:	afb1001c 	sw	s1,28(sp)
9d004264:	afb00018 	sw	s0,24(sp)
9d004268:	2490000b 	addiu	s0,a0,11
9d00426c:	2e020017 	sltiu	v0,s0,23
9d004270:	10400021 	beqz	v0,9d0042f8 <malloc+0xbc>
9d004274:	7c101004 	ins	s0,zero,0x0,0x3
9d004278:	2c840011 	sltiu	a0,a0,17
9d00427c:	10800086 	beqz	a0,9d004498 <malloc+0x25c>
9d004280:	24100010 	li	s0,16
9d004284:	3c11a001 	lui	s1,0xa001
9d004288:	2631a92c 	addiu	s1,s1,-22228
9d00428c:	02301821 	addu	v1,s1,s0
9d004290:	8c62000c 	lw	v0,12(v1)
9d004294:	104300bb 	beq	v0,v1,9d004584 <malloc+0x348>
9d004298:	001040c2 	srl	t0,s0,0x3
9d00429c:	8c430004 	lw	v1,4(v0)
9d0042a0:	8c44000c 	lw	a0,12(v0)
9d0042a4:	8c450008 	lw	a1,8(v0)
9d0042a8:	7c030804 	ins	v1,zero,0x0,0x2
9d0042ac:	00431821 	addu	v1,v0,v1
9d0042b0:	8c660004 	lw	a2,4(v1)
9d0042b4:	aca4000c 	sw	a0,12(a1)
9d0042b8:	24420008 	addiu	v0,v0,8
9d0042bc:	34c60001 	ori	a2,a2,0x1
9d0042c0:	ac850008 	sw	a1,8(a0)
9d0042c4:	ac660004 	sw	a2,4(v1)
9d0042c8:	8fbf003c 	lw	ra,60(sp)
9d0042cc:	8fbe0038 	lw	s8,56(sp)
9d0042d0:	8fb70034 	lw	s7,52(sp)
9d0042d4:	8fb60030 	lw	s6,48(sp)
9d0042d8:	8fb5002c 	lw	s5,44(sp)
9d0042dc:	8fb40028 	lw	s4,40(sp)
9d0042e0:	8fb30024 	lw	s3,36(sp)
9d0042e4:	8fb20020 	lw	s2,32(sp)
9d0042e8:	8fb1001c 	lw	s1,28(sp)
9d0042ec:	8fb00018 	lw	s0,24(sp)
9d0042f0:	03e00008 	jr	ra
9d0042f4:	27bd0040 	addiu	sp,sp,64
9d0042f8:	06000067 	bltz	s0,9d004498 <malloc+0x25c>
9d0042fc:	0204202b 	sltu	a0,s0,a0
9d004300:	14800065 	bnez	a0,9d004498 <malloc+0x25c>
9d004304:	2e0201f8 	sltiu	v0,s0,504
9d004308:	1440ffdf 	bnez	v0,9d004288 <malloc+0x4c>
9d00430c:	3c11a001 	lui	s1,0xa001
9d004310:	00101242 	srl	v0,s0,0x9
9d004314:	1040000a 	beqz	v0,9d004340 <malloc+0x104>
9d004318:	2406007e 	li	a2,126
9d00431c:	2c430005 	sltiu	v1,v0,5
9d004320:	1460003d 	bnez	v1,9d004418 <malloc+0x1dc>
9d004324:	00104182 	srl	t0,s0,0x6
9d004328:	2c430015 	sltiu	v1,v0,21
9d00432c:	106000fc 	beqz	v1,9d004720 <malloc+0x4e4>
9d004330:	2c430055 	sltiu	v1,v0,85
9d004334:	2448005b 	addiu	t0,v0,91
9d004338:	0b4010d2 	j	9d004348 <malloc+0x10c>
9d00433c:	00083040 	sll	a2,t0,0x1
9d004340:	2408003f 	li	t0,63
9d004344:	3c11a001 	lui	s1,0xa001
9d004348:	00063080 	sll	a2,a2,0x2
9d00434c:	2631a92c 	addiu	s1,s1,-22228
9d004350:	02263021 	addu	a2,s1,a2
9d004354:	8cc2000c 	lw	v0,12(a2)
9d004358:	54c20009 	bnel	a2,v0,9d004380 <malloc+0x144>
9d00435c:	8c440004 	lw	a0,4(v0)
9d004360:	0b4010e7 	j	9d00439c <malloc+0x160>
9d004364:	25080001 	addiu	t0,t0,1
9d004368:	0463005b 	bgezl	v1,9d0044d8 <malloc+0x29c>
9d00436c:	00442021 	addu	a0,v0,a0
9d004370:	8c42000c 	lw	v0,12(v0)
9d004374:	50c20009 	beql	a2,v0,9d00439c <malloc+0x160>
9d004378:	25080001 	addiu	t0,t0,1
9d00437c:	8c440004 	lw	a0,4(v0)
9d004380:	7c040804 	ins	a0,zero,0x0,0x2
9d004384:	00901823 	subu	v1,a0,s0
9d004388:	28650010 	slti	a1,v1,16
9d00438c:	14a0fff6 	bnez	a1,9d004368 <malloc+0x12c>
9d004390:	00000000 	nop
9d004394:	2508ffff 	addiu	t0,t0,-1
9d004398:	25080001 	addiu	t0,t0,1
9d00439c:	8e220010 	lw	v0,16(s1)
9d0043a0:	3c06a001 	lui	a2,0xa001
9d0043a4:	24c6a934 	addiu	a2,a2,-22220
9d0043a8:	5046007c 	beql	v0,a2,9d00459c <malloc+0x360>
9d0043ac:	8e240004 	lw	a0,4(s1)
9d0043b0:	8c440004 	lw	a0,4(v0)
9d0043b4:	7c040804 	ins	a0,zero,0x0,0x2
9d0043b8:	00901823 	subu	v1,a0,s0
9d0043bc:	28650010 	slti	a1,v1,16
9d0043c0:	50a00059 	beqzl	a1,9d004528 <malloc+0x2ec>
9d0043c4:	00502021 	addu	a0,v0,s0
9d0043c8:	ae260014 	sw	a2,20(s1)
9d0043cc:	04600015 	bltz	v1,9d004424 <malloc+0x1e8>
9d0043d0:	ae260010 	sw	a2,16(s1)
9d0043d4:	00442021 	addu	a0,v0,a0
9d0043d8:	8c830004 	lw	v1,4(a0)
9d0043dc:	24420008 	addiu	v0,v0,8
9d0043e0:	34630001 	ori	v1,v1,0x1
9d0043e4:	ac830004 	sw	v1,4(a0)
9d0043e8:	8fbf003c 	lw	ra,60(sp)
9d0043ec:	8fbe0038 	lw	s8,56(sp)
9d0043f0:	8fb70034 	lw	s7,52(sp)
9d0043f4:	8fb60030 	lw	s6,48(sp)
9d0043f8:	8fb5002c 	lw	s5,44(sp)
9d0043fc:	8fb40028 	lw	s4,40(sp)
9d004400:	8fb30024 	lw	s3,36(sp)
9d004404:	8fb20020 	lw	s2,32(sp)
9d004408:	8fb1001c 	lw	s1,28(sp)
9d00440c:	8fb00018 	lw	s0,24(sp)
9d004410:	03e00008 	jr	ra
9d004414:	27bd0040 	addiu	sp,sp,64
9d004418:	25080038 	addiu	t0,t0,56
9d00441c:	0b4010d1 	j	9d004344 <malloc+0x108>
9d004420:	00083040 	sll	a2,t0,0x1
9d004424:	2c830200 	sltiu	v1,a0,512
9d004428:	546000c6 	bnezl	v1,9d004744 <malloc+0x508>
9d00442c:	000420c2 	srl	a0,a0,0x3
9d004430:	00041a42 	srl	v1,a0,0x9
9d004434:	2c650005 	sltiu	a1,v1,5
9d004438:	10a0014b 	beqz	a1,9d004968 <malloc+0x72c>
9d00443c:	2c650015 	sltiu	a1,v1,21
9d004440:	00042982 	srl	a1,a0,0x6
9d004444:	24a50038 	addiu	a1,a1,56
9d004448:	000538c0 	sll	a3,a1,0x3
9d00444c:	02273821 	addu	a3,s1,a3
9d004450:	8ce30008 	lw	v1,8(a3)
9d004454:	50670151 	beql	v1,a3,9d00499c <malloc+0x760>
9d004458:	8e240004 	lw	a0,4(s1)
9d00445c:	8c650004 	lw	a1,4(v1)
9d004460:	7c050804 	ins	a1,zero,0x0,0x2
9d004464:	0085282b 	sltu	a1,a0,a1
9d004468:	50a00005 	beqzl	a1,9d004480 <malloc+0x244>
9d00446c:	8c65000c 	lw	a1,12(v1)
9d004470:	8c630008 	lw	v1,8(v1)
9d004474:	54e3fffa 	bnel	a3,v1,9d004460 <malloc+0x224>
9d004478:	8c650004 	lw	a1,4(v1)
9d00447c:	8c65000c 	lw	a1,12(v1)
9d004480:	8e240004 	lw	a0,4(s1)
9d004484:	ac45000c 	sw	a1,12(v0)
9d004488:	ac430008 	sw	v1,8(v0)
9d00448c:	aca20008 	sw	v0,8(a1)
9d004490:	0b401167 	j	9d00459c <malloc+0x360>
9d004494:	ac62000c 	sw	v0,12(v1)
9d004498:	2403000c 	li	v1,12
9d00449c:	3c02a000 	lui	v0,0xa000
9d0044a0:	ac430054 	sw	v1,84(v0)
9d0044a4:	00001021 	move	v0,zero
9d0044a8:	8fbf003c 	lw	ra,60(sp)
9d0044ac:	8fbe0038 	lw	s8,56(sp)
9d0044b0:	8fb70034 	lw	s7,52(sp)
9d0044b4:	8fb60030 	lw	s6,48(sp)
9d0044b8:	8fb5002c 	lw	s5,44(sp)
9d0044bc:	8fb40028 	lw	s4,40(sp)
9d0044c0:	8fb30024 	lw	s3,36(sp)
9d0044c4:	8fb20020 	lw	s2,32(sp)
9d0044c8:	8fb1001c 	lw	s1,28(sp)
9d0044cc:	8fb00018 	lw	s0,24(sp)
9d0044d0:	03e00008 	jr	ra
9d0044d4:	27bd0040 	addiu	sp,sp,64
9d0044d8:	8c860004 	lw	a2,4(a0)
9d0044dc:	8c43000c 	lw	v1,12(v0)
9d0044e0:	8c450008 	lw	a1,8(v0)
9d0044e4:	34c60001 	ori	a2,a2,0x1
9d0044e8:	24420008 	addiu	v0,v0,8
9d0044ec:	aca3000c 	sw	v1,12(a1)
9d0044f0:	ac650008 	sw	a1,8(v1)
9d0044f4:	ac860004 	sw	a2,4(a0)
9d0044f8:	8fbf003c 	lw	ra,60(sp)
9d0044fc:	8fbe0038 	lw	s8,56(sp)
9d004500:	8fb70034 	lw	s7,52(sp)
9d004504:	8fb60030 	lw	s6,48(sp)
9d004508:	8fb5002c 	lw	s5,44(sp)
9d00450c:	8fb40028 	lw	s4,40(sp)
9d004510:	8fb30024 	lw	s3,36(sp)
9d004514:	8fb20020 	lw	s2,32(sp)
9d004518:	8fb1001c 	lw	s1,28(sp)
9d00451c:	8fb00018 	lw	s0,24(sp)
9d004520:	03e00008 	jr	ra
9d004524:	27bd0040 	addiu	sp,sp,64
9d004528:	36100001 	ori	s0,s0,0x1
9d00452c:	34670001 	ori	a3,v1,0x1
9d004530:	00832821 	addu	a1,a0,v1
9d004534:	ac500004 	sw	s0,4(v0)
9d004538:	24420008 	addiu	v0,v0,8
9d00453c:	ae240014 	sw	a0,20(s1)
9d004540:	ae240010 	sw	a0,16(s1)
9d004544:	ac86000c 	sw	a2,12(a0)
9d004548:	ac860008 	sw	a2,8(a0)
9d00454c:	ac870004 	sw	a3,4(a0)
9d004550:	aca30000 	sw	v1,0(a1)
9d004554:	8fbf003c 	lw	ra,60(sp)
9d004558:	8fbe0038 	lw	s8,56(sp)
9d00455c:	8fb70034 	lw	s7,52(sp)
9d004560:	8fb60030 	lw	s6,48(sp)
9d004564:	8fb5002c 	lw	s5,44(sp)
9d004568:	8fb40028 	lw	s4,40(sp)
9d00456c:	8fb30024 	lw	s3,36(sp)
9d004570:	8fb20020 	lw	s2,32(sp)
9d004574:	8fb1001c 	lw	s1,28(sp)
9d004578:	8fb00018 	lw	s0,24(sp)
9d00457c:	03e00008 	jr	ra
9d004580:	27bd0040 	addiu	sp,sp,64
9d004584:	24430008 	addiu	v1,v0,8
9d004588:	8c420014 	lw	v0,20(v0)
9d00458c:	1062ff83 	beq	v1,v0,9d00439c <malloc+0x160>
9d004590:	25080002 	addiu	t0,t0,2
9d004594:	0b4010a8 	j	9d0042a0 <malloc+0x64>
9d004598:	8c430004 	lw	v1,4(v0)
9d00459c:	00081083 	sra	v0,t0,0x2
9d0045a0:	24070001 	li	a3,1
9d0045a4:	00473804 	sllv	a3,a3,v0
9d0045a8:	0087102b 	sltu	v0,a0,a3
9d0045ac:	5440002a 	bnezl	v0,9d004658 <malloc+0x41c>
9d0045b0:	8e320008 	lw	s2,8(s1)
9d0045b4:	00871024 	and	v0,a0,a3
9d0045b8:	50400070 	beqzl	v0,9d00477c <malloc+0x540>
9d0045bc:	00073840 	sll	a3,a3,0x1
9d0045c0:	000850c0 	sll	t2,t0,0x3
9d0045c4:	022a5021 	addu	t2,s1,t2
9d0045c8:	01404821 	move	t1,t2
9d0045cc:	01005821 	move	t3,t0
9d0045d0:	8d22000c 	lw	v0,12(t1)
9d0045d4:	55220009 	bnel	t1,v0,9d0045fc <malloc+0x3c0>
9d0045d8:	8c440004 	lw	a0,4(v0)
9d0045dc:	0b4011ec 	j	9d0047b0 <malloc+0x574>
9d0045e0:	256b0001 	addiu	t3,t3,1
9d0045e4:	04630090 	bgezl	v1,9d004828 <malloc+0x5ec>
9d0045e8:	00442021 	addu	a0,v0,a0
9d0045ec:	8c42000c 	lw	v0,12(v0)
9d0045f0:	5122006f 	beql	t1,v0,9d0047b0 <malloc+0x574>
9d0045f4:	256b0001 	addiu	t3,t3,1
9d0045f8:	8c440004 	lw	a0,4(v0)
9d0045fc:	7c040804 	ins	a0,zero,0x0,0x2
9d004600:	00901823 	subu	v1,a0,s0
9d004604:	28650010 	slti	a1,v1,16
9d004608:	14a0fff6 	bnez	a1,9d0045e4 <malloc+0x3a8>
9d00460c:	00000000 	nop
9d004610:	8c45000c 	lw	a1,12(v0)
9d004614:	8c470008 	lw	a3,8(v0)
9d004618:	00502021 	addu	a0,v0,s0
9d00461c:	36100001 	ori	s0,s0,0x1
9d004620:	34690001 	ori	t1,v1,0x1
9d004624:	00834021 	addu	t0,a0,v1
9d004628:	ac500004 	sw	s0,4(v0)
9d00462c:	24420008 	addiu	v0,v0,8
9d004630:	ace5000c 	sw	a1,12(a3)
9d004634:	aca70008 	sw	a3,8(a1)
9d004638:	ae240014 	sw	a0,20(s1)
9d00463c:	ae240010 	sw	a0,16(s1)
9d004640:	ac86000c 	sw	a2,12(a0)
9d004644:	ac860008 	sw	a2,8(a0)
9d004648:	ac890004 	sw	t1,4(a0)
9d00464c:	0b4010b2 	j	9d0042c8 <malloc+0x8c>
9d004650:	ad030000 	sw	v1,0(t0)
9d004654:	8e320008 	lw	s2,8(s1)
9d004658:	8e540004 	lw	s4,4(s2)
9d00465c:	7c140804 	ins	s4,zero,0x0,0x2
9d004660:	0290102b 	sltu	v0,s4,s0
9d004664:	14400004 	bnez	v0,9d004678 <malloc+0x43c>
9d004668:	02901023 	subu	v0,s4,s0
9d00466c:	28430010 	slti	v1,v0,16
9d004670:	10600024 	beqz	v1,9d004704 <malloc+0x4c8>
9d004674:	02501821 	addu	v1,s2,s0
9d004678:	3c02a001 	lui	v0,0xa001
9d00467c:	8c55aec0 	lw	s5,-20800(v0)
9d004680:	3c1ea001 	lui	s8,0xa001
9d004684:	0254b821 	addu	s7,s2,s4
9d004688:	26b50010 	addiu	s5,s5,16
9d00468c:	0f403276 	jal	9d00c9d8 <getpagesize>
9d004690:	02b0a821 	addu	s5,s5,s0
9d004694:	0040b021 	move	s6,v0
9d004698:	8fc3a924 	lw	v1,-22236(s8)
9d00469c:	2402ffff 	li	v0,-1
9d0046a0:	10620004 	beq	v1,v0,9d0046b4 <malloc+0x478>
9d0046a4:	26a2ffff 	addiu	v0,s5,-1
9d0046a8:	00561021 	addu	v0,v0,s6
9d0046ac:	0016a823 	negu	s5,s6
9d0046b0:	02a2a824 	and	s5,s5,v0
9d0046b4:	0f4030ad 	jal	9d00c2b4 <sbrk>
9d0046b8:	02a02021 	move	a0,s5
9d0046bc:	00409821 	move	s3,v0
9d0046c0:	2402ffff 	li	v0,-1
9d0046c4:	52620007 	beql	s3,v0,9d0046e4 <malloc+0x4a8>
9d0046c8:	8e320008 	lw	s2,8(s1)
9d0046cc:	0277102b 	sltu	v0,s3,s7
9d0046d0:	1040005e 	beqz	v0,9d00484c <malloc+0x610>
9d0046d4:	3c03a001 	lui	v1,0xa001
9d0046d8:	5251005d 	beql	s2,s1,9d004850 <malloc+0x614>
9d0046dc:	8c62ae90 	lw	v0,-20848(v1)
9d0046e0:	8e320008 	lw	s2,8(s1)
9d0046e4:	8e420004 	lw	v0,4(s2)
9d0046e8:	7c020804 	ins	v0,zero,0x0,0x2
9d0046ec:	0050182b 	sltu	v1,v0,s0
9d0046f0:	146000a1 	bnez	v1,9d004978 <malloc+0x73c>
9d0046f4:	00501023 	subu	v0,v0,s0
9d0046f8:	28430010 	slti	v1,v0,16
9d0046fc:	1460009e 	bnez	v1,9d004978 <malloc+0x73c>
9d004700:	02501821 	addu	v1,s2,s0
9d004704:	36100001 	ori	s0,s0,0x1
9d004708:	34440001 	ori	a0,v0,0x1
9d00470c:	ae500004 	sw	s0,4(s2)
9d004710:	26420008 	addiu	v0,s2,8
9d004714:	ae230008 	sw	v1,8(s1)
9d004718:	0b4010b2 	j	9d0042c8 <malloc+0x8c>
9d00471c:	ac640004 	sw	a0,4(v1)
9d004720:	14600020 	bnez	v1,9d0047a4 <malloc+0x568>
9d004724:	00104302 	srl	t0,s0,0xc
9d004728:	2c430155 	sltiu	v1,v0,341
9d00472c:	10600088 	beqz	v1,9d004950 <malloc+0x714>
9d004730:	2c420555 	sltiu	v0,v0,1365
9d004734:	001043c2 	srl	t0,s0,0xf
9d004738:	25080077 	addiu	t0,t0,119
9d00473c:	0b4010d1 	j	9d004344 <malloc+0x108>
9d004740:	00083040 	sll	a2,t0,0x1
9d004744:	000418c0 	sll	v1,a0,0x3
9d004748:	02231821 	addu	v1,s1,v1
9d00474c:	8e270004 	lw	a3,4(s1)
9d004750:	8c650008 	lw	a1,8(v1)
9d004754:	00042083 	sra	a0,a0,0x2
9d004758:	24090001 	li	t1,1
9d00475c:	00892004 	sllv	a0,t1,a0
9d004760:	00872025 	or	a0,a0,a3
9d004764:	ac43000c 	sw	v1,12(v0)
9d004768:	ac450008 	sw	a1,8(v0)
9d00476c:	ae240004 	sw	a0,4(s1)
9d004770:	ac620008 	sw	v0,8(v1)
9d004774:	0b401167 	j	9d00459c <malloc+0x360>
9d004778:	aca2000c 	sw	v0,12(a1)
9d00477c:	7c080804 	ins	t0,zero,0x0,0x2
9d004780:	00871024 	and	v0,a0,a3
9d004784:	1440ff8e 	bnez	v0,9d0045c0 <malloc+0x384>
9d004788:	25080004 	addiu	t0,t0,4
9d00478c:	00073840 	sll	a3,a3,0x1
9d004790:	00871024 	and	v0,a0,a3
9d004794:	1040fffd 	beqz	v0,9d00478c <malloc+0x550>
9d004798:	25080004 	addiu	t0,t0,4
9d00479c:	0b401171 	j	9d0045c4 <malloc+0x388>
9d0047a0:	000850c0 	sll	t2,t0,0x3
9d0047a4:	2508006e 	addiu	t0,t0,110
9d0047a8:	0b4010d1 	j	9d004344 <malloc+0x108>
9d0047ac:	00083040 	sll	a2,t0,0x1
9d0047b0:	31620003 	andi	v0,t3,0x3
9d0047b4:	1440ff86 	bnez	v0,9d0045d0 <malloc+0x394>
9d0047b8:	25290008 	addiu	t1,t1,8
9d0047bc:	0b4011f4 	j	9d0047d0 <malloc+0x594>
9d0047c0:	2542fff8 	addiu	v0,t2,-8
9d0047c4:	15420009 	bne	t2,v0,9d0047ec <malloc+0x5b0>
9d0047c8:	2508ffff 	addiu	t0,t0,-1
9d0047cc:	2542fff8 	addiu	v0,t2,-8
9d0047d0:	31030003 	andi	v1,t0,0x3
9d0047d4:	5460fffb 	bnezl	v1,9d0047c4 <malloc+0x588>
9d0047d8:	8d4a0000 	lw	t2,0(t2)
9d0047dc:	8e220004 	lw	v0,4(s1)
9d0047e0:	00071827 	nor	v1,zero,a3
9d0047e4:	00621024 	and	v0,v1,v0
9d0047e8:	ae220004 	sw	v0,4(s1)
9d0047ec:	8e220004 	lw	v0,4(s1)
9d0047f0:	00073840 	sll	a3,a3,0x1
9d0047f4:	0047182b 	sltu	v1,v0,a3
9d0047f8:	5460ff97 	bnezl	v1,9d004658 <malloc+0x41c>
9d0047fc:	8e320008 	lw	s2,8(s1)
9d004800:	10e0ff94 	beqz	a3,9d004654 <malloc+0x418>
9d004804:	00e21824 	and	v1,a3,v0
9d004808:	1460ff6d 	bnez	v1,9d0045c0 <malloc+0x384>
9d00480c:	01604021 	move	t0,t3
9d004810:	00073840 	sll	a3,a3,0x1
9d004814:	00e21824 	and	v1,a3,v0
9d004818:	1060fffd 	beqz	v1,9d004810 <malloc+0x5d4>
9d00481c:	25080004 	addiu	t0,t0,4
9d004820:	0b401171 	j	9d0045c4 <malloc+0x388>
9d004824:	000850c0 	sll	t2,t0,0x3
9d004828:	8c860004 	lw	a2,4(a0)
9d00482c:	8c43000c 	lw	v1,12(v0)
9d004830:	8c450008 	lw	a1,8(v0)
9d004834:	34c60001 	ori	a2,a2,0x1
9d004838:	ac860004 	sw	a2,4(a0)
9d00483c:	24420008 	addiu	v0,v0,8
9d004840:	aca3000c 	sw	v1,12(a1)
9d004844:	0b4010b2 	j	9d0042c8 <malloc+0x8c>
9d004848:	ac650008 	sw	a1,8(v1)
9d00484c:	8c62ae90 	lw	v0,-20848(v1)
9d004850:	26c5ffff 	addiu	a1,s6,-1
9d004854:	02a21021 	addu	v0,s5,v0
9d004858:	12f3005c 	beq	s7,s3,9d0049cc <malloc+0x790>
9d00485c:	ac62ae90 	sw	v0,-20848(v1)
9d004860:	8fc6a924 	lw	a2,-22236(s8)
9d004864:	2404ffff 	li	a0,-1
9d004868:	50c40068 	beql	a2,a0,9d004a0c <malloc+0x7d0>
9d00486c:	3c02a001 	lui	v0,0xa001
9d004870:	0277b823 	subu	s7,s3,s7
9d004874:	00571021 	addu	v0,v0,s7
9d004878:	ac62ae90 	sw	v0,-20848(v1)
9d00487c:	32640007 	andi	a0,s3,0x7
9d004880:	10800004 	beqz	a0,9d004894 <malloc+0x658>
9d004884:	00001021 	move	v0,zero
9d004888:	24020008 	li	v0,8
9d00488c:	00441023 	subu	v0,v0,a0
9d004890:	02629821 	addu	s3,s3,v0
9d004894:	0275a821 	addu	s5,s3,s5
9d004898:	00561021 	addu	v0,v0,s6
9d00489c:	02a52824 	and	a1,s5,a1
9d0048a0:	0045a823 	subu	s5,v0,a1
9d0048a4:	02a02021 	move	a0,s5
9d0048a8:	0f4030ad 	jal	9d00c2b4 <sbrk>
9d0048ac:	afa30010 	sw	v1,16(sp)
9d0048b0:	2404ffff 	li	a0,-1
9d0048b4:	10440052 	beq	v0,a0,9d004a00 <malloc+0x7c4>
9d0048b8:	8fa30010 	lw	v1,16(sp)
9d0048bc:	00531023 	subu	v0,v0,s3
9d0048c0:	02a22021 	addu	a0,s5,v0
9d0048c4:	34840001 	ori	a0,a0,0x1
9d0048c8:	8c62ae90 	lw	v0,-20848(v1)
9d0048cc:	ae330008 	sw	s3,8(s1)
9d0048d0:	02a21021 	addu	v0,s5,v0
9d0048d4:	ac62ae90 	sw	v0,-20848(v1)
9d0048d8:	1251000f 	beq	s2,s1,9d004918 <malloc+0x6dc>
9d0048dc:	ae640004 	sw	a0,4(s3)
9d0048e0:	2e830010 	sltiu	v1,s4,16
9d0048e4:	14600028 	bnez	v1,9d004988 <malloc+0x74c>
9d0048e8:	2683fff4 	addiu	v1,s4,-12
9d0048ec:	7c031004 	ins	v1,zero,0x0,0x3
9d0048f0:	02432021 	addu	a0,s2,v1
9d0048f4:	24050005 	li	a1,5
9d0048f8:	ac850004 	sw	a1,4(a0)
9d0048fc:	ac850008 	sw	a1,8(a0)
9d004900:	8e450004 	lw	a1,4(s2)
9d004904:	2c640010 	sltiu	a0,v1,16
9d004908:	30a50001 	andi	a1,a1,0x1
9d00490c:	00651825 	or	v1,v1,a1
9d004910:	10800036 	beqz	a0,9d0049ec <malloc+0x7b0>
9d004914:	ae430004 	sw	v1,4(s2)
9d004918:	3c03a001 	lui	v1,0xa001
9d00491c:	8c64aebc 	lw	a0,-20804(v1)
9d004920:	0082202b 	sltu	a0,a0,v0
9d004924:	54800001 	bnezl	a0,9d00492c <malloc+0x6f0>
9d004928:	ac62aebc 	sw	v0,-20804(v1)
9d00492c:	3c03a001 	lui	v1,0xa001
9d004930:	8c64aeb8 	lw	a0,-20808(v1)
9d004934:	0082202b 	sltu	a0,a0,v0
9d004938:	10800002 	beqz	a0,9d004944 <malloc+0x708>
9d00493c:	8e320008 	lw	s2,8(s1)
9d004940:	ac62aeb8 	sw	v0,-20808(v1)
9d004944:	8e420004 	lw	v0,4(s2)
9d004948:	0b4011bb 	j	9d0046ec <malloc+0x4b0>
9d00494c:	7c020804 	ins	v0,zero,0x0,0x2
9d004950:	5040000b 	beqzl	v0,9d004980 <malloc+0x744>
9d004954:	240600fc 	li	a2,252
9d004958:	00104482 	srl	t0,s0,0x12
9d00495c:	2508007c 	addiu	t0,t0,124
9d004960:	0b4010d1 	j	9d004344 <malloc+0x108>
9d004964:	00083040 	sll	a2,t0,0x1
9d004968:	50a00013 	beqzl	a1,9d0049b8 <malloc+0x77c>
9d00496c:	2c650055 	sltiu	a1,v1,85
9d004970:	0b401112 	j	9d004448 <malloc+0x20c>
9d004974:	2465005b 	addiu	a1,v1,91
9d004978:	0b4010b2 	j	9d0042c8 <malloc+0x8c>
9d00497c:	00001021 	move	v0,zero
9d004980:	0b4010d1 	j	9d004344 <malloc+0x108>
9d004984:	2408007e 	li	t0,126
9d004988:	24020001 	li	v0,1
9d00498c:	ae620004 	sw	v0,4(s3)
9d004990:	02609021 	move	s2,s3
9d004994:	0b4011bb 	j	9d0046ec <malloc+0x4b0>
9d004998:	00001021 	move	v0,zero
9d00499c:	00052883 	sra	a1,a1,0x2
9d0049a0:	24070001 	li	a3,1
9d0049a4:	00a72804 	sllv	a1,a3,a1
9d0049a8:	00a42025 	or	a0,a1,a0
9d0049ac:	ae240004 	sw	a0,4(s1)
9d0049b0:	0b401121 	j	9d004484 <malloc+0x248>
9d0049b4:	00602821 	move	a1,v1
9d0049b8:	50a00016 	beqzl	a1,9d004a14 <malloc+0x7d8>
9d0049bc:	2c650155 	sltiu	a1,v1,341
9d0049c0:	00042b02 	srl	a1,a0,0xc
9d0049c4:	0b401112 	j	9d004448 <malloc+0x20c>
9d0049c8:	24a5006e 	addiu	a1,a1,110
9d0049cc:	02e52024 	and	a0,s7,a1
9d0049d0:	5480ffa4 	bnezl	a0,9d004864 <malloc+0x628>
9d0049d4:	8fc6a924 	lw	a2,-22236(s8)
9d0049d8:	8e230008 	lw	v1,8(s1)
9d0049dc:	02b42021 	addu	a0,s5,s4
9d0049e0:	34840001 	ori	a0,a0,0x1
9d0049e4:	0b401246 	j	9d004918 <malloc+0x6dc>
9d0049e8:	ac640004 	sw	a0,4(v1)
9d0049ec:	0f4023e5 	jal	9d008f94 <free>
9d0049f0:	26440008 	addiu	a0,s2,8
9d0049f4:	3c02a001 	lui	v0,0xa001
9d0049f8:	0b401246 	j	9d004918 <malloc+0x6dc>
9d0049fc:	8c42ae90 	lw	v0,-20848(v0)
9d004a00:	24040001 	li	a0,1
9d004a04:	0b401232 	j	9d0048c8 <malloc+0x68c>
9d004a08:	0000a821 	move	s5,zero
9d004a0c:	0b40121f 	j	9d00487c <malloc+0x640>
9d004a10:	ac53a924 	sw	s3,-22236(v0)
9d004a14:	10a00004 	beqz	a1,9d004a28 <malloc+0x7ec>
9d004a18:	2c630555 	sltiu	v1,v1,1365
9d004a1c:	00042bc2 	srl	a1,a0,0xf
9d004a20:	0b401112 	j	9d004448 <malloc+0x20c>
9d004a24:	24a50077 	addiu	a1,a1,119
9d004a28:	1060fe87 	beqz	v1,9d004448 <malloc+0x20c>
9d004a2c:	2405007e 	li	a1,126
9d004a30:	00042c82 	srl	a1,a0,0x12
9d004a34:	0b401112 	j	9d004448 <malloc+0x20c>
9d004a38:	24a5007c 	addiu	a1,a1,124

Disassembly of section .text._fconvert:

9d004a3c <_fconvert>:
9d004a3c:	27bdfd88 	addiu	sp,sp,-632
9d004a40:	afbf0274 	sw	ra,628(sp)
9d004a44:	afbe0270 	sw	s8,624(sp)
9d004a48:	afb7026c 	sw	s7,620(sp)
9d004a4c:	afb60268 	sw	s6,616(sp)
9d004a50:	afb50264 	sw	s5,612(sp)
9d004a54:	afb40260 	sw	s4,608(sp)
9d004a58:	afb3025c 	sw	s3,604(sp)
9d004a5c:	afb20258 	sw	s2,600(sp)
9d004a60:	afb10254 	sw	s1,596(sp)
9d004a64:	afb00250 	sw	s0,592(sp)
9d004a68:	00e08021 	move	s0,a3
9d004a6c:	3c027ff0 	lui	v0,0x7ff0
9d004a70:	00e21824 	and	v1,a3,v0
9d004a74:	afa40278 	sw	a0,632(sp)
9d004a78:	00c08821 	move	s1,a2
9d004a7c:	8fb20290 	lw	s2,656(sp)
9d004a80:	97a40294 	lhu	a0,660(sp)
9d004a84:	106200f6 	beq	v1,v0,9d004e60 <_fconvert+0x424>
9d004a88:	afa40240 	sw	a0,576(sp)
9d004a8c:	2402ffff 	li	v0,-1
9d004a90:	1242014d 	beq	s2,v0,9d004fc8 <_fconvert+0x58c>
9d004a94:	2a420028 	slti	v0,s2,40
9d004a98:	14400009 	bnez	v0,9d004ac0 <_fconvert+0x84>
9d004a9c:	afa00244 	sw	zero,580(sp)
9d004aa0:	8fa30288 	lw	v1,648(sp)
9d004aa4:	7c032944 	ins	v1,zero,0x5,0x1
9d004aa8:	24020047 	li	v0,71
9d004aac:	10620163 	beq	v1,v0,9d00503c <_fconvert+0x600>
9d004ab0:	8fa40240 	lw	a0,576(sp)
9d004ab4:	2652ffd9 	addiu	s2,s2,-39
9d004ab8:	afb20244 	sw	s2,580(sp)
9d004abc:	24120027 	li	s2,39
9d004ac0:	a3a00019 	sb	zero,25(sp)
9d004ac4:	0600007e 	bltz	s0,9d004cc0 <_fconvert+0x284>
9d004ac8:	afa00248 	sw	zero,584(sp)
9d004acc:	02202021 	move	a0,s1
9d004ad0:	02002821 	move	a1,s0
9d004ad4:	0f402a68 	jal	9d00a9a0 <dpmodf>
9d004ad8:	27a60230 	addiu	a2,sp,560
9d004adc:	afa20238 	sw	v0,568(sp)
9d004ae0:	afa3023c 	sw	v1,572(sp)
9d004ae4:	8fb00230 	lw	s0,560(sp)
9d004ae8:	8fb10234 	lw	s1,564(sp)
9d004aec:	00003021 	move	a2,zero
9d004af0:	00003821 	move	a3,zero
9d004af4:	02002021 	move	a0,s0
9d004af8:	0f402a1d 	jal	9d00a874 <__eqdf2>
9d004afc:	02202821 	move	a1,s1
9d004b00:	1040015a 	beqz	v0,9d00506c <_fconvert+0x630>
9d004b04:	0000a821 	move	s5,zero
9d004b08:	3c139d01 	lui	s3,0x9d01
9d004b0c:	8e77bdb8 	lw	s7,-16968(s3)
9d004b10:	8e76bdbc 	lw	s6,-16964(s3)
9d004b14:	27b40218 	addiu	s4,sp,536
9d004b18:	02e0f021 	move	s8,s7
9d004b1c:	02c09821 	move	s3,s6
9d004b20:	02e03021 	move	a2,s7
9d004b24:	02c03821 	move	a3,s6
9d004b28:	02002021 	move	a0,s0
9d004b2c:	0f401714 	jal	9d005c50 <__divdf3>
9d004b30:	02202821 	move	a1,s1
9d004b34:	00402021 	move	a0,v0
9d004b38:	00602821 	move	a1,v1
9d004b3c:	0f402a68 	jal	9d00a9a0 <dpmodf>
9d004b40:	27a60230 	addiu	a2,sp,560
9d004b44:	3c049d01 	lui	a0,0x9d01
9d004b48:	2484bdc0 	addiu	a0,a0,-16960
9d004b4c:	8c860000 	lw	a2,0(a0)
9d004b50:	8c870004 	lw	a3,4(a0)
9d004b54:	00402021 	move	a0,v0
9d004b58:	00602821 	move	a1,v1
9d004b5c:	afa20228 	sw	v0,552(sp)
9d004b60:	0f401cb5 	jal	9d0072d4 <__adddf3>
9d004b64:	afa3022c 	sw	v1,556(sp)
9d004b68:	00402021 	move	a0,v0
9d004b6c:	00602821 	move	a1,v1
9d004b70:	03c03021 	move	a2,s8
9d004b74:	0f40206b 	jal	9d0081ac <.LFE23>
9d004b78:	02603821 	move	a3,s3
9d004b7c:	00402021 	move	a0,v0
9d004b80:	0f402e8e 	jal	9d00ba38 <__fixdfsi>
9d004b84:	00602821 	move	a1,v1
9d004b88:	8fb00230 	lw	s0,560(sp)
9d004b8c:	8fb10234 	lw	s1,564(sp)
9d004b90:	2694ffff 	addiu	s4,s4,-1
9d004b94:	24420030 	addiu	v0,v0,48
9d004b98:	02002021 	move	a0,s0
9d004b9c:	02202821 	move	a1,s1
9d004ba0:	00003021 	move	a2,zero
9d004ba4:	00003821 	move	a3,zero
9d004ba8:	a2820001 	sb	v0,1(s4)
9d004bac:	0f402a1d 	jal	9d00a874 <__eqdf2>
9d004bb0:	26b50001 	addiu	s5,s5,1
9d004bb4:	1440ffdb 	bnez	v0,9d004b24 <_fconvert+0xe8>
9d004bb8:	02e03021 	move	a2,s7
9d004bbc:	24020046 	li	v0,70
9d004bc0:	8fa50288 	lw	a1,648(sp)
9d004bc4:	10a20043 	beq	a1,v0,9d004cd4 <_fconvert+0x298>
9d004bc8:	24020066 	li	v0,102
9d004bcc:	10a20041 	beq	a1,v0,9d004cd4 <_fconvert+0x298>
9d004bd0:	0000b021 	move	s6,zero
9d004bd4:	83a40019 	lb	a0,25(sp)
9d004bd8:	27a20019 	addiu	v0,sp,25
9d004bdc:	27a3001a 	addiu	v1,sp,26
9d004be0:	0064100a 	movz	v0,v1,a0
9d004be4:	8fa40248 	lw	a0,584(sp)
9d004be8:	10800029 	beqz	a0,9d004c90 <_fconvert+0x254>
9d004bec:	8fa50240 	lw	a1,576(sp)
9d004bf0:	2452ffff 	addiu	s2,v0,-1
9d004bf4:	a044ffff 	sb	a0,-1(v0)
9d004bf8:	26d60001 	addiu	s6,s6,1
9d004bfc:	8fa50240 	lw	a1,576(sp)
9d004c00:	30b10008 	andi	s1,a1,0x8
9d004c04:	3231ffff 	andi	s1,s1,0xffff
9d004c08:	8fa20244 	lw	v0,580(sp)
9d004c0c:	1620007d 	bnez	s1,9d004e04 <_fconvert+0x3c8>
9d004c10:	02c28021 	addu	s0,s6,v0
9d004c14:	8fa3028c 	lw	v1,652(sp)
9d004c18:	0203102a 	slt	v0,s0,v1
9d004c1c:	5040007a 	beqzl	v0,9d004e08 <_fconvert+0x3cc>
9d004c20:	02402021 	move	a0,s2
9d004c24:	8fa40240 	lw	a0,576(sp)
9d004c28:	30820004 	andi	v0,a0,0x4
9d004c2c:	10400108 	beqz	v0,9d005050 <_fconvert+0x614>
9d004c30:	8fa40278 	lw	a0,632(sp)
9d004c34:	00702823 	subu	a1,v1,s0
9d004c38:	3c069d01 	lui	a2,0x9d01
9d004c3c:	0f402df5 	jal	9d00b7d4 <repl>
9d004c40:	24c6bd74 	addiu	a2,a2,-17036
9d004c44:	2403ffff 	li	v1,-1
9d004c48:	1443006f 	bne	v0,v1,9d004e08 <_fconvert+0x3cc>
9d004c4c:	02402021 	move	a0,s2
9d004c50:	8fa3028c 	lw	v1,652(sp)
9d004c54:	0203102a 	slt	v0,s0,v1
9d004c58:	0202180a 	movz	v1,s0,v0
9d004c5c:	00601021 	move	v0,v1
9d004c60:	8fbf0274 	lw	ra,628(sp)
9d004c64:	8fbe0270 	lw	s8,624(sp)
9d004c68:	8fb7026c 	lw	s7,620(sp)
9d004c6c:	8fb60268 	lw	s6,616(sp)
9d004c70:	8fb50264 	lw	s5,612(sp)
9d004c74:	8fb40260 	lw	s4,608(sp)
9d004c78:	8fb3025c 	lw	s3,604(sp)
9d004c7c:	8fb20258 	lw	s2,600(sp)
9d004c80:	8fb10254 	lw	s1,596(sp)
9d004c84:	8fb00250 	lw	s0,592(sp)
9d004c88:	03e00008 	jr	ra
9d004c8c:	27bd0278 	addiu	sp,sp,632
9d004c90:	30a30002 	andi	v1,a1,0x2
9d004c94:	546000d3 	bnezl	v1,9d004fe4 <_fconvert+0x5a8>
9d004c98:	2452ffff 	addiu	s2,v0,-1
9d004c9c:	8fa40240 	lw	a0,576(sp)
9d004ca0:	30830001 	andi	v1,a0,0x1
9d004ca4:	1060ffd5 	beqz	v1,9d004bfc <_fconvert+0x1c0>
9d004ca8:	00409021 	move	s2,v0
9d004cac:	2452ffff 	addiu	s2,v0,-1
9d004cb0:	24030020 	li	v1,32
9d004cb4:	a043ffff 	sb	v1,-1(v0)
9d004cb8:	0b4012ff 	j	9d004bfc <_fconvert+0x1c0>
9d004cbc:	26d60001 	addiu	s6,s6,1
9d004cc0:	3c028000 	lui	v0,0x8000
9d004cc4:	02028026 	xor	s0,s0,v0
9d004cc8:	2405002d 	li	a1,45
9d004ccc:	0b4012b3 	j	9d004acc <_fconvert+0x90>
9d004cd0:	afa50248 	sw	a1,584(sp)
9d004cd4:	12a00082 	beqz	s5,9d004ee0 <_fconvert+0x4a4>
9d004cd8:	24020030 	li	v0,48
9d004cdc:	26820001 	addiu	v0,s4,1
9d004ce0:	27a50219 	addiu	a1,sp,537
9d004ce4:	0045182b 	sltu	v1,v0,a1
9d004ce8:	106000f9 	beqz	v1,9d0050d0 <_fconvert+0x694>
9d004cec:	27b1001a 	addiu	s1,sp,26
9d004cf0:	02201821 	move	v1,s1
9d004cf4:	80440000 	lb	a0,0(v0)
9d004cf8:	24630001 	addiu	v1,v1,1
9d004cfc:	24420001 	addiu	v0,v0,1
9d004d00:	1445fffc 	bne	v0,a1,9d004cf4 <_fconvert+0x2b8>
9d004d04:	a064ffff 	sb	a0,-1(v1)
9d004d08:	03b48023 	subu	s0,sp,s4
9d004d0c:	26100218 	addiu	s0,s0,536
9d004d10:	02308021 	addu	s0,s1,s0
9d004d14:	12400077 	beqz	s2,9d004ef4 <_fconvert+0x4b8>
9d004d18:	8fa30240 	lw	v1,576(sp)
9d004d1c:	8fa40238 	lw	a0,568(sp)
9d004d20:	8fa5023c 	lw	a1,572(sp)
9d004d24:	00003021 	move	a2,zero
9d004d28:	00003821 	move	a3,zero
9d004d2c:	26160001 	addiu	s6,s0,1
9d004d30:	2402002e 	li	v0,46
9d004d34:	0f402a1d 	jal	9d00a874 <__eqdf2>
9d004d38:	a2020000 	sb	v0,0(s0)
9d004d3c:	1040009a 	beqz	v0,9d004fa8 <_fconvert+0x56c>
9d004d40:	2643ffff 	addiu	v1,s2,-1
9d004d44:	3c139d01 	lui	s3,0x9d01
9d004d48:	8e74bdb8 	lw	s4,-16968(s3)
9d004d4c:	0b401359 	j	9d004d64 <_fconvert+0x328>
9d004d50:	8e75bdbc 	lw	s5,-16964(s3)
9d004d54:	0f402a1d 	jal	9d00a874 <__eqdf2>
9d004d58:	00000000 	nop
9d004d5c:	10400092 	beqz	v0,9d004fa8 <_fconvert+0x56c>
9d004d60:	2643ffff 	addiu	v1,s2,-1
9d004d64:	02803021 	move	a2,s4
9d004d68:	02a03821 	move	a3,s5
9d004d6c:	8fa40238 	lw	a0,568(sp)
9d004d70:	0f40206b 	jal	9d0081ac <.LFE23>
9d004d74:	8fa5023c 	lw	a1,572(sp)
9d004d78:	00402021 	move	a0,v0
9d004d7c:	00602821 	move	a1,v1
9d004d80:	0f402a68 	jal	9d00a9a0 <dpmodf>
9d004d84:	27a60228 	addiu	a2,sp,552
9d004d88:	afa20238 	sw	v0,568(sp)
9d004d8c:	afa3023c 	sw	v1,572(sp)
9d004d90:	8fa40228 	lw	a0,552(sp)
9d004d94:	8fa5022c 	lw	a1,556(sp)
9d004d98:	26d60001 	addiu	s6,s6,1
9d004d9c:	0f402e8e 	jal	9d00ba38 <__fixdfsi>
9d004da0:	2652ffff 	addiu	s2,s2,-1
9d004da4:	8fa40238 	lw	a0,568(sp)
9d004da8:	8fa5023c 	lw	a1,572(sp)
9d004dac:	00003021 	move	a2,zero
9d004db0:	00003821 	move	a3,zero
9d004db4:	24420030 	addiu	v0,v0,48
9d004db8:	1640ffe6 	bnez	s2,9d004d54 <_fconvert+0x318>
9d004dbc:	a2c2ffff 	sb	v0,-1(s6)
9d004dc0:	8fa40238 	lw	a0,568(sp)
9d004dc4:	8fa5023c 	lw	a1,572(sp)
9d004dc8:	00003021 	move	a2,zero
9d004dcc:	0f402a1d 	jal	9d00a874 <__eqdf2>
9d004dd0:	00003821 	move	a3,zero
9d004dd4:	14400052 	bnez	v0,9d004f20 <_fconvert+0x4e4>
9d004dd8:	8e66bdb8 	lw	a2,-16968(s3)
9d004ddc:	02d1b023 	subu	s6,s6,s1
9d004de0:	83a40019 	lb	a0,25(sp)
9d004de4:	27a20019 	addiu	v0,sp,25
9d004de8:	27a3001a 	addiu	v1,sp,26
9d004dec:	0064100a 	movz	v0,v1,a0
9d004df0:	8fa40248 	lw	a0,584(sp)
9d004df4:	1080ffa6 	beqz	a0,9d004c90 <_fconvert+0x254>
9d004df8:	8fa50240 	lw	a1,576(sp)
9d004dfc:	0b4012fd 	j	9d004bf4 <_fconvert+0x1b8>
9d004e00:	2452ffff 	addiu	s2,v0,-1
9d004e04:	02402021 	move	a0,s2
9d004e08:	02c02821 	move	a1,s6
9d004e0c:	0f402fe8 	jal	9d00bfa0 <__sputn>
9d004e10:	8fa60278 	lw	a2,632(sp)
9d004e14:	2412ffff 	li	s2,-1
9d004e18:	1052ff8d 	beq	v0,s2,9d004c50 <_fconvert+0x214>
9d004e1c:	8fa30244 	lw	v1,580(sp)
9d004e20:	14600074 	bnez	v1,9d004ff4 <_fconvert+0x5b8>
9d004e24:	8fa40278 	lw	a0,632(sp)
9d004e28:	1220ff8a 	beqz	s1,9d004c54 <_fconvert+0x218>
9d004e2c:	8fa3028c 	lw	v1,652(sp)
9d004e30:	8fa4028c 	lw	a0,652(sp)
9d004e34:	0204102a 	slt	v0,s0,a0
9d004e38:	1040ff87 	beqz	v0,9d004c58 <_fconvert+0x21c>
9d004e3c:	0203102a 	slt	v0,s0,v1
9d004e40:	8fa40278 	lw	a0,632(sp)
9d004e44:	8fa2028c 	lw	v0,652(sp)
9d004e48:	00502823 	subu	a1,v0,s0
9d004e4c:	3c069d01 	lui	a2,0x9d01
9d004e50:	0f402df5 	jal	9d00b7d4 <repl>
9d004e54:	24c6bd94 	addiu	a2,a2,-17004
9d004e58:	0b401315 	j	9d004c54 <_fconvert+0x218>
9d004e5c:	8fa3028c 	lw	v1,652(sp)
9d004e60:	00c02021 	move	a0,a2
9d004e64:	00e02821 	move	a1,a3
9d004e68:	02203021 	move	a2,s1
9d004e6c:	0f402a1d 	jal	9d00a874 <__eqdf2>
9d004e70:	02003821 	move	a3,s0
9d004e74:	14400067 	bnez	v0,9d005014 <_fconvert+0x5d8>
9d004e78:	02202021 	move	a0,s1
9d004e7c:	02002821 	move	a1,s0
9d004e80:	00003021 	move	a2,zero
9d004e84:	0f402a1d 	jal	9d00a874 <__eqdf2>
9d004e88:	00003821 	move	a3,zero
9d004e8c:	04400079 	bltz	v0,9d005074 <_fconvert+0x638>
9d004e90:	8fa30240 	lw	v1,576(sp)
9d004e94:	afa30010 	sw	v1,16(sp)
9d004e98:	8fa40278 	lw	a0,632(sp)
9d004e9c:	3c059d01 	lui	a1,0x9d01
9d004ea0:	24a5bd64 	addiu	a1,a1,-17052
9d004ea4:	24060004 	li	a2,4
9d004ea8:	0f402981 	jal	9d00a604 <.LFE11>
9d004eac:	8fa7028c 	lw	a3,652(sp)
9d004eb0:	8fbf0274 	lw	ra,628(sp)
9d004eb4:	8fbe0270 	lw	s8,624(sp)
9d004eb8:	8fb7026c 	lw	s7,620(sp)
9d004ebc:	8fb60268 	lw	s6,616(sp)
9d004ec0:	8fb50264 	lw	s5,612(sp)
9d004ec4:	8fb40260 	lw	s4,608(sp)
9d004ec8:	8fb3025c 	lw	s3,604(sp)
9d004ecc:	8fb20258 	lw	s2,600(sp)
9d004ed0:	8fb10254 	lw	s1,596(sp)
9d004ed4:	8fb00250 	lw	s0,592(sp)
9d004ed8:	03e00008 	jr	ra
9d004edc:	27bd0278 	addiu	sp,sp,632
9d004ee0:	a3a2001a 	sb	v0,26(sp)
9d004ee4:	27b0001b 	addiu	s0,sp,27
9d004ee8:	1640ff8c 	bnez	s2,9d004d1c <_fconvert+0x2e0>
9d004eec:	27b1001a 	addiu	s1,sp,26
9d004ef0:	8fa30240 	lw	v1,576(sp)
9d004ef4:	30620800 	andi	v0,v1,0x800
9d004ef8:	14400068 	bnez	v0,9d00509c <_fconvert+0x660>
9d004efc:	8fa40238 	lw	a0,568(sp)
9d004f00:	8fa5023c 	lw	a1,572(sp)
9d004f04:	00003021 	move	a2,zero
9d004f08:	0f402a1d 	jal	9d00a874 <__eqdf2>
9d004f0c:	00003821 	move	a3,zero
9d004f10:	1040ffb2 	beqz	v0,9d004ddc <_fconvert+0x3a0>
9d004f14:	0200b021 	move	s6,s0
9d004f18:	3c139d01 	lui	s3,0x9d01
9d004f1c:	8e66bdb8 	lw	a2,-16968(s3)
9d004f20:	8e67bdbc 	lw	a3,-16964(s3)
9d004f24:	8fa40238 	lw	a0,568(sp)
9d004f28:	8fa5023c 	lw	a1,572(sp)
9d004f2c:	0f40206b 	jal	9d0081ac <.LFE23>
9d004f30:	26d0ffff 	addiu	s0,s6,-1
9d004f34:	00402021 	move	a0,v0
9d004f38:	00602821 	move	a1,v1
9d004f3c:	0f402a68 	jal	9d00a9a0 <dpmodf>
9d004f40:	27a60220 	addiu	a2,sp,544
9d004f44:	3c029d01 	lui	v0,0x9d01
9d004f48:	8c44bdc8 	lw	a0,-16952(v0)
9d004f4c:	8c45bdcc 	lw	a1,-16948(v0)
9d004f50:	8fa60220 	lw	a2,544(sp)
9d004f54:	0f402a1d 	jal	9d00a874 <__eqdf2>
9d004f58:	8fa70224 	lw	a3,548(sp)
9d004f5c:	2404002e 	li	a0,46
9d004f60:	0440000b 	bltz	v0,9d004f90 <_fconvert+0x554>
9d004f64:	24050030 	li	a1,48
9d004f68:	0b401378 	j	9d004de0 <_fconvert+0x3a4>
9d004f6c:	02d1b023 	subu	s6,s6,s1
9d004f70:	24420001 	addiu	v0,v0,1
9d004f74:	7c021420 	seb	v0,v0
9d004f78:	2843003a 	slti	v1,v0,58
9d004f7c:	54600052 	bnezl	v1,9d0050c8 <_fconvert+0x68c>
9d004f80:	a2020000 	sb	v0,0(s0)
9d004f84:	12110054 	beq	s0,s1,9d0050d8 <_fconvert+0x69c>
9d004f88:	a2050000 	sb	a1,0(s0)
9d004f8c:	2610ffff 	addiu	s0,s0,-1
9d004f90:	82020000 	lb	v0,0(s0)
9d004f94:	5444fff7 	bnel	v0,a0,9d004f74 <_fconvert+0x538>
9d004f98:	24420001 	addiu	v0,v0,1
9d004f9c:	8202ffff 	lb	v0,-1(s0)
9d004fa0:	0b4013dc 	j	9d004f70 <_fconvert+0x534>
9d004fa4:	2610ffff 	addiu	s0,s0,-1
9d004fa8:	24630001 	addiu	v1,v1,1
9d004fac:	02c31821 	addu	v1,s6,v1
9d004fb0:	24020030 	li	v0,48
9d004fb4:	26d60001 	addiu	s6,s6,1
9d004fb8:	16c3fffe 	bne	s6,v1,9d004fb4 <_fconvert+0x578>
9d004fbc:	a2c2ffff 	sb	v0,-1(s6)
9d004fc0:	0b401378 	j	9d004de0 <_fconvert+0x3a4>
9d004fc4:	02d1b023 	subu	s6,s6,s1
9d004fc8:	afa00244 	sw	zero,580(sp)
9d004fcc:	24120006 	li	s2,6
9d004fd0:	a3a00019 	sb	zero,25(sp)
9d004fd4:	0601febd 	bgez	s0,9d004acc <_fconvert+0x90>
9d004fd8:	afa00248 	sw	zero,584(sp)
9d004fdc:	0b401331 	j	9d004cc4 <_fconvert+0x288>
9d004fe0:	3c028000 	lui	v0,0x8000
9d004fe4:	2403002b 	li	v1,43
9d004fe8:	a043ffff 	sb	v1,-1(v0)
9d004fec:	0b4012ff 	j	9d004bfc <_fconvert+0x1c0>
9d004ff0:	26d60001 	addiu	s6,s6,1
9d004ff4:	8fa50244 	lw	a1,580(sp)
9d004ff8:	3c069d01 	lui	a2,0x9d01
9d004ffc:	0f402df5 	jal	9d00b7d4 <repl>
9d005000:	24c6bd74 	addiu	a2,a2,-17036
9d005004:	1452ff88 	bne	v0,s2,9d004e28 <_fconvert+0x3ec>
9d005008:	8fa3028c 	lw	v1,652(sp)
9d00500c:	0b401316 	j	9d004c58 <_fconvert+0x21c>
9d005010:	0203102a 	slt	v0,s0,v1
9d005014:	8fa50240 	lw	a1,576(sp)
9d005018:	afa50010 	sw	a1,16(sp)
9d00501c:	8fa40278 	lw	a0,632(sp)
9d005020:	3c059d01 	lui	a1,0x9d01
9d005024:	24a5bd58 	addiu	a1,a1,-17064
9d005028:	24060003 	li	a2,3
9d00502c:	0f402981 	jal	9d00a604 <.LFE11>
9d005030:	8fa7028c 	lw	a3,652(sp)
9d005034:	0b401319 	j	9d004c64 <_fconvert+0x228>
9d005038:	8fbf0274 	lw	ra,628(sp)
9d00503c:	30820800 	andi	v0,a0,0x800
9d005040:	5440fe9d 	bnezl	v0,9d004ab8 <_fconvert+0x7c>
9d005044:	2652ffd9 	addiu	s2,s2,-39
9d005048:	0b4012b0 	j	9d004ac0 <_fconvert+0x84>
9d00504c:	24120027 	li	s2,39
9d005050:	8fa2028c 	lw	v0,652(sp)
9d005054:	00502823 	subu	a1,v0,s0
9d005058:	3c069d01 	lui	a2,0x9d01
9d00505c:	0f402df5 	jal	9d00b7d4 <repl>
9d005060:	24c6bd94 	addiu	a2,a2,-17004
9d005064:	0b401312 	j	9d004c48 <_fconvert+0x20c>
9d005068:	2403ffff 	li	v1,-1
9d00506c:	0b4012ef 	j	9d004bbc <_fconvert+0x180>
9d005070:	27b40218 	addiu	s4,sp,536
9d005074:	8fa20240 	lw	v0,576(sp)
9d005078:	afa20010 	sw	v0,16(sp)
9d00507c:	8fa40278 	lw	a0,632(sp)
9d005080:	3c059d01 	lui	a1,0x9d01
9d005084:	24a5bd5c 	addiu	a1,a1,-17060
9d005088:	24060004 	li	a2,4
9d00508c:	0f402981 	jal	9d00a604 <.LFE11>
9d005090:	8fa7028c 	lw	a3,652(sp)
9d005094:	0b401319 	j	9d004c64 <_fconvert+0x228>
9d005098:	8fbf0274 	lw	ra,628(sp)
9d00509c:	8fa5023c 	lw	a1,572(sp)
9d0050a0:	00003021 	move	a2,zero
9d0050a4:	00003821 	move	a3,zero
9d0050a8:	26160001 	addiu	s6,s0,1
9d0050ac:	2402002e 	li	v0,46
9d0050b0:	0f402a1d 	jal	9d00a874 <__eqdf2>
9d0050b4:	a2020000 	sb	v0,0(s0)
9d0050b8:	5440ff98 	bnezl	v0,9d004f1c <_fconvert+0x4e0>
9d0050bc:	3c139d01 	lui	s3,0x9d01
9d0050c0:	0b401378 	j	9d004de0 <_fconvert+0x3a4>
9d0050c4:	02d1b023 	subu	s6,s6,s1
9d0050c8:	0b401378 	j	9d004de0 <_fconvert+0x3a4>
9d0050cc:	02d1b023 	subu	s6,s6,s1
9d0050d0:	0b401345 	j	9d004d14 <_fconvert+0x2d8>
9d0050d4:	02208021 	move	s0,s1
9d0050d8:	24020031 	li	v0,49
9d0050dc:	a3a20019 	sb	v0,25(sp)
9d0050e0:	27b10019 	addiu	s1,sp,25
9d0050e4:	0b401378 	j	9d004de0 <_fconvert+0x3a4>
9d0050e8:	02d1b023 	subu	s6,s6,s1

Disassembly of section .dinit:

9d0050ec <.dinit>:
9d0050ec:	a000a474 	sb	zero,-23436(zero)
9d0050f0:	000004b0 	tge	zero,zero,0x12
9d0050f4:	00000000 	nop
9d0050f8:	a0000018 	sb	zero,24(zero)
9d0050fc:	00000014 	0x14
9d005100:	00000000 	nop
9d005104:	a000006c 	sb	zero,108(zero)
9d005108:	0000a408 	0xa408
9d00510c:	00000000 	nop
9d005110:	a0000000 	sb	zero,0(zero)
9d005114:	00000010 	mfhi	zero
9d005118:	00000001 	movf	zero,zero,$fcc0
9d00511c:	459c4000 	0x459c4000
9d005120:	42960000 	c0	0x960000
9d005124:	3a51b717 	xori	s1,s2,0xb717
9d005128:	3d75c28f 	0x3d75c28f
9d00512c:	a000002c 	sb	zero,44(zero)
9d005130:	00000028 	0x28
9d005134:	00000000 	nop
9d005138:	a000ad34 	sb	zero,-21196(zero)
9d00513c:	000000d4 	0xd4
9d005140:	00000001 	movf	zero,zero,$fcc0
9d005144:	a000ad98 	sb	zero,-21096(zero)
9d005148:	a000adb4 	sb	zero,-21068(zero)
9d00514c:	a000add0 	sb	zero,-21040(zero)
9d005150:	a000ad94 	sb	zero,-21100(zero)
9d005154:	a000ae08 	sb	zero,-20984(zero)
9d005158:	00000001 	movf	zero,zero,$fcc0
	...
9d0051a8:	ffffffff 	sdc3	$31,-1(ra)
9d0051ac:	ffffffff 	sdc3	$31,-1(ra)
9d0051b0:	00000000 	nop
9d0051b4:	00000040 	ssnop
9d0051b8:	00001009 	jalr	v0,zero
9d0051bc:	00000000 	nop
9d0051c0:	9d00c888 	0x9d00c888
9d0051c4:	ffffffff 	sdc3	$31,-1(ra)
	...
9d0051d4:	00011002 	srl	v0,at,0x0
9d0051d8:	00000000 	nop
9d0051dc:	9d00c888 	0x9d00c888
9d0051e0:	ffffffff 	sdc3	$31,-1(ra)
	...
9d0051f0:	00020002 	srl	zero,v0,0x0
9d0051f4:	00000000 	nop
9d0051f8:	9d00c888 	0x9d00c888
9d0051fc:	fffffffd 	sdc3	$31,-3(ra)
	...
9d005218:	a000ae08 	sb	zero,-20984(zero)
9d00521c:	00000088 	0x88
9d005220:	00000000 	nop
9d005224:	a0000010 	sb	zero,16(zero)
9d005228:	00000004 	sllv	zero,zero,zero
9d00522c:	00000001 	movf	zero,zero,$fcc0
9d005230:	a000ad34 	sb	zero,-21196(zero)
9d005234:	a000af08 	sb	zero,-20728(zero)
9d005238:	00000004 	sllv	zero,zero,zero
9d00523c:	00000000 	nop
9d005240:	a000a924 	sb	zero,-22236(zero)
9d005244:	00000410 	0x410
9d005248:	00000001 	movf	zero,zero,$fcc0
9d00524c:	ffffffff 	sdc3	$31,-1(ra)
9d005250:	00002000 	sll	a0,zero,0x0
	...
9d00525c:	a000a92c 	sb	zero,-22228(zero)
9d005260:	a000a92c 	sb	zero,-22228(zero)
9d005264:	a000a934 	sb	zero,-22220(zero)
9d005268:	a000a934 	sb	zero,-22220(zero)
9d00526c:	a000a93c 	sb	zero,-22212(zero)
9d005270:	a000a93c 	sb	zero,-22212(zero)
9d005274:	a000a944 	sb	zero,-22204(zero)
9d005278:	a000a944 	sb	zero,-22204(zero)
9d00527c:	a000a94c 	sb	zero,-22196(zero)
9d005280:	a000a94c 	sb	zero,-22196(zero)
9d005284:	a000a954 	sb	zero,-22188(zero)
9d005288:	a000a954 	sb	zero,-22188(zero)
9d00528c:	a000a95c 	sb	zero,-22180(zero)
9d005290:	a000a95c 	sb	zero,-22180(zero)
9d005294:	a000a964 	sb	zero,-22172(zero)
9d005298:	a000a964 	sb	zero,-22172(zero)
9d00529c:	a000a96c 	sb	zero,-22164(zero)
9d0052a0:	a000a96c 	sb	zero,-22164(zero)
9d0052a4:	a000a974 	sb	zero,-22156(zero)
9d0052a8:	a000a974 	sb	zero,-22156(zero)
9d0052ac:	a000a97c 	sb	zero,-22148(zero)
9d0052b0:	a000a97c 	sb	zero,-22148(zero)
9d0052b4:	a000a984 	sb	zero,-22140(zero)
9d0052b8:	a000a984 	sb	zero,-22140(zero)
9d0052bc:	a000a98c 	sb	zero,-22132(zero)
9d0052c0:	a000a98c 	sb	zero,-22132(zero)
9d0052c4:	a000a994 	sb	zero,-22124(zero)
9d0052c8:	a000a994 	sb	zero,-22124(zero)
9d0052cc:	a000a99c 	sb	zero,-22116(zero)
9d0052d0:	a000a99c 	sb	zero,-22116(zero)
9d0052d4:	a000a9a4 	sb	zero,-22108(zero)
9d0052d8:	a000a9a4 	sb	zero,-22108(zero)
9d0052dc:	a000a9ac 	sb	zero,-22100(zero)
9d0052e0:	a000a9ac 	sb	zero,-22100(zero)
9d0052e4:	a000a9b4 	sb	zero,-22092(zero)
9d0052e8:	a000a9b4 	sb	zero,-22092(zero)
9d0052ec:	a000a9bc 	sb	zero,-22084(zero)
9d0052f0:	a000a9bc 	sb	zero,-22084(zero)
9d0052f4:	a000a9c4 	sb	zero,-22076(zero)
9d0052f8:	a000a9c4 	sb	zero,-22076(zero)
9d0052fc:	a000a9cc 	sb	zero,-22068(zero)
9d005300:	a000a9cc 	sb	zero,-22068(zero)
9d005304:	a000a9d4 	sb	zero,-22060(zero)
9d005308:	a000a9d4 	sb	zero,-22060(zero)
9d00530c:	a000a9dc 	sb	zero,-22052(zero)
9d005310:	a000a9dc 	sb	zero,-22052(zero)
9d005314:	a000a9e4 	sb	zero,-22044(zero)
9d005318:	a000a9e4 	sb	zero,-22044(zero)
9d00531c:	a000a9ec 	sb	zero,-22036(zero)
9d005320:	a000a9ec 	sb	zero,-22036(zero)
9d005324:	a000a9f4 	sb	zero,-22028(zero)
9d005328:	a000a9f4 	sb	zero,-22028(zero)
9d00532c:	a000a9fc 	sb	zero,-22020(zero)
9d005330:	a000a9fc 	sb	zero,-22020(zero)
9d005334:	a000aa04 	sb	zero,-22012(zero)
9d005338:	a000aa04 	sb	zero,-22012(zero)
9d00533c:	a000aa0c 	sb	zero,-22004(zero)
9d005340:	a000aa0c 	sb	zero,-22004(zero)
9d005344:	a000aa14 	sb	zero,-21996(zero)
9d005348:	a000aa14 	sb	zero,-21996(zero)
9d00534c:	a000aa1c 	sb	zero,-21988(zero)
9d005350:	a000aa1c 	sb	zero,-21988(zero)
9d005354:	a000aa24 	sb	zero,-21980(zero)
9d005358:	a000aa24 	sb	zero,-21980(zero)
9d00535c:	a000aa2c 	sb	zero,-21972(zero)
9d005360:	a000aa2c 	sb	zero,-21972(zero)
9d005364:	a000aa34 	sb	zero,-21964(zero)
9d005368:	a000aa34 	sb	zero,-21964(zero)
9d00536c:	a000aa3c 	sb	zero,-21956(zero)
9d005370:	a000aa3c 	sb	zero,-21956(zero)
9d005374:	a000aa44 	sb	zero,-21948(zero)
9d005378:	a000aa44 	sb	zero,-21948(zero)
9d00537c:	a000aa4c 	sb	zero,-21940(zero)
9d005380:	a000aa4c 	sb	zero,-21940(zero)
9d005384:	a000aa54 	sb	zero,-21932(zero)
9d005388:	a000aa54 	sb	zero,-21932(zero)
9d00538c:	a000aa5c 	sb	zero,-21924(zero)
9d005390:	a000aa5c 	sb	zero,-21924(zero)
9d005394:	a000aa64 	sb	zero,-21916(zero)
9d005398:	a000aa64 	sb	zero,-21916(zero)
9d00539c:	a000aa6c 	sb	zero,-21908(zero)
9d0053a0:	a000aa6c 	sb	zero,-21908(zero)
9d0053a4:	a000aa74 	sb	zero,-21900(zero)
9d0053a8:	a000aa74 	sb	zero,-21900(zero)
9d0053ac:	a000aa7c 	sb	zero,-21892(zero)
9d0053b0:	a000aa7c 	sb	zero,-21892(zero)
9d0053b4:	a000aa84 	sb	zero,-21884(zero)
9d0053b8:	a000aa84 	sb	zero,-21884(zero)
9d0053bc:	a000aa8c 	sb	zero,-21876(zero)
9d0053c0:	a000aa8c 	sb	zero,-21876(zero)
9d0053c4:	a000aa94 	sb	zero,-21868(zero)
9d0053c8:	a000aa94 	sb	zero,-21868(zero)
9d0053cc:	a000aa9c 	sb	zero,-21860(zero)
9d0053d0:	a000aa9c 	sb	zero,-21860(zero)
9d0053d4:	a000aaa4 	sb	zero,-21852(zero)
9d0053d8:	a000aaa4 	sb	zero,-21852(zero)
9d0053dc:	a000aaac 	sb	zero,-21844(zero)
9d0053e0:	a000aaac 	sb	zero,-21844(zero)
9d0053e4:	a000aab4 	sb	zero,-21836(zero)
9d0053e8:	a000aab4 	sb	zero,-21836(zero)
9d0053ec:	a000aabc 	sb	zero,-21828(zero)
9d0053f0:	a000aabc 	sb	zero,-21828(zero)
9d0053f4:	a000aac4 	sb	zero,-21820(zero)
9d0053f8:	a000aac4 	sb	zero,-21820(zero)
9d0053fc:	a000aacc 	sb	zero,-21812(zero)
9d005400:	a000aacc 	sb	zero,-21812(zero)
9d005404:	a000aad4 	sb	zero,-21804(zero)
9d005408:	a000aad4 	sb	zero,-21804(zero)
9d00540c:	a000aadc 	sb	zero,-21796(zero)
9d005410:	a000aadc 	sb	zero,-21796(zero)
9d005414:	a000aae4 	sb	zero,-21788(zero)
9d005418:	a000aae4 	sb	zero,-21788(zero)
9d00541c:	a000aaec 	sb	zero,-21780(zero)
9d005420:	a000aaec 	sb	zero,-21780(zero)
9d005424:	a000aaf4 	sb	zero,-21772(zero)
9d005428:	a000aaf4 	sb	zero,-21772(zero)
9d00542c:	a000aafc 	sb	zero,-21764(zero)
9d005430:	a000aafc 	sb	zero,-21764(zero)
9d005434:	a000ab04 	sb	zero,-21756(zero)
9d005438:	a000ab04 	sb	zero,-21756(zero)
9d00543c:	a000ab0c 	sb	zero,-21748(zero)
9d005440:	a000ab0c 	sb	zero,-21748(zero)
9d005444:	a000ab14 	sb	zero,-21740(zero)
9d005448:	a000ab14 	sb	zero,-21740(zero)
9d00544c:	a000ab1c 	sb	zero,-21732(zero)
9d005450:	a000ab1c 	sb	zero,-21732(zero)
9d005454:	a000ab24 	sb	zero,-21724(zero)
9d005458:	a000ab24 	sb	zero,-21724(zero)
9d00545c:	a000ab2c 	sb	zero,-21716(zero)
9d005460:	a000ab2c 	sb	zero,-21716(zero)
9d005464:	a000ab34 	sb	zero,-21708(zero)
9d005468:	a000ab34 	sb	zero,-21708(zero)
9d00546c:	a000ab3c 	sb	zero,-21700(zero)
9d005470:	a000ab3c 	sb	zero,-21700(zero)
9d005474:	a000ab44 	sb	zero,-21692(zero)
9d005478:	a000ab44 	sb	zero,-21692(zero)
9d00547c:	a000ab4c 	sb	zero,-21684(zero)
9d005480:	a000ab4c 	sb	zero,-21684(zero)
9d005484:	a000ab54 	sb	zero,-21676(zero)
9d005488:	a000ab54 	sb	zero,-21676(zero)
9d00548c:	a000ab5c 	sb	zero,-21668(zero)
9d005490:	a000ab5c 	sb	zero,-21668(zero)
9d005494:	a000ab64 	sb	zero,-21660(zero)
9d005498:	a000ab64 	sb	zero,-21660(zero)
9d00549c:	a000ab6c 	sb	zero,-21652(zero)
9d0054a0:	a000ab6c 	sb	zero,-21652(zero)
9d0054a4:	a000ab74 	sb	zero,-21644(zero)
9d0054a8:	a000ab74 	sb	zero,-21644(zero)
9d0054ac:	a000ab7c 	sb	zero,-21636(zero)
9d0054b0:	a000ab7c 	sb	zero,-21636(zero)
9d0054b4:	a000ab84 	sb	zero,-21628(zero)
9d0054b8:	a000ab84 	sb	zero,-21628(zero)
9d0054bc:	a000ab8c 	sb	zero,-21620(zero)
9d0054c0:	a000ab8c 	sb	zero,-21620(zero)
9d0054c4:	a000ab94 	sb	zero,-21612(zero)
9d0054c8:	a000ab94 	sb	zero,-21612(zero)
9d0054cc:	a000ab9c 	sb	zero,-21604(zero)
9d0054d0:	a000ab9c 	sb	zero,-21604(zero)
9d0054d4:	a000aba4 	sb	zero,-21596(zero)
9d0054d8:	a000aba4 	sb	zero,-21596(zero)
9d0054dc:	a000abac 	sb	zero,-21588(zero)
9d0054e0:	a000abac 	sb	zero,-21588(zero)
9d0054e4:	a000abb4 	sb	zero,-21580(zero)
9d0054e8:	a000abb4 	sb	zero,-21580(zero)
9d0054ec:	a000abbc 	sb	zero,-21572(zero)
9d0054f0:	a000abbc 	sb	zero,-21572(zero)
9d0054f4:	a000abc4 	sb	zero,-21564(zero)
9d0054f8:	a000abc4 	sb	zero,-21564(zero)
9d0054fc:	a000abcc 	sb	zero,-21556(zero)
9d005500:	a000abcc 	sb	zero,-21556(zero)
9d005504:	a000abd4 	sb	zero,-21548(zero)
9d005508:	a000abd4 	sb	zero,-21548(zero)
9d00550c:	a000abdc 	sb	zero,-21540(zero)
9d005510:	a000abdc 	sb	zero,-21540(zero)
9d005514:	a000abe4 	sb	zero,-21532(zero)
9d005518:	a000abe4 	sb	zero,-21532(zero)
9d00551c:	a000abec 	sb	zero,-21524(zero)
9d005520:	a000abec 	sb	zero,-21524(zero)
9d005524:	a000abf4 	sb	zero,-21516(zero)
9d005528:	a000abf4 	sb	zero,-21516(zero)
9d00552c:	a000abfc 	sb	zero,-21508(zero)
9d005530:	a000abfc 	sb	zero,-21508(zero)
9d005534:	a000ac04 	sb	zero,-21500(zero)
9d005538:	a000ac04 	sb	zero,-21500(zero)
9d00553c:	a000ac0c 	sb	zero,-21492(zero)
9d005540:	a000ac0c 	sb	zero,-21492(zero)
9d005544:	a000ac14 	sb	zero,-21484(zero)
9d005548:	a000ac14 	sb	zero,-21484(zero)
9d00554c:	a000ac1c 	sb	zero,-21476(zero)
9d005550:	a000ac1c 	sb	zero,-21476(zero)
9d005554:	a000ac24 	sb	zero,-21468(zero)
9d005558:	a000ac24 	sb	zero,-21468(zero)
9d00555c:	a000ac2c 	sb	zero,-21460(zero)
9d005560:	a000ac2c 	sb	zero,-21460(zero)
9d005564:	a000ac34 	sb	zero,-21452(zero)
9d005568:	a000ac34 	sb	zero,-21452(zero)
9d00556c:	a000ac3c 	sb	zero,-21444(zero)
9d005570:	a000ac3c 	sb	zero,-21444(zero)
9d005574:	a000ac44 	sb	zero,-21436(zero)
9d005578:	a000ac44 	sb	zero,-21436(zero)
9d00557c:	a000ac4c 	sb	zero,-21428(zero)
9d005580:	a000ac4c 	sb	zero,-21428(zero)
9d005584:	a000ac54 	sb	zero,-21420(zero)
9d005588:	a000ac54 	sb	zero,-21420(zero)
9d00558c:	a000ac5c 	sb	zero,-21412(zero)
9d005590:	a000ac5c 	sb	zero,-21412(zero)
9d005594:	a000ac64 	sb	zero,-21404(zero)
9d005598:	a000ac64 	sb	zero,-21404(zero)
9d00559c:	a000ac6c 	sb	zero,-21396(zero)
9d0055a0:	a000ac6c 	sb	zero,-21396(zero)
9d0055a4:	a000ac74 	sb	zero,-21388(zero)
9d0055a8:	a000ac74 	sb	zero,-21388(zero)
9d0055ac:	a000ac7c 	sb	zero,-21380(zero)
9d0055b0:	a000ac7c 	sb	zero,-21380(zero)
9d0055b4:	a000ac84 	sb	zero,-21372(zero)
9d0055b8:	a000ac84 	sb	zero,-21372(zero)
9d0055bc:	a000ac8c 	sb	zero,-21364(zero)
9d0055c0:	a000ac8c 	sb	zero,-21364(zero)
9d0055c4:	a000ac94 	sb	zero,-21356(zero)
9d0055c8:	a000ac94 	sb	zero,-21356(zero)
9d0055cc:	a000ac9c 	sb	zero,-21348(zero)
9d0055d0:	a000ac9c 	sb	zero,-21348(zero)
9d0055d4:	a000aca4 	sb	zero,-21340(zero)
9d0055d8:	a000aca4 	sb	zero,-21340(zero)
9d0055dc:	a000acac 	sb	zero,-21332(zero)
9d0055e0:	a000acac 	sb	zero,-21332(zero)
9d0055e4:	a000acb4 	sb	zero,-21324(zero)
9d0055e8:	a000acb4 	sb	zero,-21324(zero)
9d0055ec:	a000acbc 	sb	zero,-21316(zero)
9d0055f0:	a000acbc 	sb	zero,-21316(zero)
9d0055f4:	a000acc4 	sb	zero,-21308(zero)
9d0055f8:	a000acc4 	sb	zero,-21308(zero)
9d0055fc:	a000accc 	sb	zero,-21300(zero)
9d005600:	a000accc 	sb	zero,-21300(zero)
9d005604:	a000acd4 	sb	zero,-21292(zero)
9d005608:	a000acd4 	sb	zero,-21292(zero)
9d00560c:	a000acdc 	sb	zero,-21284(zero)
9d005610:	a000acdc 	sb	zero,-21284(zero)
9d005614:	a000ace4 	sb	zero,-21276(zero)
9d005618:	a000ace4 	sb	zero,-21276(zero)
9d00561c:	a000acec 	sb	zero,-21268(zero)
9d005620:	a000acec 	sb	zero,-21268(zero)
9d005624:	a000acf4 	sb	zero,-21260(zero)
9d005628:	a000acf4 	sb	zero,-21260(zero)
9d00562c:	a000acfc 	sb	zero,-21252(zero)
9d005630:	a000acfc 	sb	zero,-21252(zero)
9d005634:	a000ad04 	sb	zero,-21244(zero)
9d005638:	a000ad04 	sb	zero,-21244(zero)
9d00563c:	a000ad0c 	sb	zero,-21236(zero)
9d005640:	a000ad0c 	sb	zero,-21236(zero)
9d005644:	a000ad14 	sb	zero,-21228(zero)
9d005648:	a000ad14 	sb	zero,-21228(zero)
9d00564c:	a000ad1c 	sb	zero,-21220(zero)
9d005650:	a000ad1c 	sb	zero,-21220(zero)
9d005654:	a000ad24 	sb	zero,-21212(zero)
9d005658:	a000ad24 	sb	zero,-21212(zero)
9d00565c:	a000ae90 	sb	zero,-20848(zero)
9d005660:	00000034 	teq	zero,zero
9d005664:	00000000 	nop
9d005668:	a0000054 	sb	zero,84(zero)
9d00566c:	00000004 	sllv	zero,zero,zero
9d005670:	00000000 	nop
9d005674:	a000aee8 	sb	zero,-20760(zero)
9d005678:	00000020 	add	zero,zero,zero
9d00567c:	00000001 	movf	zero,zero,$fcc0
9d005680:	00000000 	nop
9d005684:	ffffffff 	sdc3	$31,-1(ra)
	...
9d0056a0:	a000af0c 	sb	zero,-20724(zero)
9d0056a4:	00000004 	sllv	zero,zero,zero
9d0056a8:	00000000 	nop
9d0056ac:	a000aec4 	sb	zero,-20796(zero)
9d0056b0:	00000024 	and	zero,zero,zero
9d0056b4:	00000000 	nop
9d0056b8:	a0000014 	sb	zero,20(zero)
9d0056bc:	00000004 	sllv	zero,zero,zero
9d0056c0:	00000001 	movf	zero,zero,$fcc0
9d0056c4:	00000002 	srl	zero,zero,0x0
9d0056c8:	00000000 	nop

Disassembly of section .text.realloc:

9d0056cc <realloc>:
9d0056cc:	27bdffc8 	addiu	sp,sp,-56
9d0056d0:	afbf0034 	sw	ra,52(sp)
9d0056d4:	afbe0030 	sw	s8,48(sp)
9d0056d8:	afb7002c 	sw	s7,44(sp)
9d0056dc:	afb60028 	sw	s6,40(sp)
9d0056e0:	afb50024 	sw	s5,36(sp)
9d0056e4:	afb40020 	sw	s4,32(sp)
9d0056e8:	afb3001c 	sw	s3,28(sp)
9d0056ec:	afb20018 	sw	s2,24(sp)
9d0056f0:	afb10014 	sw	s1,20(sp)
9d0056f4:	afb00010 	sw	s0,16(sp)
9d0056f8:	108000e5 	beqz	a0,9d005a90 <realloc+0x3c4>
9d0056fc:	00808021 	move	s0,a0
9d005700:	8c94fffc 	lw	s4,-4(a0)
9d005704:	24b2000b 	addiu	s2,a1,11
9d005708:	2e420017 	sltiu	v0,s2,23
9d00570c:	2493fff8 	addiu	s3,a0,-8
9d005710:	2403fffc 	li	v1,-4
9d005714:	10400047 	beqz	v0,9d005834 <realloc+0x168>
9d005718:	02838824 	and	s1,s4,v1
9d00571c:	24030010 	li	v1,16
9d005720:	24120010 	li	s2,16
9d005724:	0245102b 	sltu	v0,s2,a1
9d005728:	14400045 	bnez	v0,9d005840 <realloc+0x174>
9d00572c:	0223102a 	slt	v0,s1,v1
9d005730:	10400053 	beqz	v0,9d005880 <realloc+0x1b4>
9d005734:	32950001 	andi	s5,s4,0x1
9d005738:	3c17a001 	lui	s7,0xa001
9d00573c:	26f7a92c 	addiu	s7,s7,-22228
9d005740:	8ee40008 	lw	a0,8(s7)
9d005744:	02711021 	addu	v0,s3,s1
9d005748:	108200b6 	beq	a0,v0,9d005a24 <realloc+0x358>
9d00574c:	2408fffe 	li	t0,-2
9d005750:	8c460004 	lw	a2,4(v0)
9d005754:	00c83824 	and	a3,a2,t0
9d005758:	00473821 	addu	a3,v0,a3
9d00575c:	8ce70004 	lw	a3,4(a3)
9d005760:	30e70001 	andi	a3,a3,0x1
9d005764:	10e0005e 	beqz	a3,9d0058e0 <realloc+0x214>
9d005768:	7c060804 	ins	a2,zero,0x0,0x2
9d00576c:	00003021 	move	a2,zero
9d005770:	00001021 	move	v0,zero
9d005774:	32950001 	andi	s5,s4,0x1
9d005778:	16a00073 	bnez	s5,9d005948 <realloc+0x27c>
9d00577c:	00000000 	nop
9d005780:	8e16fff8 	lw	s6,-8(s0)
9d005784:	0276b023 	subu	s6,s3,s6
9d005788:	8ec70004 	lw	a3,4(s6)
9d00578c:	104000c9 	beqz	v0,9d005ab4 <realloc+0x3e8>
9d005790:	7c070804 	ins	a3,zero,0x0,0x2
9d005794:	104400c9 	beq	v0,a0,9d005abc <realloc+0x3f0>
9d005798:	00f13821 	addu	a3,a3,s1
9d00579c:	00c7b821 	addu	s7,a2,a3
9d0057a0:	02e3202a 	slt	a0,s7,v1
9d0057a4:	5480008d 	bnezl	a0,9d0059dc <realloc+0x310>
9d0057a8:	00e0b821 	move	s7,a3
9d0057ac:	8c43000c 	lw	v1,12(v0)
9d0057b0:	8c420008 	lw	v0,8(v0)
9d0057b4:	2626fffc 	addiu	a2,s1,-4
9d0057b8:	2cc40025 	sltiu	a0,a2,37
9d0057bc:	ac43000c 	sw	v1,12(v0)
9d0057c0:	ac620008 	sw	v0,8(v1)
9d0057c4:	8ec2000c 	lw	v0,12(s6)
9d0057c8:	8ec30008 	lw	v1,8(s6)
9d0057cc:	26d40008 	addiu	s4,s6,8
9d0057d0:	ac62000c 	sw	v0,12(v1)
9d0057d4:	1080008b 	beqz	a0,9d005a04 <realloc+0x338>
9d0057d8:	ac430008 	sw	v1,8(v0)
9d0057dc:	2cc20014 	sltiu	v0,a2,20
9d0057e0:	14400009 	bnez	v0,9d005808 <realloc+0x13c>
9d0057e4:	02801821 	move	v1,s4
9d0057e8:	8e030000 	lw	v1,0(s0)
9d0057ec:	2cc2001c 	sltiu	v0,a2,28
9d0057f0:	aec30008 	sw	v1,8(s6)
9d0057f4:	8e030004 	lw	v1,4(s0)
9d0057f8:	104000e8 	beqz	v0,9d005b9c <realloc+0x4d0>
9d0057fc:	aec3000c 	sw	v1,12(s6)
9d005800:	26c30010 	addiu	v1,s6,16
9d005804:	26100008 	addiu	s0,s0,8
9d005808:	8e020000 	lw	v0,0(s0)
9d00580c:	02e08821 	move	s1,s7
9d005810:	ac620000 	sw	v0,0(v1)
9d005814:	8e020004 	lw	v0,4(s0)
9d005818:	02c09821 	move	s3,s6
9d00581c:	ac620004 	sw	v0,4(v1)
9d005820:	8e020008 	lw	v0,8(s0)
9d005824:	ac620008 	sw	v0,8(v1)
9d005828:	8ed50004 	lw	s5,4(s6)
9d00582c:	0b401621 	j	9d005884 <realloc+0x1b8>
9d005830:	32b50001 	andi	s5,s5,0x1
9d005834:	7c121004 	ins	s2,zero,0x0,0x3
9d005838:	0641ffba 	bgez	s2,9d005724 <realloc+0x58>
9d00583c:	02401821 	move	v1,s2
9d005840:	2403000c 	li	v1,12
9d005844:	3c02a000 	lui	v0,0xa000
9d005848:	ac430054 	sw	v1,84(v0)
9d00584c:	00001021 	move	v0,zero
9d005850:	8fbf0034 	lw	ra,52(sp)
9d005854:	8fbe0030 	lw	s8,48(sp)
9d005858:	8fb7002c 	lw	s7,44(sp)
9d00585c:	8fb60028 	lw	s6,40(sp)
9d005860:	8fb50024 	lw	s5,36(sp)
9d005864:	8fb40020 	lw	s4,32(sp)
9d005868:	8fb3001c 	lw	s3,28(sp)
9d00586c:	8fb20018 	lw	s2,24(sp)
9d005870:	8fb10014 	lw	s1,20(sp)
9d005874:	8fb00010 	lw	s0,16(sp)
9d005878:	03e00008 	jr	ra
9d00587c:	27bd0038 	addiu	sp,sp,56
9d005880:	0200a021 	move	s4,s0
9d005884:	02321823 	subu	v1,s1,s2
9d005888:	2c650010 	sltiu	a1,v1,16
9d00588c:	10a00022 	beqz	a1,9d005918 <realloc+0x24c>
9d005890:	02722021 	addu	a0,s3,s2
9d005894:	02b1a825 	or	s5,s5,s1
9d005898:	ae750004 	sw	s5,4(s3)
9d00589c:	02718821 	addu	s1,s3,s1
9d0058a0:	8e220004 	lw	v0,4(s1)
9d0058a4:	34420001 	ori	v0,v0,0x1
9d0058a8:	ae220004 	sw	v0,4(s1)
9d0058ac:	02801021 	move	v0,s4
9d0058b0:	8fbf0034 	lw	ra,52(sp)
9d0058b4:	8fbe0030 	lw	s8,48(sp)
9d0058b8:	8fb7002c 	lw	s7,44(sp)
9d0058bc:	8fb60028 	lw	s6,40(sp)
9d0058c0:	8fb50024 	lw	s5,36(sp)
9d0058c4:	8fb40020 	lw	s4,32(sp)
9d0058c8:	8fb3001c 	lw	s3,28(sp)
9d0058cc:	8fb20018 	lw	s2,24(sp)
9d0058d0:	8fb10014 	lw	s1,20(sp)
9d0058d4:	8fb00010 	lw	s0,16(sp)
9d0058d8:	03e00008 	jr	ra
9d0058dc:	27bd0038 	addiu	sp,sp,56
9d0058e0:	00d13821 	addu	a3,a2,s1
9d0058e4:	00e3402a 	slt	t0,a3,v1
9d0058e8:	1500ffa3 	bnez	t0,9d005778 <realloc+0xac>
9d0058ec:	32950001 	andi	s5,s4,0x1
9d0058f0:	8c43000c 	lw	v1,12(v0)
9d0058f4:	8c420008 	lw	v0,8(v0)
9d0058f8:	ac43000c 	sw	v1,12(v0)
9d0058fc:	00e08821 	move	s1,a3
9d005900:	ac620008 	sw	v0,8(v1)
9d005904:	02321823 	subu	v1,s1,s2
9d005908:	2c650010 	sltiu	a1,v1,16
9d00590c:	14a0ffe1 	bnez	a1,9d005894 <realloc+0x1c8>
9d005910:	0200a021 	move	s4,s0
9d005914:	02722021 	addu	a0,s3,s2
9d005918:	02b29025 	or	s2,s5,s2
9d00591c:	34620001 	ori	v0,v1,0x1
9d005920:	ae720004 	sw	s2,4(s3)
9d005924:	00831821 	addu	v1,a0,v1
9d005928:	ac820004 	sw	v0,4(a0)
9d00592c:	8c620004 	lw	v0,4(v1)
9d005930:	24840008 	addiu	a0,a0,8
9d005934:	34420001 	ori	v0,v0,0x1
9d005938:	0f4023e5 	jal	9d008f94 <free>
9d00593c:	ac620004 	sw	v0,4(v1)
9d005940:	0b40162c 	j	9d0058b0 <realloc+0x1e4>
9d005944:	02801021 	move	v0,s4
9d005948:	0f40108f 	jal	9d00423c <malloc>
9d00594c:	00a02021 	move	a0,a1
9d005950:	104000ad 	beqz	v0,9d005c08 <realloc+0x53c>
9d005954:	0040b021 	move	s6,v0
9d005958:	7c140004 	ins	s4,zero,0x0,0x1
9d00595c:	2442fff8 	addiu	v0,v0,-8
9d005960:	0274a021 	addu	s4,s3,s4
9d005964:	10540088 	beq	v0,s4,9d005b88 <realloc+0x4bc>
9d005968:	2626fffc 	addiu	a2,s1,-4
9d00596c:	2cc20025 	sltiu	v0,a2,37
9d005970:	1040004b 	beqz	v0,9d005aa0 <realloc+0x3d4>
9d005974:	2cc20014 	sltiu	v0,a2,20
9d005978:	50400033 	beqzl	v0,9d005a48 <realloc+0x37c>
9d00597c:	8e040000 	lw	a0,0(s0)
9d005980:	02c01021 	move	v0,s6
9d005984:	02001821 	move	v1,s0
9d005988:	8c650000 	lw	a1,0(v1)
9d00598c:	8c640004 	lw	a0,4(v1)
9d005990:	8c630008 	lw	v1,8(v1)
9d005994:	ac450000 	sw	a1,0(v0)
9d005998:	ac440004 	sw	a0,4(v0)
9d00599c:	ac430008 	sw	v1,8(v0)
9d0059a0:	0f4023e5 	jal	9d008f94 <free>
9d0059a4:	02002021 	move	a0,s0
9d0059a8:	02c01021 	move	v0,s6
9d0059ac:	8fbf0034 	lw	ra,52(sp)
9d0059b0:	8fbe0030 	lw	s8,48(sp)
9d0059b4:	8fb7002c 	lw	s7,44(sp)
9d0059b8:	8fb60028 	lw	s6,40(sp)
9d0059bc:	8fb50024 	lw	s5,36(sp)
9d0059c0:	8fb40020 	lw	s4,32(sp)
9d0059c4:	8fb3001c 	lw	s3,28(sp)
9d0059c8:	8fb20018 	lw	s2,24(sp)
9d0059cc:	8fb10014 	lw	s1,20(sp)
9d0059d0:	8fb00010 	lw	s0,16(sp)
9d0059d4:	03e00008 	jr	ra
9d0059d8:	27bd0038 	addiu	sp,sp,56
9d0059dc:	02e3182a 	slt	v1,s7,v1
9d0059e0:	1460ffd9 	bnez	v1,9d005948 <realloc+0x27c>
9d0059e4:	2626fffc 	addiu	a2,s1,-4
9d0059e8:	8ec2000c 	lw	v0,12(s6)
9d0059ec:	8ec30008 	lw	v1,8(s6)
9d0059f0:	2cc40025 	sltiu	a0,a2,37
9d0059f4:	ac62000c 	sw	v0,12(v1)
9d0059f8:	26d40008 	addiu	s4,s6,8
9d0059fc:	1480ff77 	bnez	a0,9d0057dc <realloc+0x110>
9d005a00:	ac430008 	sw	v1,8(v0)
9d005a04:	02802021 	move	a0,s4
9d005a08:	0f403002 	jal	9d00c008 <memmove>
9d005a0c:	02002821 	move	a1,s0
9d005a10:	8ed50004 	lw	s5,4(s6)
9d005a14:	02e08821 	move	s1,s7
9d005a18:	32b50001 	andi	s5,s5,0x1
9d005a1c:	0b401621 	j	9d005884 <realloc+0x1b8>
9d005a20:	02c09821 	move	s3,s6
9d005a24:	8c860004 	lw	a2,4(a0)
9d005a28:	26470010 	addiu	a3,s2,16
9d005a2c:	7c060804 	ins	a2,zero,0x0,0x2
9d005a30:	00d11021 	addu	v0,a2,s1
9d005a34:	0047382a 	slt	a3,v0,a3
9d005a38:	50e0000b 	beqzl	a3,9d005a68 <realloc+0x39c>
9d005a3c:	00521023 	subu	v0,v0,s2
9d005a40:	0b4015dd 	j	9d005774 <realloc+0xa8>
9d005a44:	00801021 	move	v0,a0
9d005a48:	8e030004 	lw	v1,4(s0)
9d005a4c:	2cc2001c 	sltiu	v0,a2,28
9d005a50:	aec40000 	sw	a0,0(s6)
9d005a54:	10400042 	beqz	v0,9d005b60 <realloc+0x494>
9d005a58:	aec30004 	sw	v1,4(s6)
9d005a5c:	26c20008 	addiu	v0,s6,8
9d005a60:	0b401662 	j	9d005988 <realloc+0x2bc>
9d005a64:	26030008 	addiu	v1,s0,8
9d005a68:	02729821 	addu	s3,s3,s2
9d005a6c:	34420001 	ori	v0,v0,0x1
9d005a70:	aef30008 	sw	s3,8(s7)
9d005a74:	ae620004 	sw	v0,4(s3)
9d005a78:	8e03fffc 	lw	v1,-4(s0)
9d005a7c:	02001021 	move	v0,s0
9d005a80:	30630001 	andi	v1,v1,0x1
9d005a84:	02439025 	or	s2,s2,v1
9d005a88:	0b40162c 	j	9d0058b0 <realloc+0x1e4>
9d005a8c:	ae12fffc 	sw	s2,-4(s0)
9d005a90:	0f40108f 	jal	9d00423c <malloc>
9d005a94:	00a02021 	move	a0,a1
9d005a98:	0b40162d 	j	9d0058b4 <realloc+0x1e8>
9d005a9c:	8fbf0034 	lw	ra,52(sp)
9d005aa0:	02c02021 	move	a0,s6
9d005aa4:	0f403002 	jal	9d00c008 <memmove>
9d005aa8:	02002821 	move	a1,s0
9d005aac:	0b401668 	j	9d0059a0 <realloc+0x2d4>
9d005ab0:	00000000 	nop
9d005ab4:	0b401677 	j	9d0059dc <realloc+0x310>
9d005ab8:	00f1b821 	addu	s7,a3,s1
9d005abc:	00c7f021 	addu	s8,a2,a3
9d005ac0:	26420010 	addiu	v0,s2,16
9d005ac4:	03c2102a 	slt	v0,s8,v0
9d005ac8:	5440ffc4 	bnezl	v0,9d0059dc <realloc+0x310>
9d005acc:	00e0b821 	move	s7,a3
9d005ad0:	8ec3000c 	lw	v1,12(s6)
9d005ad4:	8ec50008 	lw	a1,8(s6)
9d005ad8:	2626fffc 	addiu	a2,s1,-4
9d005adc:	2cc20025 	sltiu	v0,a2,37
9d005ae0:	aca3000c 	sw	v1,12(a1)
9d005ae4:	26c70008 	addiu	a3,s6,8
9d005ae8:	10400042 	beqz	v0,9d005bf4 <realloc+0x528>
9d005aec:	ac650008 	sw	a1,8(v1)
9d005af0:	2cc20014 	sltiu	v0,a2,20
9d005af4:	14400009 	bnez	v0,9d005b1c <realloc+0x450>
9d005af8:	00e01821 	move	v1,a3
9d005afc:	8e030000 	lw	v1,0(s0)
9d005b00:	2cc2001c 	sltiu	v0,a2,28
9d005b04:	aec30008 	sw	v1,8(s6)
9d005b08:	8e030004 	lw	v1,4(s0)
9d005b0c:	10400040 	beqz	v0,9d005c10 <realloc+0x544>
9d005b10:	aec3000c 	sw	v1,12(s6)
9d005b14:	26c30010 	addiu	v1,s6,16
9d005b18:	26100008 	addiu	s0,s0,8
9d005b1c:	8e020000 	lw	v0,0(s0)
9d005b20:	ac620000 	sw	v0,0(v1)
9d005b24:	8e020004 	lw	v0,4(s0)
9d005b28:	ac620004 	sw	v0,4(v1)
9d005b2c:	8e020008 	lw	v0,8(s0)
9d005b30:	ac620008 	sw	v0,8(v1)
9d005b34:	03d21023 	subu	v0,s8,s2
9d005b38:	02d21821 	addu	v1,s6,s2
9d005b3c:	34420001 	ori	v0,v0,0x1
9d005b40:	aee30008 	sw	v1,8(s7)
9d005b44:	ac620004 	sw	v0,4(v1)
9d005b48:	8ec30004 	lw	v1,4(s6)
9d005b4c:	00e01021 	move	v0,a3
9d005b50:	30630001 	andi	v1,v1,0x1
9d005b54:	02439025 	or	s2,s2,v1
9d005b58:	0b40162c 	j	9d0058b0 <realloc+0x1e4>
9d005b5c:	aed20004 	sw	s2,4(s6)
9d005b60:	8e030008 	lw	v1,8(s0)
9d005b64:	8e02000c 	lw	v0,12(s0)
9d005b68:	aec30008 	sw	v1,8(s6)
9d005b6c:	aec2000c 	sw	v0,12(s6)
9d005b70:	24020024 	li	v0,36
9d005b74:	50c20013 	beql	a2,v0,9d005bc4 <realloc+0x4f8>
9d005b78:	8e030010 	lw	v1,16(s0)
9d005b7c:	26c20010 	addiu	v0,s6,16
9d005b80:	0b401662 	j	9d005988 <realloc+0x2bc>
9d005b84:	26030010 	addiu	v1,s0,16
9d005b88:	8ec2fffc 	lw	v0,-4(s6)
9d005b8c:	0200a021 	move	s4,s0
9d005b90:	7c020804 	ins	v0,zero,0x0,0x2
9d005b94:	0b401621 	j	9d005884 <realloc+0x1b8>
9d005b98:	02228821 	addu	s1,s1,v0
9d005b9c:	8e020008 	lw	v0,8(s0)
9d005ba0:	aec20010 	sw	v0,16(s6)
9d005ba4:	8e02000c 	lw	v0,12(s0)
9d005ba8:	aec20014 	sw	v0,20(s6)
9d005bac:	24020024 	li	v0,36
9d005bb0:	50c2000a 	beql	a2,v0,9d005bdc <realloc+0x510>
9d005bb4:	8e020010 	lw	v0,16(s0)
9d005bb8:	26c30018 	addiu	v1,s6,24
9d005bbc:	0b401602 	j	9d005808 <realloc+0x13c>
9d005bc0:	26100010 	addiu	s0,s0,16
9d005bc4:	8e040014 	lw	a0,20(s0)
9d005bc8:	26c20018 	addiu	v0,s6,24
9d005bcc:	aec30010 	sw	v1,16(s6)
9d005bd0:	26030018 	addiu	v1,s0,24
9d005bd4:	0b401662 	j	9d005988 <realloc+0x2bc>
9d005bd8:	aec40014 	sw	a0,20(s6)
9d005bdc:	26c30020 	addiu	v1,s6,32
9d005be0:	aec20018 	sw	v0,24(s6)
9d005be4:	8e020014 	lw	v0,20(s0)
9d005be8:	26100018 	addiu	s0,s0,24
9d005bec:	0b401602 	j	9d005808 <realloc+0x13c>
9d005bf0:	aec2001c 	sw	v0,28(s6)
9d005bf4:	00e02021 	move	a0,a3
9d005bf8:	0f403002 	jal	9d00c008 <memmove>
9d005bfc:	02002821 	move	a1,s0
9d005c00:	0b4016cd 	j	9d005b34 <realloc+0x468>
9d005c04:	00403821 	move	a3,v0
9d005c08:	0b40162c 	j	9d0058b0 <realloc+0x1e4>
9d005c0c:	00001021 	move	v0,zero
9d005c10:	8e020008 	lw	v0,8(s0)
9d005c14:	aec20010 	sw	v0,16(s6)
9d005c18:	8e02000c 	lw	v0,12(s0)
9d005c1c:	aec20014 	sw	v0,20(s6)
9d005c20:	24020024 	li	v0,36
9d005c24:	50c20004 	beql	a2,v0,9d005c38 <realloc+0x56c>
9d005c28:	8e020010 	lw	v0,16(s0)
9d005c2c:	26c30018 	addiu	v1,s6,24
9d005c30:	0b4016c7 	j	9d005b1c <realloc+0x450>
9d005c34:	26100010 	addiu	s0,s0,16
9d005c38:	26c30020 	addiu	v1,s6,32
9d005c3c:	aec20018 	sw	v0,24(s6)
9d005c40:	8e020014 	lw	v0,20(s0)
9d005c44:	26100018 	addiu	s0,s0,24
9d005c48:	0b4016c7 	j	9d005b1c <realloc+0x450>
9d005c4c:	aec2001c 	sw	v0,28(s6)

Disassembly of section .text.dp32mul:

9d005c50 <__divdf3>:
9d005c50:	00055040 000a5542 00054ac0 00047d42     @P..BU...J..B}..
9d005c60:	012f4825 000442c0 3c0e8000 012e4825     %H/..B.....<%H..
9d005c70:	00076840 000d6d42 000762c0 00067d42     @h..Bm...b..B}..
9d005c80:	018f6025 00065ac0 018e6025 00a72826     %`...Z..%`..&(..
9d005c90:	00ae2824 254fffff 2de107fe 102000cb     $(....O%...-.. .
9d005ca0:	00000000                                ....

9d005ca4 <Dlab1>:
9d005ca4:	25afffff 	addiu	t7,t5,-1
9d005ca8:	2de107fe 	sltiu	at,t7,2046
9d005cac:	102000f4 	beqz	at,9d006080 <DspecB>
9d005cb0:	00000000 	nop

9d005cb4 <Dlab2>:
9d005cb4:	014d5023 	subu	t2,t2,t5
9d005cb8:	254a03ff 	addiu	t2,t2,1023
9d005cbc:	00084042 	srl	t0,t0,0x1
9d005cc0:	00097fc0 	sll	t7,t1,0x1f
9d005cc4:	010f4025 	or	t0,t0,t7
9d005cc8:	00094842 	srl	t1,t1,0x1
9d005ccc:	000c3c02 	srl	a3,t4,0x10
9d005cd0:	00e001f4 	teq	a3,zero,0x7
9d005cd4:	0127001b 	divu	zero,t1,a3
9d005cd8:	00007012 	mflo	t6
9d005cdc:	00004810 	mfhi	t1
9d005ce0:	3186ffff 	andi	a2,t4,0xffff
9d005ce4:	00ce0019 	multu	a2,t6
9d005ce8:	00002012 	mflo	a0
9d005cec:	00094c00 	sll	t1,t1,0x10
9d005cf0:	00087c02 	srl	t7,t0,0x10
9d005cf4:	012f4825 	or	t1,t1,t7
9d005cf8:	0124782b 	sltu	t7,t1,a0
9d005cfc:	11e00006 	beqz	t7,9d005d18 <i20>
9d005d00:	01244823 	subu	t1,t1,a0

9d005d04 <b21>:
9d005d04:	25ceffff 	addiu	t6,t6,-1
9d005d08:	012c4821 	addu	t1,t1,t4
9d005d0c:	012c082b 	sltu	at,t1,t4
9d005d10:	1020fffc 	beqz	at,9d005d04 <b21>
9d005d14:	00000000 	nop

9d005d18 <i20>:
9d005d18:	00e001f4 	teq	a3,zero,0x7
9d005d1c:	0127001b 	divu	zero,t1,a3
9d005d20:	00003812 	mflo	a3
9d005d24:	00004810 	mfhi	t1
9d005d28:	00c70019 	multu	a2,a3
9d005d2c:	00002012 	mflo	a0
9d005d30:	00094c00 	sll	t1,t1,0x10
9d005d34:	310fffff 	andi	t7,t0,0xffff
9d005d38:	012f4825 	or	t1,t1,t7
9d005d3c:	0124782b 	sltu	t7,t1,a0
9d005d40:	11e00006 	beqz	t7,9d005d5c <i22>
9d005d44:	01244823 	subu	t1,t1,a0

9d005d48 <b23>:
9d005d48:	24e7ffff 	addiu	a3,a3,-1
9d005d4c:	012c4821 	addu	t1,t1,t4
9d005d50:	012c082b 	sltu	at,t1,t4
9d005d54:	1020fffc 	beqz	at,9d005d48 <b23>
9d005d58:	00000000 	nop

9d005d5c <i22>:
9d005d5c:	000e7400 	sll	t6,t6,0x10
9d005d60:	01c77021 	addu	t6,t6,a3
9d005d64:	01cb0019 	multu	t6,t3
9d005d68:	00003812 	mflo	a3
9d005d6c:	00002010 	mfhi	a0
9d005d70:	24080000 	li	t0,0
9d005d74:	0107782b 	sltu	t7,t0,a3
9d005d78:	01074023 	subu	t0,t0,a3
9d005d7c:	012f102b 	sltu	v0,t1,t7
9d005d80:	012f4823 	subu	t1,t1,t7
9d005d84:	0124782b 	sltu	t7,t1,a0
9d005d88:	01e27825 	or	t7,t7,v0
9d005d8c:	11e0000b 	beqz	t7,9d005dbc <i24>
9d005d90:	01244823 	subu	t1,t1,a0

9d005d94 <Dlab3>:
9d005d94:	25ceffff 	addiu	t6,t6,-1
9d005d98:	010b4021 	addu	t0,t0,t3
9d005d9c:	010b782b 	sltu	t7,t0,t3
9d005da0:	012c4821 	addu	t1,t1,t4
9d005da4:	012f4821 	addu	t1,t1,t7
9d005da8:	112c0002 	beq	t1,t4,9d005db4 <L31>
9d005dac:	00000000 	nop
9d005db0:	012c782b 	sltu	t7,t1,t4

9d005db4 <L31>:
9d005db4:	11e0fff7 	beqz	t7,9d005d94 <Dlab3>
9d005db8:	00000000 	nop

9d005dbc <i24>:
9d005dbc:	152c0006 	bne	t1,t4,9d005dd8 <i25>
9d005dc0:	00000000 	nop
9d005dc4:	000b2025 	or	a0,zero,t3
9d005dc8:	00084825 	or	t1,zero,t0
9d005dcc:	240d0000 	li	t5,0
9d005dd0:	1000002a 	b	9d005e7c <e25>
9d005dd4:	000d3825 	or	a3,zero,t5

9d005dd8 <i25>:
9d005dd8:	000c3c02 	srl	a3,t4,0x10
9d005ddc:	00e001f4 	teq	a3,zero,0x7
9d005de0:	0127001b 	divu	zero,t1,a3
9d005de4:	00006812 	mflo	t5
9d005de8:	00004810 	mfhi	t1
9d005dec:	3186ffff 	andi	a2,t4,0xffff
9d005df0:	00cd0019 	multu	a2,t5
9d005df4:	00002012 	mflo	a0
9d005df8:	00094c00 	sll	t1,t1,0x10
9d005dfc:	00087c02 	srl	t7,t0,0x10
9d005e00:	012f4825 	or	t1,t1,t7
9d005e04:	0124782b 	sltu	t7,t1,a0
9d005e08:	11e00006 	beqz	t7,9d005e24 <i26>
9d005e0c:	01244823 	subu	t1,t1,a0

9d005e10 <b27>:
9d005e10:	25adffff 	addiu	t5,t5,-1
9d005e14:	012c4821 	addu	t1,t1,t4
9d005e18:	012c082b 	sltu	at,t1,t4
9d005e1c:	1020fffc 	beqz	at,9d005e10 <b27>
9d005e20:	00000000 	nop

9d005e24 <i26>:
9d005e24:	00e001f4 	teq	a3,zero,0x7
9d005e28:	0127001b 	divu	zero,t1,a3
9d005e2c:	00003812 	mflo	a3
9d005e30:	00004810 	mfhi	t1
9d005e34:	00c70019 	multu	a2,a3
9d005e38:	00002012 	mflo	a0
9d005e3c:	00094c00 	sll	t1,t1,0x10
9d005e40:	310fffff 	andi	t7,t0,0xffff
9d005e44:	012f4825 	or	t1,t1,t7
9d005e48:	0124782b 	sltu	t7,t1,a0
9d005e4c:	11e00006 	beqz	t7,9d005e68 <i28>
9d005e50:	01244823 	subu	t1,t1,a0

9d005e54 <b29>:
9d005e54:	24e7ffff 	addiu	a3,a3,-1
9d005e58:	012c4821 	addu	t1,t1,t4
9d005e5c:	012c082b 	sltu	at,t1,t4
9d005e60:	1020fffc 	beqz	at,9d005e54 <b29>
9d005e64:	00000000 	nop

9d005e68 <i28>:
9d005e68:	000d6c00 	sll	t5,t5,0x10
9d005e6c:	01a76821 	addu	t5,t5,a3
9d005e70:	01ab0019 	multu	t5,t3
9d005e74:	00003812 	mflo	a3
9d005e78:	00002010 	mfhi	a0

9d005e7c <e25>:
9d005e7c:	24080000 	li	t0,0
9d005e80:	0107782b 	sltu	t7,t0,a3
9d005e84:	01074023 	subu	t0,t0,a3
9d005e88:	012f102b 	sltu	v0,t1,t7
9d005e8c:	012f4823 	subu	t1,t1,t7
9d005e90:	0124782b 	sltu	t7,t1,a0
9d005e94:	01e27825 	or	t7,t7,v0
9d005e98:	11e0000b 	beqz	t7,9d005ec8 <i30>
9d005e9c:	01244823 	subu	t1,t1,a0

9d005ea0 <Dlab4>:
9d005ea0:	25adffff 	addiu	t5,t5,-1
9d005ea4:	010b4021 	addu	t0,t0,t3
9d005ea8:	010b782b 	sltu	t7,t0,t3
9d005eac:	012c4821 	addu	t1,t1,t4
9d005eb0:	012f4821 	addu	t1,t1,t7
9d005eb4:	112c0002 	beq	t1,t4,9d005ec0 <L32>
9d005eb8:	00000000 	nop
9d005ebc:	012c782b 	sltu	t7,t1,t4

9d005ec0 <L32>:
9d005ec0:	11e0fff7 	beqz	t7,9d005ea0 <Dlab4>
9d005ec4:	00000000 	nop

9d005ec8 <i30>:
9d005ec8:	05c00006 	bltz	t6,9d005ee4 <i31>
9d005ecc:	00000000 	nop
9d005ed0:	01a0782a 	slt	t7,t5,zero
9d005ed4:	01ad6821 	addu	t5,t5,t5
9d005ed8:	01ce7021 	addu	t6,t6,t6
9d005edc:	01cf7021 	addu	t6,t6,t7
9d005ee0:	254affff 	addiu	t2,t2,-1

9d005ee4 <i31>:
9d005ee4:	01287825 	or	t7,t1,t0
9d005ee8:	11e00002 	beqz	t7,9d005ef4 <i32>
9d005eec:	00000000 	nop
9d005ef0:	35ad0001 	ori	t5,t5,0x1

9d005ef4 <i32>:
9d005ef4:	000e4825 	or	t1,zero,t6
9d005ef8:	000d4025 	or	t0,zero,t5
9d005efc:	254fffff 	addiu	t7,t2,-1
9d005f00:	2de107fe 	sltiu	at,t7,2046
9d005f04:	10200015 	beqz	at,9d005f5c <Doveund>
9d005f08:	00000000 	nop
9d005f0c:	25080400 	addiu	t0,t0,1024
9d005f10:	2d0f0400 	sltiu	t7,t0,1024
9d005f14:	012f4821 	addu	t1,t1,t7
9d005f18:	012f782b 	sltu	t7,t1,t7
9d005f1c:	014f5021 	addu	t2,t2,t7

9d005f20 <Dlab8>:
9d005f20:	00087ac2 	srl	t7,t0,0xb
9d005f24:	31ef0001 	andi	t7,t7,0x1
9d005f28:	010f4023 	subu	t0,t0,t7
9d005f2c:	000822c2 	srl	a0,t0,0xb
9d005f30:	00097d40 	sll	t7,t1,0x15
9d005f34:	008f2025 	or	a0,a0,t7
9d005f38:	00097840 	sll	t7,t1,0x1
9d005f3c:	000f7b02 	srl	t7,t7,0xc
9d005f40:	00af2825 	or	a1,a1,t7
9d005f44:	000a7d00 	sll	t7,t2,0x14
9d005f48:	00af2825 	or	a1,a1,t7

9d005f4c <Dret>:
9d005f4c:	00041025 	or	v0,zero,a0
9d005f50:	00051825 	or	v1,zero,a1

9d005f54 <D999>:
9d005f54:	03e00008 	jr	ra
9d005f58:	00000000 	nop

9d005f5c <Doveund>:
9d005f5c:	1d400044 	bgtz	t2,9d006070 <Dinf>
9d005f60:	00000000 	nop
9d005f64:	240e0001 	li	t6,1
9d005f68:	01ca7023 	subu	t6,t6,t2

9d005f6c <L33>:
9d005f6c:	2dc10020 	sltiu	at,t6,32
9d005f70:	14200007 	bnez	at,9d005f90 <L34>
9d005f74:	00000000 	nop
9d005f78:	21ceffe0 	addi	t6,t6,-32
9d005f7c:	0008202b 	sltu	a0,zero,t0
9d005f80:	1009000d 	beq	zero,t1,9d005fb8 <L35>
9d005f84:	01244025 	or	t0,t1,a0
9d005f88:	1000fff8 	b	9d005f6c <L33>
9d005f8c:	34090000 	li	t1,0x0

9d005f90 <L34>:
9d005f90:	11c00009 	beqz	t6,9d005fb8 <L35>
9d005f94:	00000000 	nop
9d005f98:	000e3022 	neg	a2,t6
9d005f9c:	00c82004 	sllv	a0,t0,a2
9d005fa0:	00c93004 	sllv	a2,t1,a2
9d005fa4:	01c84006 	srlv	t0,t0,t6
9d005fa8:	01c94806 	srlv	t1,t1,t6
9d005fac:	10800002 	beqz	a0,9d005fb8 <L35>
9d005fb0:	00c84025 	or	t0,a2,t0
9d005fb4:	35080002 	ori	t0,t0,0x2

9d005fb8 <L35>:
9d005fb8:	25080400 	addiu	t0,t0,1024
9d005fbc:	2d0f0400 	sltiu	t7,t0,1024
9d005fc0:	012f4821 	addu	t1,t1,t7
9d005fc4:	1000ffd6 	b	9d005f20 <Dlab8>
9d005fc8:	000957c2 	srl	t2,t1,0x1f

9d005fcc <DspecA>:
9d005fcc:	0100782a 	slt	t7,t0,zero
9d005fd0:	01084021 	addu	t0,t0,t0
9d005fd4:	01294821 	addu	t1,t1,t1
9d005fd8:	15400017 	bnez	t2,9d006038 <i33>
9d005fdc:	012f4821 	addu	t1,t1,t7
9d005fe0:	01287825 	or	t7,t1,t0
9d005fe4:	11e00014 	beqz	t7,9d006038 <i33>
9d005fe8:	00000000 	nop
9d005fec:	15200008 	bnez	t1,9d006010 <L36>
9d005ff0:	00000000 	nop
9d005ff4:	15000003 	bnez	t0,9d006004 <L37>
9d005ff8:	00000000 	nop
9d005ffc:	1000ff29 	b	9d005ca4 <Dlab1>
9d006000:	240a0000 	li	t2,0

9d006004 <L37>:
9d006004:	01004825 	move	t1,t0
9d006008:	24080000 	li	t0,0
9d00600c:	254affe0 	addiu	t2,t2,-32

9d006010 <L36>:
9d006010:	712e7020 	clz	t6,t1
9d006014:	11c0ff23 	beqz	t6,9d005ca4 <Dlab1>
9d006018:	00000000 	nop
9d00601c:	014e5023 	subu	t2,t2,t6
9d006020:	000e3022 	neg	a2,t6
9d006024:	00c83006 	srlv	a2,t0,a2
9d006028:	01c84004 	sllv	t0,t0,t6
9d00602c:	01c94804 	sllv	t1,t1,t6
9d006030:	1000ff1c 	b	9d005ca4 <Dlab1>
9d006034:	01264825 	or	t1,t1,a2

9d006038 <i33>:
9d006038:	154d0005 	bne	t2,t5,9d006050 <i35>
9d00603c:	00000000 	nop
9d006040:	000c7840 	sll	t7,t4,0x1
9d006044:	01eb7825 	or	t7,t7,t3
9d006048:	11e0002b 	beqz	t7,9d0060f8 <Dnan>
9d00604c:	00000000 	nop

9d006050 <i35>:
9d006050:	240107ff 	li	at,2047
9d006054:	11a1000a 	beq	t5,at,9d006080 <DspecB>
9d006058:	00000000 	nop
9d00605c:	1140ffbb 	beqz	t2,9d005f4c <Dret>
9d006060:	00000000 	nop
9d006064:	01287825 	or	t7,t1,t0
9d006068:	15e00023 	bnez	t7,9d0060f8 <Dnan>
9d00606c:	00000000 	nop

9d006070 <Dinf>:
9d006070:	3c017ff0 	lui	at,0x7ff0
9d006074:	00a12825 	or	a1,a1,at
9d006078:	1000ffb4 	b	9d005f4c <Dret>
9d00607c:	24040000 	li	a0,0

9d006080 <DspecB>:
9d006080:	0160782a 	slt	t7,t3,zero
9d006084:	016b5821 	addu	t3,t3,t3
9d006088:	018c6021 	addu	t4,t4,t4
9d00608c:	15a00017 	bnez	t5,9d0060ec <i36>
9d006090:	018f6021 	addu	t4,t4,t7
9d006094:	018b7825 	or	t7,t4,t3
9d006098:	11e0fff5 	beqz	t7,9d006070 <Dinf>
9d00609c:	00000000 	nop
9d0060a0:	15800008 	bnez	t4,9d0060c4 <L39>
9d0060a4:	00000000 	nop
9d0060a8:	15600003 	bnez	t3,9d0060b8 <L40>
9d0060ac:	00000000 	nop
9d0060b0:	1000ff00 	b	9d005cb4 <Dlab2>
9d0060b4:	240d0000 	li	t5,0

9d0060b8 <L40>:
9d0060b8:	01606025 	move	t4,t3
9d0060bc:	240b0000 	li	t3,0
9d0060c0:	25adffe0 	addiu	t5,t5,-32

9d0060c4 <L39>:
9d0060c4:	718e7020 	clz	t6,t4
9d0060c8:	11c0fefa 	beqz	t6,9d005cb4 <Dlab2>
9d0060cc:	00000000 	nop
9d0060d0:	01ae6823 	subu	t5,t5,t6
9d0060d4:	000e3022 	neg	a2,t6
9d0060d8:	00cb3006 	srlv	a2,t3,a2
9d0060dc:	01cb5804 	sllv	t3,t3,t6
9d0060e0:	01cc6004 	sllv	t4,t4,t6
9d0060e4:	1000fef3 	b	9d005cb4 <Dlab2>
9d0060e8:	01866025 	or	t4,t4,a2

9d0060ec <i36>:
9d0060ec:	018b7825 	or	t7,t4,t3
9d0060f0:	11e00002 	beqz	t7,9d0060fc <i38>
9d0060f4:	00000000 	nop

9d0060f8 <Dnan>:
9d0060f8:	3c05fff8 	lui	a1,0xfff8

9d0060fc <i38>:
9d0060fc:	1000ff93 	b	9d005f4c <Dret>
9d006100:	24040000 	li	a0,0
9d006104:	00000000 	nop

Disassembly of section .text:

9d006108 <__divdi3>:
9d006108:	04a00052 	bltz	a1,9d006254 <.LBE15+0x38>
9d00610c:	00004821 	move	t1,zero
9d006110:	04e20057 	bltzl	a3,9d006270 <.LBE15+0x54>
9d006114:	00063023 	negu	a2,a2

9d006118 <.LBB13>:
9d006118:	00c04021 	move	t0,a2
9d00611c:	00805021 	move	t2,a0
9d006120:	14e00046 	bnez	a3,9d00623c <.LBE15+0x20>
9d006124:	00a01821 	move	v1,a1
9d006128:	00a6102b 	sltu	v0,a1,a2
9d00612c:	1040005d 	beqz	v0,9d0062a4 <.LBE15+0x88>
9d006130:	70c21020 	clz	v0,a2
9d006134:	50400008 	beqzl	v0,9d006158 <.LBB15+0x4>
9d006138:	00082c02 	srl	a1,t0,0x10
9d00613c:	00022023 	negu	a0,v0
9d006140:	008a2006 	srlv	a0,t2,a0
9d006144:	00451804 	sllv	v1,a1,v0
9d006148:	00464004 	sllv	t0,a2,v0
9d00614c:	00831825 	or	v1,a0,v1
9d006150:	004a5004 	sllv	t2,t2,v0

9d006154 <.LBB15>:
9d006154:	00082c02 	srl	a1,t0,0x10
9d006158:	0065001b 	divu	zero,v1,a1
9d00615c:	00a001f4 	teq	a1,zero,0x7
9d006160:	00006010 	mfhi	t4
9d006164:	00005812 	mflo	t3
9d006168:	3107ffff 	andi	a3,t0,0xffff
9d00616c:	000a2402 	srl	a0,t2,0x10
9d006170:	00001012 	mflo	v0
9d006174:	71673002 	mul	a2,t3,a3
9d006178:	000c6400 	sll	t4,t4,0x10
9d00617c:	01842025 	or	a0,t4,a0
9d006180:	0086602b 	sltu	t4,a0,a2
9d006184:	0065001b 	divu	zero,v1,a1
9d006188:	00a001f4 	teq	a1,zero,0x7
9d00618c:	1180000b 	beqz	t4,9d0061bc <.LBB15+0x68>
9d006190:	00861823 	subu	v1,a0,a2
9d006194:	00882021 	addu	a0,a0,t0
9d006198:	0088182b 	sltu	v1,a0,t0
9d00619c:	14600006 	bnez	v1,9d0061b8 <.LBB15+0x64>
9d0061a0:	2562ffff 	addiu	v0,t3,-1
9d0061a4:	0086182b 	sltu	v1,a0,a2
9d0061a8:	10600004 	beqz	v1,9d0061bc <.LBB15+0x68>
9d0061ac:	00861823 	subu	v1,a0,a2
9d0061b0:	2562fffe 	addiu	v0,t3,-2
9d0061b4:	00882021 	addu	a0,a0,t0
9d0061b8:	00861823 	subu	v1,a0,a2
9d0061bc:	314affff 	andi	t2,t2,0xffff
9d0061c0:	0065001b 	divu	zero,v1,a1
9d0061c4:	00a001f4 	teq	a1,zero,0x7
9d0061c8:	00005810 	mfhi	t3
9d0061cc:	00003012 	mflo	a2
9d0061d0:	00002012 	mflo	a0
9d0061d4:	70c73802 	mul	a3,a2,a3
9d0061d8:	000b5c00 	sll	t3,t3,0x10
9d0061dc:	016a5025 	or	t2,t3,t2
9d0061e0:	0147582b 	sltu	t3,t2,a3
9d0061e4:	0065001b 	divu	zero,v1,a1
9d0061e8:	00a001f4 	teq	a1,zero,0x7
9d0061ec:	51600009 	beqzl	t3,9d006214 <.LBB15+0xc0>
9d0061f0:	00021400 	sll	v0,v0,0x10
9d0061f4:	01485021 	addu	t2,t2,t0
9d0061f8:	0148402b 	sltu	t0,t2,t0
9d0061fc:	15000004 	bnez	t0,9d006210 <.LBB15+0xbc>
9d006200:	24c4ffff 	addiu	a0,a2,-1
9d006204:	0147382b 	sltu	a3,t2,a3
9d006208:	24c6fffe 	addiu	a2,a2,-2
9d00620c:	00c7200b 	movn	a0,a2,a3
9d006210:	00021400 	sll	v0,v0,0x10
9d006214:	00821025 	or	v0,a0,v0
9d006218:	00001821 	move	v1,zero

9d00621c <.LBE15>:
9d00621c:	11200005 	beqz	t1,9d006234 <.LBE15+0x18>
9d006220:	00000000 	nop
9d006224:	00021023 	negu	v0,v0
9d006228:	0002202b 	sltu	a0,zero,v0
9d00622c:	00031823 	negu	v1,v1
9d006230:	00641823 	subu	v1,v1,a0
9d006234:	03e00008 	jr	ra
9d006238:	00000000 	nop
9d00623c:	00a7102b 	sltu	v0,a1,a3
9d006240:	10400010 	beqz	v0,9d006284 <.LBE15+0x68>
9d006244:	70e84020 	clz	t0,a3
9d006248:	00001821 	move	v1,zero
9d00624c:	0b401887 	j	9d00621c <.LBE15>
9d006250:	00001021 	move	v0,zero
9d006254:	00042023 	negu	a0,a0
9d006258:	0004102b 	sltu	v0,zero,a0
9d00625c:	00052823 	negu	a1,a1
9d006260:	00a22823 	subu	a1,a1,v0
9d006264:	04e1ffac 	bgez	a3,9d006118 <.LBB13>
9d006268:	2409ffff 	li	t1,-1
9d00626c:	00063023 	negu	a2,a2
9d006270:	0006102b 	sltu	v0,zero,a2
9d006274:	00073823 	negu	a3,a3
9d006278:	00094827 	nor	t1,zero,t1
9d00627c:	0b401846 	j	9d006118 <.LBB13>
9d006280:	00e23823 	subu	a3,a3,v0
9d006284:	1500007e 	bnez	t0,9d006480 <.LBE16+0xf8>
9d006288:	24020020 	li	v0,32
9d00628c:	00e5282b 	sltu	a1,a3,a1
9d006290:	14a000c6 	bnez	a1,9d0065ac <.LBE23+0x34>
9d006294:	00001821 	move	v1,zero
9d006298:	0086102b 	sltu	v0,a0,a2
9d00629c:	0b401887 	j	9d00621c <.LBE15>
9d0062a0:	38420001 	xori	v0,v0,0x1
9d0062a4:	14c00006 	bnez	a2,9d0062c0 <.LBE15+0xa4>
9d0062a8:	71021020 	clz	v0,t0
9d0062ac:	24080001 	li	t0,1
9d0062b0:	0107001b 	divu	zero,t0,a3
9d0062b4:	00e001f4 	teq	a3,zero,0x7
9d0062b8:	00004012 	mflo	t0
9d0062bc:	71021020 	clz	v0,t0
9d0062c0:	54400033 	bnezl	v0,9d006390 <.LBE16+0x8>
9d0062c4:	00484004 	sllv	t0,t0,v0
9d0062c8:	00a82023 	subu	a0,a1,t0
9d0062cc:	00083c02 	srl	a3,t0,0x10
9d0062d0:	310cffff 	andi	t4,t0,0xffff
9d0062d4:	24030001 	li	v1,1

9d0062d8 <.LBB16>:
9d0062d8:	000a3402 	srl	a2,t2,0x10
9d0062dc:	0087001b 	divu	zero,a0,a3
9d0062e0:	00e001f4 	teq	a3,zero,0x7
9d0062e4:	00007010 	mfhi	t6
9d0062e8:	00006812 	mflo	t5
9d0062ec:	00001012 	mflo	v0
9d0062f0:	71ac5802 	mul	t3,t5,t4
9d0062f4:	000e7400 	sll	t6,t6,0x10
9d0062f8:	01c63025 	or	a2,t6,a2
9d0062fc:	00cb702b 	sltu	t6,a2,t3
9d006300:	0087001b 	divu	zero,a0,a3
9d006304:	00e001f4 	teq	a3,zero,0x7
9d006308:	11c00009 	beqz	t6,9d006330 <.LBB16+0x58>
9d00630c:	00cb2823 	subu	a1,a2,t3
9d006310:	00c83021 	addu	a2,a2,t0
9d006314:	00c8202b 	sltu	a0,a2,t0
9d006318:	14800004 	bnez	a0,9d00632c <.LBB16+0x54>
9d00631c:	25a2ffff 	addiu	v0,t5,-1
9d006320:	00cb202b 	sltu	a0,a2,t3
9d006324:	548000a3 	bnezl	a0,9d0065b4 <.LBE23+0x3c>
9d006328:	25a2fffe 	addiu	v0,t5,-2
9d00632c:	00cb2823 	subu	a1,a2,t3
9d006330:	314affff 	andi	t2,t2,0xffff
9d006334:	00a7001b 	divu	zero,a1,a3
9d006338:	00e001f4 	teq	a3,zero,0x7
9d00633c:	00005810 	mfhi	t3
9d006340:	00003012 	mflo	a2
9d006344:	00002012 	mflo	a0
9d006348:	70cc6002 	mul	t4,a2,t4
9d00634c:	000b5c00 	sll	t3,t3,0x10
9d006350:	016a5025 	or	t2,t3,t2
9d006354:	014c582b 	sltu	t3,t2,t4
9d006358:	00a7001b 	divu	zero,a1,a3
9d00635c:	00e001f4 	teq	a3,zero,0x7
9d006360:	51600009 	beqzl	t3,9d006388 <.LBE16>
9d006364:	00021400 	sll	v0,v0,0x10
9d006368:	01485021 	addu	t2,t2,t0
9d00636c:	0148402b 	sltu	t0,t2,t0
9d006370:	15000004 	bnez	t0,9d006384 <.LBB16+0xac>
9d006374:	24c4ffff 	addiu	a0,a2,-1
9d006378:	014c502b 	sltu	t2,t2,t4
9d00637c:	24c6fffe 	addiu	a2,a2,-2
9d006380:	00ca200b 	movn	a0,a2,t2
9d006384:	00021400 	sll	v0,v0,0x10

9d006388 <.LBE16>:
9d006388:	0b401887 	j	9d00621c <.LBE15>
9d00638c:	00821025 	or	v0,a0,v0
9d006390:	24030020 	li	v1,32
9d006394:	00621823 	subu	v1,v1,v0
9d006398:	00653006 	srlv	a2,a1,v1
9d00639c:	00083c02 	srl	a3,t0,0x10
9d0063a0:	00c7001b 	divu	zero,a2,a3
9d0063a4:	00e001f4 	teq	a3,zero,0x7
9d0063a8:	00007810 	mfhi	t7
9d0063ac:	00006812 	mflo	t5
9d0063b0:	310cffff 	andi	t4,t0,0xffff
9d0063b4:	00452804 	sllv	a1,a1,v0
9d0063b8:	00641806 	srlv	v1,a0,v1
9d0063bc:	00652825 	or	a1,v1,a1
9d0063c0:	00057402 	srl	t6,a1,0x10
9d0063c4:	00445004 	sllv	t2,a0,v0
9d0063c8:	00001812 	mflo	v1
9d0063cc:	71ac5802 	mul	t3,t5,t4
9d0063d0:	000f1400 	sll	v0,t7,0x10
9d0063d4:	01c21025 	or	v0,t6,v0
9d0063d8:	004b202b 	sltu	a0,v0,t3
9d0063dc:	00c7001b 	divu	zero,a2,a3
9d0063e0:	00e001f4 	teq	a3,zero,0x7
9d0063e4:	5080000b 	beqzl	a0,9d006414 <.LBE16+0x8c>
9d0063e8:	004b1023 	subu	v0,v0,t3
9d0063ec:	00481021 	addu	v0,v0,t0
9d0063f0:	0048202b 	sltu	a0,v0,t0
9d0063f4:	14800006 	bnez	a0,9d006410 <.LBE16+0x88>
9d0063f8:	25a3ffff 	addiu	v1,t5,-1
9d0063fc:	004b202b 	sltu	a0,v0,t3
9d006400:	50800004 	beqzl	a0,9d006414 <.LBE16+0x8c>
9d006404:	004b1023 	subu	v0,v0,t3
9d006408:	25a3fffe 	addiu	v1,t5,-2
9d00640c:	00481021 	addu	v0,v0,t0
9d006410:	004b1023 	subu	v0,v0,t3
9d006414:	30adffff 	andi	t5,a1,0xffff
9d006418:	0047001b 	divu	zero,v0,a3
9d00641c:	00e001f4 	teq	a3,zero,0x7
9d006420:	00002010 	mfhi	a0
9d006424:	00005812 	mflo	t3
9d006428:	00003012 	mflo	a2
9d00642c:	716c2802 	mul	a1,t3,t4
9d006430:	00042400 	sll	a0,a0,0x10
9d006434:	008d2025 	or	a0,a0,t5
9d006438:	0085682b 	sltu	t5,a0,a1
9d00643c:	0047001b 	divu	zero,v0,a3
9d006440:	00e001f4 	teq	a3,zero,0x7
9d006444:	51a0000b 	beqzl	t5,9d006474 <.LBE16+0xec>
9d006448:	00031c00 	sll	v1,v1,0x10
9d00644c:	00882021 	addu	a0,a0,t0
9d006450:	0088102b 	sltu	v0,a0,t0
9d006454:	14400006 	bnez	v0,9d006470 <.LBE16+0xe8>
9d006458:	2566ffff 	addiu	a2,t3,-1
9d00645c:	0085102b 	sltu	v0,a0,a1
9d006460:	50400004 	beqzl	v0,9d006474 <.LBE16+0xec>
9d006464:	00031c00 	sll	v1,v1,0x10
9d006468:	2566fffe 	addiu	a2,t3,-2
9d00646c:	00882021 	addu	a0,a0,t0
9d006470:	00031c00 	sll	v1,v1,0x10
9d006474:	00852023 	subu	a0,a0,a1
9d006478:	0b4018b6 	j	9d0062d8 <.LBB16>
9d00647c:	00c31825 	or	v1,a2,v1
9d006480:	00481023 	subu	v0,v0,t0
9d006484:	01073804 	sllv	a3,a3,t0
9d006488:	00461806 	srlv	v1,a2,v0
9d00648c:	00673825 	or	a3,v1,a3
9d006490:	00455806 	srlv	t3,a1,v0
9d006494:	00071c02 	srl	v1,a3,0x10
9d006498:	0163001b 	divu	zero,t3,v1
9d00649c:	006001f4 	teq	v1,zero,0x7
9d0064a0:	00005010 	mfhi	t2
9d0064a4:	00007012 	mflo	t6
9d0064a8:	30ecffff 	andi	t4,a3,0xffff
9d0064ac:	01052804 	sllv	a1,a1,t0
9d0064b0:	00441006 	srlv	v0,a0,v0
9d0064b4:	00452825 	or	a1,v0,a1
9d0064b8:	00057c02 	srl	t7,a1,0x10
9d0064bc:	00001012 	mflo	v0
9d0064c0:	71cc6802 	mul	t5,t6,t4
9d0064c4:	000a5400 	sll	t2,t2,0x10
9d0064c8:	014f5025 	or	t2,t2,t7
9d0064cc:	014d782b 	sltu	t7,t2,t5
9d0064d0:	0163001b 	divu	zero,t3,v1
9d0064d4:	006001f4 	teq	v1,zero,0x7
9d0064d8:	11e0000a 	beqz	t7,9d006504 <.LBE16+0x17c>
9d0064dc:	01063004 	sllv	a2,a2,t0
9d0064e0:	01475021 	addu	t2,t2,a3
9d0064e4:	0147582b 	sltu	t3,t2,a3
9d0064e8:	15600006 	bnez	t3,9d006504 <.LBE16+0x17c>
9d0064ec:	25c2ffff 	addiu	v0,t6,-1
9d0064f0:	014d582b 	sltu	t3,t2,t5
9d0064f4:	51600004 	beqzl	t3,9d006508 <.LBE16+0x180>
9d0064f8:	014d5023 	subu	t2,t2,t5
9d0064fc:	25c2fffe 	addiu	v0,t6,-2
9d006500:	01475021 	addu	t2,t2,a3
9d006504:	014d5023 	subu	t2,t2,t5
9d006508:	30a5ffff 	andi	a1,a1,0xffff
9d00650c:	0143001b 	divu	zero,t2,v1
9d006510:	006001f4 	teq	v1,zero,0x7
9d006514:	00007010 	mfhi	t6
9d006518:	00006812 	mflo	t5
9d00651c:	00005812 	mflo	t3
9d006520:	71ac6002 	mul	t4,t5,t4
9d006524:	000e7400 	sll	t6,t6,0x10
9d006528:	01c52825 	or	a1,t6,a1
9d00652c:	00ac702b 	sltu	t6,a1,t4
9d006530:	0143001b 	divu	zero,t2,v1
9d006534:	006001f4 	teq	v1,zero,0x7
9d006538:	51c0000b 	beqzl	t6,9d006568 <.LBE16+0x1e0>
9d00653c:	00021400 	sll	v0,v0,0x10
9d006540:	00a72821 	addu	a1,a1,a3
9d006544:	00a7182b 	sltu	v1,a1,a3
9d006548:	14600006 	bnez	v1,9d006564 <.LBE16+0x1dc>
9d00654c:	25abffff 	addiu	t3,t5,-1
9d006550:	00ac182b 	sltu	v1,a1,t4
9d006554:	50600004 	beqzl	v1,9d006568 <.LBE16+0x1e0>
9d006558:	00021400 	sll	v0,v0,0x10
9d00655c:	25abfffe 	addiu	t3,t5,-2
9d006560:	00a72821 	addu	a1,a1,a3
9d006564:	00021400 	sll	v0,v0,0x10
9d006568:	01621025 	or	v0,t3,v0
9d00656c:	00ac2823 	subu	a1,a1,t4

9d006570 <.LBB23>:
9d006570:	00460019 	multu	v0,a2
9d006574:	00003810 	mfhi	a3

9d006578 <.LBE23>:
9d006578:	00a7182b 	sltu	v1,a1,a3
9d00657c:	14600008 	bnez	v1,9d0065a0 <.LBE23+0x28>
9d006580:	00003012 	mflo	a2
9d006584:	50a70003 	beql	a1,a3,9d006594 <.LBE23+0x1c>
9d006588:	01042004 	sllv	a0,a0,t0
9d00658c:	0b401887 	j	9d00621c <.LBE15>
9d006590:	00001821 	move	v1,zero
9d006594:	0086302b 	sltu	a2,a0,a2
9d006598:	50c0ff20 	beqzl	a2,9d00621c <.LBE15>
9d00659c:	00001821 	move	v1,zero
9d0065a0:	2442ffff 	addiu	v0,v0,-1
9d0065a4:	0b401887 	j	9d00621c <.LBE15>
9d0065a8:	00001821 	move	v1,zero
9d0065ac:	0b401887 	j	9d00621c <.LBE15>
9d0065b0:	24020001 	li	v0,1
9d0065b4:	0b4018cb 	j	9d00632c <.LBB16+0x54>
9d0065b8:	00c83021 	addu	a2,a2,t0

9d0065bc <__umoddi3>:
9d0065bc:	00c04021 	move	t0,a2
9d0065c0:	00804821 	move	t1,a0
9d0065c4:	14e0003b 	bnez	a3,9d0066b4 <.LBE15+0xc>
9d0065c8:	00a01821 	move	v1,a1
9d0065cc:	00a6102b 	sltu	v0,a1,a2
9d0065d0:	10400048 	beqz	v0,9d0066f4 <.LBE16+0x8>
9d0065d4:	70c21020 	clz	v0,a2
9d0065d8:	50400008 	beqzl	v0,9d0065fc <.LBB15+0x4>
9d0065dc:	00083402 	srl	a2,t0,0x10
9d0065e0:	00021823 	negu	v1,v0
9d0065e4:	00452804 	sllv	a1,a1,v0
9d0065e8:	00641806 	srlv	v1,a0,v1
9d0065ec:	00464004 	sllv	t0,a2,v0
9d0065f0:	00651825 	or	v1,v1,a1
9d0065f4:	00444804 	sllv	t1,a0,v0

9d0065f8 <.LBB15>:
9d0065f8:	00083402 	srl	a2,t0,0x10
9d0065fc:	0066001b 	divu	zero,v1,a2
9d006600:	00c001f4 	teq	a2,zero,0x7
9d006604:	00002010 	mfhi	a0
9d006608:	00005812 	mflo	t3
9d00660c:	310cffff 	andi	t4,t0,0xffff
9d006610:	00095402 	srl	t2,t1,0x10
9d006614:	716c5802 	mul	t3,t3,t4
9d006618:	00042400 	sll	a0,a0,0x10
9d00661c:	008a5025 	or	t2,a0,t2
9d006620:	014b682b 	sltu	t5,t2,t3
9d006624:	0066001b 	divu	zero,v1,a2
9d006628:	00c001f4 	teq	a2,zero,0x7
9d00662c:	51a00009 	beqzl	t5,9d006654 <.LBB15+0x5c>
9d006630:	014b5023 	subu	t2,t2,t3
9d006634:	01485021 	addu	t2,t2,t0
9d006638:	0148182b 	sltu	v1,t2,t0
9d00663c:	54600005 	bnezl	v1,9d006654 <.LBB15+0x5c>
9d006640:	014b5023 	subu	t2,t2,t3
9d006644:	014b202b 	sltu	a0,t2,t3
9d006648:	01481821 	addu	v1,t2,t0
9d00664c:	0064500b 	movn	t2,v1,a0
9d006650:	014b5023 	subu	t2,t2,t3
9d006654:	3123ffff 	andi	v1,t1,0xffff
9d006658:	0146001b 	divu	zero,t2,a2
9d00665c:	00c001f4 	teq	a2,zero,0x7
9d006660:	00004810 	mfhi	t1
9d006664:	00002012 	mflo	a0
9d006668:	708c2002 	mul	a0,a0,t4
9d00666c:	00094c00 	sll	t1,t1,0x10
9d006670:	01234825 	or	t1,t1,v1
9d006674:	0124182b 	sltu	v1,t1,a0
9d006678:	0146001b 	divu	zero,t2,a2
9d00667c:	00c001f4 	teq	a2,zero,0x7
9d006680:	50600009 	beqzl	v1,9d0066a8 <.LBE15>
9d006684:	01244823 	subu	t1,t1,a0
9d006688:	01284821 	addu	t1,t1,t0
9d00668c:	0128182b 	sltu	v1,t1,t0
9d006690:	54600005 	bnezl	v1,9d0066a8 <.LBE15>
9d006694:	01244823 	subu	t1,t1,a0
9d006698:	0124182b 	sltu	v1,t1,a0
9d00669c:	01284021 	addu	t0,t1,t0
9d0066a0:	0103480b 	movn	t1,t0,v1
9d0066a4:	01244823 	subu	t1,t1,a0

9d0066a8 <.LBE15>:
9d0066a8:	00491006 	srlv	v0,t1,v0
9d0066ac:	03e00008 	jr	ra
9d0066b0:	00001821 	move	v1,zero
9d0066b4:	00a7102b 	sltu	v0,a1,a3
9d0066b8:	14400047 	bnez	v0,9d0067d8 <.LBE17+0xc>
9d0066bc:	70ea5020 	clz	t2,a3
9d0066c0:	15400048 	bnez	t2,9d0067e4 <.LBE17+0x18>
9d0066c4:	240b0020 	li	t3,32
9d0066c8:	00e5102b 	sltu	v0,a3,a1
9d0066cc:	14400005 	bnez	v0,9d0066e4 <.LBB16+0x4>
9d0066d0:	00861023 	subu	v0,a0,a2
9d0066d4:	0086402b 	sltu	t0,a0,a2
9d0066d8:	15000089 	bnez	t0,9d006900 <.LBE24+0x10>
9d0066dc:	00801021 	move	v0,a0

9d0066e0 <.LBB16>:
9d0066e0:	00861023 	subu	v0,a0,a2
9d0066e4:	00a72823 	subu	a1,a1,a3
9d0066e8:	0082202b 	sltu	a0,a0,v0

9d0066ec <.LBE16>:
9d0066ec:	03e00008 	jr	ra
9d0066f0:	00a41823 	subu	v1,a1,a0
9d0066f4:	14c00006 	bnez	a2,9d006710 <.LBE16+0x24>
9d0066f8:	71021020 	clz	v0,t0
9d0066fc:	24020001 	li	v0,1
9d006700:	0046001b 	divu	zero,v0,a2
9d006704:	00c001f4 	teq	a2,zero,0x7
9d006708:	00004012 	mflo	t0
9d00670c:	71021020 	clz	v0,t0
9d006710:	5440007d 	bnezl	v0,9d006908 <.LBE24+0x18>
9d006714:	00484004 	sllv	t0,t0,v0
9d006718:	00a82823 	subu	a1,a1,t0
9d00671c:	00081c02 	srl	v1,t0,0x10
9d006720:	3107ffff 	andi	a3,t0,0xffff

9d006724 <.LBB17>:
9d006724:	00092402 	srl	a0,t1,0x10
9d006728:	00a3001b 	divu	zero,a1,v1
9d00672c:	006001f4 	teq	v1,zero,0x7
9d006730:	00005010 	mfhi	t2
9d006734:	00003012 	mflo	a2
9d006738:	70c73002 	mul	a2,a2,a3
9d00673c:	000a5400 	sll	t2,t2,0x10
9d006740:	01442025 	or	a0,t2,a0
9d006744:	0086502b 	sltu	t2,a0,a2
9d006748:	00a3001b 	divu	zero,a1,v1
9d00674c:	006001f4 	teq	v1,zero,0x7
9d006750:	51400009 	beqzl	t2,9d006778 <.LBB17+0x54>
9d006754:	00862023 	subu	a0,a0,a2
9d006758:	00882021 	addu	a0,a0,t0
9d00675c:	0088282b 	sltu	a1,a0,t0
9d006760:	54a00005 	bnezl	a1,9d006778 <.LBB17+0x54>
9d006764:	00862023 	subu	a0,a0,a2
9d006768:	0086502b 	sltu	t2,a0,a2
9d00676c:	00882821 	addu	a1,a0,t0
9d006770:	00aa200b 	movn	a0,a1,t2
9d006774:	00862023 	subu	a0,a0,a2
9d006778:	3126ffff 	andi	a2,t1,0xffff
9d00677c:	0083001b 	divu	zero,a0,v1
9d006780:	006001f4 	teq	v1,zero,0x7
9d006784:	00004810 	mfhi	t1
9d006788:	00002812 	mflo	a1
9d00678c:	70a72802 	mul	a1,a1,a3
9d006790:	00094c00 	sll	t1,t1,0x10
9d006794:	01264825 	or	t1,t1,a2
9d006798:	0125302b 	sltu	a2,t1,a1
9d00679c:	0083001b 	divu	zero,a0,v1
9d0067a0:	006001f4 	teq	v1,zero,0x7
9d0067a4:	50c00009 	beqzl	a2,9d0067cc <.LBE17>
9d0067a8:	01254823 	subu	t1,t1,a1
9d0067ac:	01284821 	addu	t1,t1,t0
9d0067b0:	0128182b 	sltu	v1,t1,t0
9d0067b4:	54600005 	bnezl	v1,9d0067cc <.LBE17>
9d0067b8:	01254823 	subu	t1,t1,a1
9d0067bc:	0125182b 	sltu	v1,t1,a1
9d0067c0:	01284021 	addu	t0,t1,t0
9d0067c4:	0103480b 	movn	t1,t0,v1
9d0067c8:	01254823 	subu	t1,t1,a1

9d0067cc <.LBE17>:
9d0067cc:	00491006 	srlv	v0,t1,v0
9d0067d0:	03e00008 	jr	ra
9d0067d4:	00001821 	move	v1,zero
9d0067d8:	00801021 	move	v0,a0
9d0067dc:	03e00008 	jr	ra
9d0067e0:	00a01821 	move	v1,a1
9d0067e4:	016a5823 	subu	t3,t3,t2
9d0067e8:	01473804 	sllv	a3,a3,t2
9d0067ec:	01661006 	srlv	v0,a2,t3
9d0067f0:	00473825 	or	a3,v0,a3
9d0067f4:	01656806 	srlv	t5,a1,t3
9d0067f8:	00074c02 	srl	t1,a3,0x10
9d0067fc:	01a9001b 	divu	zero,t5,t1
9d006800:	012001f4 	teq	t1,zero,0x7
9d006804:	00006010 	mfhi	t4
9d006808:	00001812 	mflo	v1
9d00680c:	30eeffff 	andi	t6,a3,0xffff
9d006810:	01452804 	sllv	a1,a1,t2
9d006814:	01641006 	srlv	v0,a0,t3
9d006818:	00451025 	or	v0,v0,a1
9d00681c:	00022c02 	srl	a1,v0,0x10
9d006820:	01463004 	sllv	a2,a2,t2
9d006824:	00004012 	mflo	t0
9d006828:	706e7802 	mul	t7,v1,t6
9d00682c:	000c6400 	sll	t4,t4,0x10
9d006830:	01856025 	or	t4,t4,a1
9d006834:	018f282b 	sltu	a1,t4,t7
9d006838:	01a9001b 	divu	zero,t5,t1
9d00683c:	012001f4 	teq	t1,zero,0x7
9d006840:	10a0000a 	beqz	a1,9d00686c <.LBE17+0xa0>
9d006844:	01442004 	sllv	a0,a0,t2
9d006848:	01876021 	addu	t4,t4,a3
9d00684c:	0187282b 	sltu	a1,t4,a3
9d006850:	14a00006 	bnez	a1,9d00686c <.LBE17+0xa0>
9d006854:	2468ffff 	addiu	t0,v1,-1
9d006858:	018f282b 	sltu	a1,t4,t7
9d00685c:	50a00004 	beqzl	a1,9d006870 <.LBE17+0xa4>
9d006860:	018f6023 	subu	t4,t4,t7
9d006864:	2468fffe 	addiu	t0,v1,-2
9d006868:	01876021 	addu	t4,t4,a3
9d00686c:	018f6023 	subu	t4,t4,t7
9d006870:	3042ffff 	andi	v0,v0,0xffff
9d006874:	0189001b 	divu	zero,t4,t1
9d006878:	012001f4 	teq	t1,zero,0x7
9d00687c:	00002810 	mfhi	a1
9d006880:	00001812 	mflo	v1
9d006884:	00006812 	mflo	t5
9d006888:	706e7002 	mul	t6,v1,t6
9d00688c:	00052c00 	sll	a1,a1,0x10
9d006890:	00a21025 	or	v0,a1,v0
9d006894:	004e282b 	sltu	a1,v0,t6
9d006898:	0189001b 	divu	zero,t4,t1
9d00689c:	012001f4 	teq	t1,zero,0x7
9d0068a0:	50a00006 	beqzl	a1,9d0068bc <.LBE17+0xf0>
9d0068a4:	00084400 	sll	t0,t0,0x10
9d0068a8:	00471021 	addu	v0,v0,a3
9d0068ac:	0047282b 	sltu	a1,v0,a3
9d0068b0:	10a0004c 	beqz	a1,9d0069e4 <.LBE25>
9d0068b4:	246dffff 	addiu	t5,v1,-1
9d0068b8:	00084400 	sll	t0,t0,0x10
9d0068bc:	01a84025 	or	t0,t5,t0
9d0068c0:	004e1023 	subu	v0,v0,t6
9d0068c4:	01060019 	multu	t0,a2
9d0068c8:	00004810 	mfhi	t1
9d0068cc:	0049182b 	sltu	v1,v0,t1
9d0068d0:	1460003e 	bnez	v1,9d0069cc <.LBB25>
9d0068d4:	00004012 	mflo	t0
9d0068d8:	1049004b 	beq	v0,t1,9d006a08 <.LBE25+0x24>
9d0068dc:	00491823 	subu	v1,v0,t1
9d0068e0:	00003012 	mflo	a2

9d0068e4 <.LBB24>:
9d0068e4:	00863023 	subu	a2,a0,a2
9d0068e8:	0086202b 	sltu	a0,a0,a2
9d0068ec:	00641823 	subu	v1,v1,a0

9d0068f0 <.LBE24>:
9d0068f0:	01631004 	sllv	v0,v1,t3
9d0068f4:	01463006 	srlv	a2,a2,t2
9d0068f8:	00461025 	or	v0,v0,a2
9d0068fc:	01431806 	srlv	v1,v1,t2
9d006900:	03e00008 	jr	ra
9d006904:	00000000 	nop
9d006908:	24090020 	li	t1,32
9d00690c:	01224823 	subu	t1,t1,v0
9d006910:	01255006 	srlv	t2,a1,t1
9d006914:	00081c02 	srl	v1,t0,0x10
9d006918:	0143001b 	divu	zero,t2,v1
9d00691c:	006001f4 	teq	v1,zero,0x7
9d006920:	00003010 	mfhi	a2
9d006924:	00005812 	mflo	t3
9d006928:	3107ffff 	andi	a3,t0,0xffff
9d00692c:	00452804 	sllv	a1,a1,v0
9d006930:	01244806 	srlv	t1,a0,t1
9d006934:	01252825 	or	a1,t1,a1
9d006938:	00056402 	srl	t4,a1,0x10
9d00693c:	00444804 	sllv	t1,a0,v0
9d006940:	71675802 	mul	t3,t3,a3
9d006944:	00063400 	sll	a2,a2,0x10
9d006948:	01863025 	or	a2,t4,a2
9d00694c:	00cb202b 	sltu	a0,a2,t3
9d006950:	0143001b 	divu	zero,t2,v1
9d006954:	006001f4 	teq	v1,zero,0x7
9d006958:	50800006 	beqzl	a0,9d006974 <.LBE24+0x84>
9d00695c:	00cb3023 	subu	a2,a2,t3
9d006960:	00c83021 	addu	a2,a2,t0
9d006964:	00c8202b 	sltu	a0,a2,t0
9d006968:	10800024 	beqz	a0,9d0069fc <.LBE25+0x18>
9d00696c:	00cb502b 	sltu	t2,a2,t3
9d006970:	00cb3023 	subu	a2,a2,t3
9d006974:	30aaffff 	andi	t2,a1,0xffff
9d006978:	00c3001b 	divu	zero,a2,v1
9d00697c:	006001f4 	teq	v1,zero,0x7
9d006980:	00002010 	mfhi	a0
9d006984:	00002812 	mflo	a1
9d006988:	70a72802 	mul	a1,a1,a3
9d00698c:	00042400 	sll	a0,a0,0x10
9d006990:	008a2025 	or	a0,a0,t2
9d006994:	0085502b 	sltu	t2,a0,a1
9d006998:	00c3001b 	divu	zero,a2,v1
9d00699c:	006001f4 	teq	v1,zero,0x7
9d0069a0:	5140ff60 	beqzl	t2,9d006724 <.LBB17>
9d0069a4:	00852823 	subu	a1,a0,a1
9d0069a8:	00882021 	addu	a0,a0,t0
9d0069ac:	0088302b 	sltu	a2,a0,t0
9d0069b0:	54c0ff5c 	bnezl	a2,9d006724 <.LBB17>
9d0069b4:	00852823 	subu	a1,a0,a1
9d0069b8:	0085502b 	sltu	t2,a0,a1
9d0069bc:	00883021 	addu	a2,a0,t0
9d0069c0:	00ca200b 	movn	a0,a2,t2
9d0069c4:	0b4019c9 	j	9d006724 <.LBB17>
9d0069c8:	00852823 	subu	a1,a0,a1

9d0069cc <.LBB25>:
9d0069cc:	01063023 	subu	a2,t0,a2
9d0069d0:	01271823 	subu	v1,t1,a3
9d0069d4:	0106402b 	sltu	t0,t0,a2
9d0069d8:	00681823 	subu	v1,v1,t0
9d0069dc:	0b401a39 	j	9d0068e4 <.LBB24>
9d0069e0:	00431823 	subu	v1,v0,v1

9d0069e4 <.LBE25>:
9d0069e4:	004e282b 	sltu	a1,v0,t6
9d0069e8:	50a0ffb4 	beqzl	a1,9d0068bc <.LBE17+0xf0>
9d0069ec:	00084400 	sll	t0,t0,0x10
9d0069f0:	246dfffe 	addiu	t5,v1,-2
9d0069f4:	0b401a2e 	j	9d0068b8 <.LBE17+0xec>
9d0069f8:	00471021 	addu	v0,v0,a3
9d0069fc:	00c82021 	addu	a0,a2,t0
9d006a00:	0b401a5c 	j	9d006970 <.LBE24+0x80>
9d006a04:	008a300b 	movn	a2,a0,t2
9d006a08:	0088182b 	sltu	v1,a0,t0
9d006a0c:	5460fff0 	bnezl	v1,9d0069d0 <.LBB25+0x4>
9d006a10:	01063023 	subu	a2,t0,a2
9d006a14:	00003012 	mflo	a2
9d006a18:	0b401a39 	j	9d0068e4 <.LBB24>
9d006a1c:	00001821 	move	v1,zero

Disassembly of section .text:

9d006a20 <__udivdi3>:
9d006a20:	00c04021 	move	t0,a2
9d006a24:	00801021 	move	v0,a0
9d006a28:	14e0003f 	bnez	a3,9d006b28 <.LBE15+0x8>
9d006a2c:	00a04821 	move	t1,a1
9d006a30:	00a6182b 	sltu	v1,a1,a2
9d006a34:	10600047 	beqz	v1,9d006b54 <.LBE15+0x34>
9d006a38:	70c31820 	clz	v1,a2
9d006a3c:	50600008 	beqzl	v1,9d006a60 <.LBB15+0x4>
9d006a40:	00081c02 	srl	v1,t0,0x10
9d006a44:	00034823 	negu	t1,v1
9d006a48:	00652804 	sllv	a1,a1,v1
9d006a4c:	01244806 	srlv	t1,a0,t1
9d006a50:	00664004 	sllv	t0,a2,v1
9d006a54:	01254825 	or	t1,t1,a1
9d006a58:	00641004 	sllv	v0,a0,v1

9d006a5c <.LBB15>:
9d006a5c:	00081c02 	srl	v1,t0,0x10
9d006a60:	0123001b 	divu	zero,t1,v1
9d006a64:	006001f4 	teq	v1,zero,0x7
9d006a68:	00006010 	mfhi	t4
9d006a6c:	00005812 	mflo	t3
9d006a70:	310affff 	andi	t2,t0,0xffff
9d006a74:	00022402 	srl	a0,v0,0x10
9d006a78:	00003012 	mflo	a2
9d006a7c:	716a3802 	mul	a3,t3,t2
9d006a80:	000c6400 	sll	t4,t4,0x10
9d006a84:	01842025 	or	a0,t4,a0
9d006a88:	0087602b 	sltu	t4,a0,a3
9d006a8c:	0123001b 	divu	zero,t1,v1
9d006a90:	006001f4 	teq	v1,zero,0x7
9d006a94:	1180000b 	beqz	t4,9d006ac4 <.LBB15+0x68>
9d006a98:	00872823 	subu	a1,a0,a3
9d006a9c:	00882021 	addu	a0,a0,t0
9d006aa0:	0088282b 	sltu	a1,a0,t0
9d006aa4:	14a00006 	bnez	a1,9d006ac0 <.LBB15+0x64>
9d006aa8:	2566ffff 	addiu	a2,t3,-1
9d006aac:	0087282b 	sltu	a1,a0,a3
9d006ab0:	10a00004 	beqz	a1,9d006ac4 <.LBB15+0x68>
9d006ab4:	00872823 	subu	a1,a0,a3
9d006ab8:	2566fffe 	addiu	a2,t3,-2
9d006abc:	00882021 	addu	a0,a0,t0
9d006ac0:	00872823 	subu	a1,a0,a3
9d006ac4:	3042ffff 	andi	v0,v0,0xffff
9d006ac8:	00a3001b 	divu	zero,a1,v1
9d006acc:	006001f4 	teq	v1,zero,0x7
9d006ad0:	00004810 	mfhi	t1
9d006ad4:	00003812 	mflo	a3
9d006ad8:	00002012 	mflo	a0
9d006adc:	70ea5002 	mul	t2,a3,t2
9d006ae0:	00094c00 	sll	t1,t1,0x10
9d006ae4:	01221025 	or	v0,t1,v0
9d006ae8:	004a482b 	sltu	t1,v0,t2
9d006aec:	00a3001b 	divu	zero,a1,v1
9d006af0:	006001f4 	teq	v1,zero,0x7
9d006af4:	51200009 	beqzl	t1,9d006b1c <.LBB15+0xc0>
9d006af8:	00061400 	sll	v0,a2,0x10
9d006afc:	00481021 	addu	v0,v0,t0
9d006b00:	0048402b 	sltu	t0,v0,t0
9d006b04:	15000004 	bnez	t0,9d006b18 <.LBB15+0xbc>
9d006b08:	24e4ffff 	addiu	a0,a3,-1
9d006b0c:	004a502b 	sltu	t2,v0,t2
9d006b10:	24e7fffe 	addiu	a3,a3,-2
9d006b14:	00ea200b 	movn	a0,a3,t2
9d006b18:	00061400 	sll	v0,a2,0x10
9d006b1c:	00821025 	or	v0,a0,v0

9d006b20 <.LBE15>:
9d006b20:	03e00008 	jr	ra
9d006b24:	00001821 	move	v1,zero
9d006b28:	00a7102b 	sltu	v0,a1,a3
9d006b2c:	14400044 	bnez	v0,9d006c40 <.LBE16+0x8>
9d006b30:	70e84020 	clz	t0,a3
9d006b34:	55000045 	bnezl	t0,9d006c4c <.LBE16+0x14>
9d006b38:	24020020 	li	v0,32
9d006b3c:	00e5282b 	sltu	a1,a3,a1
9d006b40:	14a000c8 	bnez	a1,9d006e64 <.LBE20+0x120>
9d006b44:	0086302b 	sltu	a2,a0,a2
9d006b48:	38c20001 	xori	v0,a2,0x1
9d006b4c:	03e00008 	jr	ra
9d006b50:	00001821 	move	v1,zero
9d006b54:	14c00006 	bnez	a2,9d006b70 <.LBE15+0x50>
9d006b58:	71031820 	clz	v1,t0
9d006b5c:	24030001 	li	v1,1
9d006b60:	0066001b 	divu	zero,v1,a2
9d006b64:	00c001f4 	teq	a2,zero,0x7
9d006b68:	00004012 	mflo	t0
9d006b6c:	71031820 	clz	v1,t0
9d006b70:	5460007b 	bnezl	v1,9d006d60 <.LBE20+0x1c>
9d006b74:	00684004 	sllv	t0,t0,v1
9d006b78:	00a82023 	subu	a0,a1,t0
9d006b7c:	00083c02 	srl	a3,t0,0x10
9d006b80:	310bffff 	andi	t3,t0,0xffff
9d006b84:	24030001 	li	v1,1

9d006b88 <.LBB16>:
9d006b88:	00023402 	srl	a2,v0,0x10
9d006b8c:	0087001b 	divu	zero,a0,a3
9d006b90:	00e001f4 	teq	a3,zero,0x7
9d006b94:	00006810 	mfhi	t5
9d006b98:	00006012 	mflo	t4
9d006b9c:	00004812 	mflo	t1
9d006ba0:	718b5002 	mul	t2,t4,t3
9d006ba4:	000d6c00 	sll	t5,t5,0x10
9d006ba8:	01a63025 	or	a2,t5,a2
9d006bac:	00ca682b 	sltu	t5,a2,t2
9d006bb0:	0087001b 	divu	zero,a0,a3
9d006bb4:	00e001f4 	teq	a3,zero,0x7
9d006bb8:	11a00009 	beqz	t5,9d006be0 <.LBB16+0x58>
9d006bbc:	00ca2823 	subu	a1,a2,t2
9d006bc0:	00c83021 	addu	a2,a2,t0
9d006bc4:	00c8202b 	sltu	a0,a2,t0
9d006bc8:	14800004 	bnez	a0,9d006bdc <.LBB16+0x54>
9d006bcc:	2589ffff 	addiu	t1,t4,-1
9d006bd0:	00ca202b 	sltu	a0,a2,t2
9d006bd4:	548000a6 	bnezl	a0,9d006e70 <.LBE20+0x12c>
9d006bd8:	2589fffe 	addiu	t1,t4,-2
9d006bdc:	00ca2823 	subu	a1,a2,t2
9d006be0:	3042ffff 	andi	v0,v0,0xffff
9d006be4:	00a7001b 	divu	zero,a1,a3
9d006be8:	00e001f4 	teq	a3,zero,0x7
9d006bec:	00005010 	mfhi	t2
9d006bf0:	00003012 	mflo	a2
9d006bf4:	00002012 	mflo	a0
9d006bf8:	70cb5802 	mul	t3,a2,t3
9d006bfc:	000a5400 	sll	t2,t2,0x10
9d006c00:	01421025 	or	v0,t2,v0
9d006c04:	004b502b 	sltu	t2,v0,t3
9d006c08:	00a7001b 	divu	zero,a1,a3
9d006c0c:	00e001f4 	teq	a3,zero,0x7
9d006c10:	51400009 	beqzl	t2,9d006c38 <.LBE16>
9d006c14:	00091400 	sll	v0,t1,0x10
9d006c18:	00481021 	addu	v0,v0,t0
9d006c1c:	0048402b 	sltu	t0,v0,t0
9d006c20:	15000004 	bnez	t0,9d006c34 <.LBB16+0xac>
9d006c24:	24c4ffff 	addiu	a0,a2,-1
9d006c28:	004b582b 	sltu	t3,v0,t3
9d006c2c:	24c6fffe 	addiu	a2,a2,-2
9d006c30:	00cb200b 	movn	a0,a2,t3
9d006c34:	00091400 	sll	v0,t1,0x10

9d006c38 <.LBE16>:
9d006c38:	03e00008 	jr	ra
9d006c3c:	00821025 	or	v0,a0,v0
9d006c40:	00001821 	move	v1,zero
9d006c44:	03e00008 	jr	ra
9d006c48:	00001021 	move	v0,zero
9d006c4c:	00481023 	subu	v0,v0,t0
9d006c50:	01073804 	sllv	a3,a3,t0
9d006c54:	00461806 	srlv	v1,a2,v0
9d006c58:	00673825 	or	a3,v1,a3
9d006c5c:	00455006 	srlv	t2,a1,v0
9d006c60:	00071c02 	srl	v1,a3,0x10
9d006c64:	0143001b 	divu	zero,t2,v1
9d006c68:	006001f4 	teq	v1,zero,0x7
9d006c6c:	00004810 	mfhi	t1
9d006c70:	00006812 	mflo	t5
9d006c74:	30ebffff 	andi	t3,a3,0xffff
9d006c78:	01052804 	sllv	a1,a1,t0
9d006c7c:	00441006 	srlv	v0,a0,v0
9d006c80:	00452825 	or	a1,v0,a1
9d006c84:	00057402 	srl	t6,a1,0x10
9d006c88:	00001012 	mflo	v0
9d006c8c:	71ab6002 	mul	t4,t5,t3
9d006c90:	00094c00 	sll	t1,t1,0x10
9d006c94:	012e4825 	or	t1,t1,t6
9d006c98:	012c702b 	sltu	t6,t1,t4
9d006c9c:	0143001b 	divu	zero,t2,v1
9d006ca0:	006001f4 	teq	v1,zero,0x7
9d006ca4:	11c0000a 	beqz	t6,9d006cd0 <.LBE16+0x98>
9d006ca8:	01063004 	sllv	a2,a2,t0
9d006cac:	01274821 	addu	t1,t1,a3
9d006cb0:	0127502b 	sltu	t2,t1,a3
9d006cb4:	15400006 	bnez	t2,9d006cd0 <.LBE16+0x98>
9d006cb8:	25a2ffff 	addiu	v0,t5,-1
9d006cbc:	012c502b 	sltu	t2,t1,t4
9d006cc0:	51400004 	beqzl	t2,9d006cd4 <.LBE16+0x9c>
9d006cc4:	012c4823 	subu	t1,t1,t4
9d006cc8:	25a2fffe 	addiu	v0,t5,-2
9d006ccc:	01274821 	addu	t1,t1,a3
9d006cd0:	012c4823 	subu	t1,t1,t4
9d006cd4:	30a5ffff 	andi	a1,a1,0xffff
9d006cd8:	0123001b 	divu	zero,t1,v1
9d006cdc:	006001f4 	teq	v1,zero,0x7
9d006ce0:	00006810 	mfhi	t5
9d006ce4:	00006012 	mflo	t4
9d006ce8:	00005012 	mflo	t2
9d006cec:	718b5802 	mul	t3,t4,t3
9d006cf0:	000d6c00 	sll	t5,t5,0x10
9d006cf4:	01a52825 	or	a1,t5,a1
9d006cf8:	00ab682b 	sltu	t5,a1,t3
9d006cfc:	0123001b 	divu	zero,t1,v1
9d006d00:	006001f4 	teq	v1,zero,0x7
9d006d04:	51a0000b 	beqzl	t5,9d006d34 <.LBE16+0xfc>
9d006d08:	00021400 	sll	v0,v0,0x10
9d006d0c:	00a72821 	addu	a1,a1,a3
9d006d10:	00a7182b 	sltu	v1,a1,a3
9d006d14:	14600006 	bnez	v1,9d006d30 <.LBE16+0xf8>
9d006d18:	258affff 	addiu	t2,t4,-1
9d006d1c:	00ab182b 	sltu	v1,a1,t3
9d006d20:	50600004 	beqzl	v1,9d006d34 <.LBE16+0xfc>
9d006d24:	00021400 	sll	v0,v0,0x10
9d006d28:	258afffe 	addiu	t2,t4,-2
9d006d2c:	00a72821 	addu	a1,a1,a3
9d006d30:	00021400 	sll	v0,v0,0x10
9d006d34:	01421025 	or	v0,t2,v0
9d006d38:	00ab2823 	subu	a1,a1,t3

9d006d3c <.LBB20>:
9d006d3c:	00460019 	multu	v0,a2
9d006d40:	00003810 	mfhi	a3

9d006d44 <.LBE20>:
9d006d44:	00a7182b 	sltu	v1,a1,a3
9d006d48:	14600044 	bnez	v1,9d006e5c <.LBE20+0x118>
9d006d4c:	00003012 	mflo	a2
9d006d50:	10a7003f 	beq	a1,a3,9d006e50 <.LBE20+0x10c>
9d006d54:	01042004 	sllv	a0,a0,t0
9d006d58:	03e00008 	jr	ra
9d006d5c:	00001821 	move	v1,zero
9d006d60:	24020020 	li	v0,32
9d006d64:	00431023 	subu	v0,v0,v1
9d006d68:	00454806 	srlv	t1,a1,v0
9d006d6c:	00083c02 	srl	a3,t0,0x10
9d006d70:	0127001b 	divu	zero,t1,a3
9d006d74:	00e001f4 	teq	a3,zero,0x7
9d006d78:	00003010 	mfhi	a2
9d006d7c:	00006012 	mflo	t4
9d006d80:	310bffff 	andi	t3,t0,0xffff
9d006d84:	00652804 	sllv	a1,a1,v1
9d006d88:	00441006 	srlv	v0,a0,v0
9d006d8c:	00452825 	or	a1,v0,a1
9d006d90:	00056c02 	srl	t5,a1,0x10
9d006d94:	00641004 	sllv	v0,a0,v1
9d006d98:	00001812 	mflo	v1
9d006d9c:	718b5002 	mul	t2,t4,t3
9d006da0:	00063400 	sll	a2,a2,0x10
9d006da4:	01a63025 	or	a2,t5,a2
9d006da8:	00ca202b 	sltu	a0,a2,t2
9d006dac:	0127001b 	divu	zero,t1,a3
9d006db0:	00e001f4 	teq	a3,zero,0x7
9d006db4:	5080000b 	beqzl	a0,9d006de4 <.LBE20+0xa0>
9d006db8:	00ca3023 	subu	a2,a2,t2
9d006dbc:	00c83021 	addu	a2,a2,t0
9d006dc0:	00c8202b 	sltu	a0,a2,t0
9d006dc4:	14800006 	bnez	a0,9d006de0 <.LBE20+0x9c>
9d006dc8:	2583ffff 	addiu	v1,t4,-1
9d006dcc:	00ca202b 	sltu	a0,a2,t2
9d006dd0:	50800004 	beqzl	a0,9d006de4 <.LBE20+0xa0>
9d006dd4:	00ca3023 	subu	a2,a2,t2
9d006dd8:	2583fffe 	addiu	v1,t4,-2
9d006ddc:	00c83021 	addu	a2,a2,t0
9d006de0:	00ca3023 	subu	a2,a2,t2
9d006de4:	30acffff 	andi	t4,a1,0xffff
9d006de8:	00c7001b 	divu	zero,a2,a3
9d006dec:	00e001f4 	teq	a3,zero,0x7
9d006df0:	00002010 	mfhi	a0
9d006df4:	00005012 	mflo	t2
9d006df8:	00004812 	mflo	t1
9d006dfc:	714b2802 	mul	a1,t2,t3
9d006e00:	00042400 	sll	a0,a0,0x10
9d006e04:	008c2025 	or	a0,a0,t4
9d006e08:	0085602b 	sltu	t4,a0,a1
9d006e0c:	00c7001b 	divu	zero,a2,a3
9d006e10:	00e001f4 	teq	a3,zero,0x7
9d006e14:	5180000b 	beqzl	t4,9d006e44 <.LBE20+0x100>
9d006e18:	00031c00 	sll	v1,v1,0x10
9d006e1c:	00882021 	addu	a0,a0,t0
9d006e20:	0088302b 	sltu	a2,a0,t0
9d006e24:	14c00006 	bnez	a2,9d006e40 <.LBE20+0xfc>
9d006e28:	2549ffff 	addiu	t1,t2,-1
9d006e2c:	0085302b 	sltu	a2,a0,a1
9d006e30:	50c00004 	beqzl	a2,9d006e44 <.LBE20+0x100>
9d006e34:	00031c00 	sll	v1,v1,0x10
9d006e38:	2549fffe 	addiu	t1,t2,-2
9d006e3c:	00882021 	addu	a0,a0,t0
9d006e40:	00031c00 	sll	v1,v1,0x10
9d006e44:	00852023 	subu	a0,a0,a1
9d006e48:	0b401ae2 	j	9d006b88 <.LBB16>
9d006e4c:	01231825 	or	v1,t1,v1
9d006e50:	0086302b 	sltu	a2,a0,a2
9d006e54:	10c0ffc0 	beqz	a2,9d006d58 <.LBE20+0x14>
9d006e58:	00000000 	nop
9d006e5c:	0b401b56 	j	9d006d58 <.LBE20+0x14>
9d006e60:	2442ffff 	addiu	v0,v0,-1
9d006e64:	00001821 	move	v1,zero
9d006e68:	03e00008 	jr	ra
9d006e6c:	24020001 	li	v0,1
9d006e70:	0b401af7 	j	9d006bdc <.LBB16+0x54>
9d006e74:	00c83021 	addu	a2,a2,t0

9d006e78 <waitPMP>:

// wait for the peripheral master port (PMP) to be ready
// should be called before every read and write operation
static void waitPMP(void)
{
  while(PMMODEbits.BUSY) { ; }
9d006e78:	3c03bf80 	lui	v1,0xbf80
9d006e7c:	8c627010 	lw	v0,28688(v1)
9d006e80:	30428000 	andi	v0,v0,0x8000
9d006e84:	1440fffd 	bnez	v0,9d006e7c <waitPMP+0x4>
9d006e88:	00000000 	nop
}
9d006e8c:	03e00008 	jr	ra
9d006e90:	00000000 	nop

9d006e94 <LCD_Read>:
  PMDIN = data;        // send the data
}

// read data from the LCD.  
// rs : the value of the RS signal 0 for instructions status, 1 for data
unsigned char LCD_Read(int rs) {
9d006e94:	27bdffe0 	addiu	sp,sp,-32
9d006e98:	afbf001c 	sw	ra,28(sp)
9d006e9c:	afb00018 	sw	s0,24(sp)
  volatile unsigned char val = 0; // volatile so 1st read doesn't get optimized away
9d006ea0:	a3a00010 	sb	zero,16(sp)
  if(rs) { // 1 to read data
9d006ea4:	10800005 	beqz	a0,9d006ebc <LCD_Read+0x28>
9d006ea8:	24030400 	li	v1,1024
    PMADDRSET = 1 << PMABIT;
9d006eac:	3c02bf80 	lui	v0,0xbf80
9d006eb0:	ac437028 	sw	v1,28712(v0)
9d006eb4:	0b401bb1 	j	9d006ec4 <LCD_Read+0x30>
9d006eb8:	00000000 	nop
  } else { // 0 to read command status
    PMADDRCLR = 1 << PMABIT;
9d006ebc:	3c02bf80 	lui	v0,0xbf80
9d006ec0:	ac437024 	sw	v1,28708(v0)
  }
  // from the PIC32 reference manual, you must read twice to actually get the data
  waitPMP();                  // wait for the PMP to be ready
9d006ec4:	0f401b9e 	jal	9d006e78 <waitPMP>
9d006ec8:	3c10bf80 	lui	s0,0xbf80

9d006ecc <.LVL1>:
  val = PMDIN;
9d006ecc:	8e027040 	lw	v0,28736(s0)
9d006ed0:	304200ff 	andi	v0,v0,0xff
9d006ed4:	a3a20010 	sb	v0,16(sp)
  waitPMP();
9d006ed8:	0f401b9e 	jal	9d006e78 <waitPMP>
9d006edc:	00000000 	nop

9d006ee0 <.LVL2>:
  val = PMDIN;
9d006ee0:	8e027040 	lw	v0,28736(s0)
9d006ee4:	304200ff 	andi	v0,v0,0xff
9d006ee8:	a3a20010 	sb	v0,16(sp)
  return val;
9d006eec:	93a20010 	lbu	v0,16(sp)
}
9d006ef0:	304200ff 	andi	v0,v0,0xff
9d006ef4:	8fbf001c 	lw	ra,28(sp)
9d006ef8:	8fb00018 	lw	s0,24(sp)
9d006efc:	03e00008 	jr	ra
9d006f00:	27bd0020 	addiu	sp,sp,32

9d006f04 <LCD_Write>:
}

// Write data to the LCD and wait for it to finish by checking the busy flag. 
// rs : the value of the RS signal, 0 for an instruction 1 for data
// data : the byte to send
void LCD_Write(int rs, unsigned char data) {
9d006f04:	27bdffd8 	addiu	sp,sp,-40
9d006f08:	afbf0024 	sw	ra,36(sp)
9d006f0c:	afb10020 	sw	s1,32(sp)
9d006f10:	afb0001c 	sw	s0,28(sp)
9d006f14:	00808021 	move	s0,a0
9d006f18:	00a08821 	move	s1,a1

9d006f1c <.LBB4>:
}

// wait for the LCD to finish its command.
// We check this by reading from the LCD
static void waitLCD() {
  volatile unsigned char val = 0x80;
9d006f1c:	2402ff80 	li	v0,-128
9d006f20:	a3a20010 	sb	v0,16(sp)
  
  // Read from the LCD until the Busy flag (BF, 7th bit) is 0
  while (val & 0x80) {
9d006f24:	93a20010 	lbu	v0,16(sp)
9d006f28:	7c021420 	seb	v0,v0
9d006f2c:	04410008 	bgez	v0,9d006f50 <.LVL5+0x14>
9d006f30:	24020032 	li	v0,50
    val = LCD_Read(0);
9d006f34:	0f401ba5 	jal	9d006e94 <LCD_Read>
9d006f38:	00002021 	move	a0,zero

9d006f3c <.LVL5>:
9d006f3c:	a3a20010 	sb	v0,16(sp)
// We check this by reading from the LCD
static void waitLCD() {
  volatile unsigned char val = 0x80;
  
  // Read from the LCD until the Busy flag (BF, 7th bit) is 0
  while (val & 0x80) {
9d006f40:	93a20010 	lbu	v0,16(sp)
9d006f44:	7c021420 	seb	v0,v0
9d006f48:	0440fffa 	bltz	v0,9d006f34 <.LBB4+0x18>
9d006f4c:	24020032 	li	v0,50
    val = LCD_Read(0);
  }
  int i = 0;
  for(i = 0; i < 50; ++i) { // slight delay
    _nop();
9d006f50:	00000040 	ssnop
9d006f54:	2442ffff 	addiu	v0,v0,-1
  // Read from the LCD until the Busy flag (BF, 7th bit) is 0
  while (val & 0x80) {
    val = LCD_Read(0);
  }
  int i = 0;
  for(i = 0; i < 50; ++i) { // slight delay
9d006f58:	1440fffd 	bnez	v0,9d006f50 <.LVL5+0x14>
9d006f5c:	00000000 	nop

9d006f60 <.LBE4>:
// Write data to the LCD and wait for it to finish by checking the busy flag. 
// rs : the value of the RS signal, 0 for an instruction 1 for data
// data : the byte to send
void LCD_Write(int rs, unsigned char data) {
  waitLCD();           // wait for the LCD to be ready
  if(rs) { // 1 for data
9d006f60:	12000004 	beqz	s0,9d006f74 <.LBE4+0x14>
9d006f64:	24030400 	li	v1,1024
    PMADDRSET = 1 << PMABIT;
9d006f68:	3c02bf80 	lui	v0,0xbf80
9d006f6c:	0b401bdf 	j	9d006f7c <.LBE4+0x1c>
9d006f70:	ac437028 	sw	v1,28712(v0)
  } else { // 0 for command
    PMADDRCLR = 1 << PMABIT; 
9d006f74:	3c02bf80 	lui	v0,0xbf80
9d006f78:	ac437024 	sw	v1,28708(v0)
  }
  waitPMP();           // Wait for the PMP to be ready
9d006f7c:	0f401b9e 	jal	9d006e78 <waitPMP>
9d006f80:	00000000 	nop

9d006f84 <.LVL12>:
  PMDIN = data;        // send the data
9d006f84:	3c02bf80 	lui	v0,0xbf80
9d006f88:	ac517040 	sw	s1,28736(v0)
}
9d006f8c:	0b401be5 	j	9d006f94 <.LVL12+0x10>
9d006f90:	8fbf0024 	lw	ra,36(sp)
9d006f94:	8fb10020 	lw	s1,32(sp)
9d006f98:	8fb0001c 	lw	s0,28(sp)
9d006f9c:	03e00008 	jr	ra
9d006fa0:	27bd0028 	addiu	sp,sp,40

9d006fa4 <LCD_Clear>:
    __builtin_enable_interrupts();
  }
}

// Clears the display and returns to the home position (0,0)
void LCD_Clear(void) {
9d006fa4:	27bdffe8 	addiu	sp,sp,-24
9d006fa8:	afbf0014 	sw	ra,20(sp)
  LCD_Write(0,0x01); //clear the whole screen
9d006fac:	00002021 	move	a0,zero
9d006fb0:	0f401bc1 	jal	9d006f04 <LCD_Write>
9d006fb4:	24050001 	li	a1,1

9d006fb8 <.LVL15>:
}
9d006fb8:	8fbf0014 	lw	ra,20(sp)
9d006fbc:	03e00008 	jr	ra
9d006fc0:	27bd0018 	addiu	sp,sp,24

9d006fc4 <LCD_Home>:

// Return the cursor and display to the home position (0,0)
void LCD_Home(void) {
9d006fc4:	27bdffe8 	addiu	sp,sp,-24
9d006fc8:	afbf0014 	sw	ra,20(sp)
  LCD_Write(0,0x02);
9d006fcc:	00002021 	move	a0,zero
9d006fd0:	0f401bc1 	jal	9d006f04 <LCD_Write>
9d006fd4:	24050002 	li	a1,2

9d006fd8 <.LVL16>:
}
9d006fd8:	8fbf0014 	lw	ra,20(sp)
9d006fdc:	03e00008 	jr	ra
9d006fe0:	27bd0018 	addiu	sp,sp,24

9d006fe4 <LCD_Entry>:

// Issue the LCD entry mode set command
// This tells the LCD what to do after writing a character
// id : 1 increment cursor, 0 decrement cursor
// s : 1 shift display right, 0 don't shift display
void LCD_Entry(int id, int s) {
9d006fe4:	27bdffe8 	addiu	sp,sp,-24
9d006fe8:	afbf0014 	sw	ra,20(sp)
  LCD_Write(0, 0x04 | (id << 1) | s);
9d006fec:	34a50004 	ori	a1,a1,0x4
9d006ff0:	00042040 	sll	a0,a0,0x1
9d006ff4:	00a42825 	or	a1,a1,a0
9d006ff8:	00002021 	move	a0,zero
9d006ffc:	0f401bc1 	jal	9d006f04 <LCD_Write>
9d007000:	30a500ff 	andi	a1,a1,0xff

9d007004 <.LVL20>:
}
9d007004:	8fbf0014 	lw	ra,20(sp)
9d007008:	03e00008 	jr	ra
9d00700c:	27bd0018 	addiu	sp,sp,24

9d007010 <LCD_Display>:
// Issue the LCD Display command
// Changes display settings
// d : 1 display on, 0 display off
// c : 1 cursor on, 0 cursor off
// b : 1 cursor blinks, 0 cursor doesn't blink
void LCD_Display(int d, int c, int b) {
9d007010:	27bdffe8 	addiu	sp,sp,-24
9d007014:	afbf0014 	sw	ra,20(sp)
  LCD_Write(0, 0x08 | (d << 2) | (c << 1) | b);
9d007018:	34c60008 	ori	a2,a2,0x8
9d00701c:	00052840 	sll	a1,a1,0x1
9d007020:	00c53025 	or	a2,a2,a1
9d007024:	00042080 	sll	a0,a0,0x2
9d007028:	00c42825 	or	a1,a2,a0
9d00702c:	00002021 	move	a0,zero
9d007030:	0f401bc1 	jal	9d006f04 <LCD_Write>
9d007034:	30a500ff 	andi	a1,a1,0xff

9d007038 <.LVL25>:
}
9d007038:	8fbf0014 	lw	ra,20(sp)
9d00703c:	03e00008 	jr	ra
9d007040:	27bd0018 	addiu	sp,sp,24

9d007044 <LCD_Shift>:

// Issue the LCD display shift command
// Move the cursor or the display right or left
// sc : 0 shift cursor, 1 shift display
// rl : 0 to the left, 1 to the right
void LCD_Shift(int sc, int rl) {
9d007044:	27bdffe8 	addiu	sp,sp,-24
9d007048:	afbf0014 	sw	ra,20(sp)
  LCD_Write(0,0x1 | (sc << 3) | (rl << 2));
9d00704c:	00052880 	sll	a1,a1,0x2
9d007050:	34a50001 	ori	a1,a1,0x1
9d007054:	000420c0 	sll	a0,a0,0x3
9d007058:	00a42825 	or	a1,a1,a0
9d00705c:	00002021 	move	a0,zero
9d007060:	0f401bc1 	jal	9d006f04 <LCD_Write>
9d007064:	30a500fd 	andi	a1,a1,0xfd

9d007068 <.LVL29>:
}
9d007068:	8fbf0014 	lw	ra,20(sp)
9d00706c:	03e00008 	jr	ra
9d007070:	27bd0018 	addiu	sp,sp,24

9d007074 <LCD_Function>:
// Issue the LCD Functions set command
// This controls some LCD settings
// You may want to clear the screen after calling this
// n : 0 one line, 1 two lines
// f : 0 small font, 1 large font (only if n == 0)
void LCD_Function(int n, int f) {
9d007074:	27bdffe8 	addiu	sp,sp,-24
9d007078:	afbf0014 	sw	ra,20(sp)
  LCD_Write(0, 0x30 | (n << 3) | (f << 2));
9d00707c:	00052880 	sll	a1,a1,0x2
9d007080:	34a50030 	ori	a1,a1,0x30
9d007084:	000420c0 	sll	a0,a0,0x3
9d007088:	00a42825 	or	a1,a1,a0
9d00708c:	00002021 	move	a0,zero
9d007090:	0f401bc1 	jal	9d006f04 <LCD_Write>
9d007094:	30a500fc 	andi	a1,a1,0xfc

9d007098 <.LVL33>:
}
9d007098:	8fbf0014 	lw	ra,20(sp)
9d00709c:	03e00008 	jr	ra
9d0070a0:	27bd0018 	addiu	sp,sp,24

9d0070a4 <LCD_Move>:

// Move the cursor to the desired line and column
// Does this by issuing a DDRAM Move instruction
// line : line 0 or line 1
// col  : the desired column
void LCD_Move(int line, int col) {
9d0070a4:	27bdffe8 	addiu	sp,sp,-24
9d0070a8:	afbf0014 	sw	ra,20(sp)
  LCD_Write(0, 0x80 | (line << 6) | col);
9d0070ac:	2402ff80 	li	v0,-128
9d0070b0:	00a22825 	or	a1,a1,v0
9d0070b4:	00042180 	sll	a0,a0,0x6
9d0070b8:	00a42825 	or	a1,a1,a0
9d0070bc:	00002021 	move	a0,zero
9d0070c0:	0f401bc1 	jal	9d006f04 <LCD_Write>
9d0070c4:	30a500ff 	andi	a1,a1,0xff

9d0070c8 <.LVL37>:
}
9d0070c8:	8fbf0014 	lw	ra,20(sp)
9d0070cc:	03e00008 	jr	ra
9d0070d0:	27bd0018 	addiu	sp,sp,24

9d0070d4 <LCD_CMove>:

// Sets the CGRAM address, used for creating custom
// characters
// addr address in the CGRAM to make current
void LCD_CMove(unsigned char addr) {
9d0070d4:	27bdffe8 	addiu	sp,sp,-24
9d0070d8:	afbf0014 	sw	ra,20(sp)
  LCD_Write(0, 0x40 | addr);
9d0070dc:	34850040 	ori	a1,a0,0x40
9d0070e0:	0f401bc1 	jal	9d006f04 <LCD_Write>
9d0070e4:	00002021 	move	a0,zero

9d0070e8 <.LVL40>:
}
9d0070e8:	8fbf0014 	lw	ra,20(sp)
9d0070ec:	03e00008 	jr	ra
9d0070f0:	27bd0018 	addiu	sp,sp,24

9d0070f4 <LCD_WriteChar>:

// Writes the character to the LCD at the current position
void LCD_WriteChar(char c) {         
9d0070f4:	27bdffe8 	addiu	sp,sp,-24
9d0070f8:	afbf0014 	sw	ra,20(sp)
  LCD_Write(1, c); 
9d0070fc:	308500ff 	andi	a1,a0,0xff
9d007100:	0f401bc1 	jal	9d006f04 <LCD_Write>
9d007104:	24040001 	li	a0,1

9d007108 <.LVL43>:
}
9d007108:	8fbf0014 	lw	ra,20(sp)
9d00710c:	03e00008 	jr	ra
9d007110:	27bd0018 	addiu	sp,sp,24

9d007114 <LCD_WriteString>:

// Write a string to the LCD starting at the current cursor
void LCD_WriteString(const char *str) {
9d007114:	27bdffe8 	addiu	sp,sp,-24
9d007118:	afbf0014 	sw	ra,20(sp)
9d00711c:	afb00010 	sw	s0,16(sp)
9d007120:	00808021 	move	s0,a0
  while(*str) {
9d007124:	80840000 	lb	a0,0(a0)
9d007128:	10800006 	beqz	a0,9d007144 <.LVL46+0xc>
9d00712c:	8fbf0014 	lw	ra,20(sp)
    LCD_WriteChar(*str); // increment string pointer after char sent
9d007130:	0f401c3d 	jal	9d0070f4 <LCD_WriteChar>
9d007134:	26100001 	addiu	s0,s0,1

9d007138 <.LVL46>:
  LCD_Write(1, c); 
}

// Write a string to the LCD starting at the current cursor
void LCD_WriteString(const char *str) {
  while(*str) {
9d007138:	82040000 	lb	a0,0(s0)
9d00713c:	1480fffc 	bnez	a0,9d007130 <LCD_WriteString+0x1c>
9d007140:	8fbf0014 	lw	ra,20(sp)
    LCD_WriteChar(*str); // increment string pointer after char sent
    ++str;
  }
}
9d007144:	8fb00010 	lw	s0,16(sp)
9d007148:	03e00008 	jr	ra
9d00714c:	27bd0018 	addiu	sp,sp,24

9d007150 <LCD_CustomChar>:
// Make val a custom character.  This only implements 
// The small font version
// val : between 0 and 7
// data : 7 character array.  The first 5 bits of each character
//        determine whether that pixel is on or off
void LCD_CustomChar(unsigned char val, const char * data) {
9d007150:	27bdffd8 	addiu	sp,sp,-40
9d007154:	afbf0024 	sw	ra,36(sp)
9d007158:	afb30020 	sw	s3,32(sp)
9d00715c:	afb2001c 	sw	s2,28(sp)
9d007160:	afb10018 	sw	s1,24(sp)
9d007164:	afb00014 	sw	s0,20(sp)
9d007168:	00a09821 	move	s3,a1
  int i = 0;
  for(i = 0; i < 7; ++i) {
    LCD_CMove(((val & 7) << 2) | i);
9d00716c:	30840007 	andi	a0,a0,0x7
9d007170:	00049080 	sll	s2,a0,0x2
// val : between 0 and 7
// data : 7 character array.  The first 5 bits of each character
//        determine whether that pixel is on or off
void LCD_CustomChar(unsigned char val, const char * data) {
  int i = 0;
  for(i = 0; i < 7; ++i) {
9d007174:	00008021 	move	s0,zero
9d007178:	24110007 	li	s1,7
    LCD_CMove(((val & 7) << 2) | i);
9d00717c:	02502025 	or	a0,s2,s0
9d007180:	0f401c35 	jal	9d0070d4 <LCD_CMove>
9d007184:	308400ff 	andi	a0,a0,0xff

9d007188 <.LVL52>:
9d007188:	02701021 	addu	v0,s3,s0
    LCD_Write(1, data[i]);
9d00718c:	24040001 	li	a0,1
9d007190:	0f401bc1 	jal	9d006f04 <LCD_Write>
9d007194:	90450000 	lbu	a1,0(v0)

9d007198 <.LVL53>:
// val : between 0 and 7
// data : 7 character array.  The first 5 bits of each character
//        determine whether that pixel is on or off
void LCD_CustomChar(unsigned char val, const char * data) {
  int i = 0;
  for(i = 0; i < 7; ++i) {
9d007198:	26100001 	addiu	s0,s0,1
9d00719c:	1611fff8 	bne	s0,s1,9d007180 <LCD_CustomChar+0x30>
9d0071a0:	02502025 	or	a0,s2,s0
    LCD_CMove(((val & 7) << 2) | i);
    LCD_Write(1, data[i]);
  }
}
9d0071a4:	8fbf0024 	lw	ra,36(sp)
9d0071a8:	8fb30020 	lw	s3,32(sp)
9d0071ac:	8fb2001c 	lw	s2,28(sp)
9d0071b0:	8fb10018 	lw	s1,24(sp)
9d0071b4:	8fb00014 	lw	s0,20(sp)
9d0071b8:	03e00008 	jr	ra
9d0071bc:	27bd0028 	addiu	sp,sp,40

9d0071c0 <LCD_Setup>:
// pins RE0 - RE7 (PMD0 - PMD7) connect to LCD pins D0 - D7
// pin RD4 (PMENB) connects to LCD pin E
// pin RD5 (PMRD/PMWR) Connects to LCD pin R/W
// pin RB13 (PMA10) Connects to RS.
// interrupts will be disabled while this function executes
void LCD_Setup() {
9d0071c0:	27bdffe8 	addiu	sp,sp,-24
9d0071c4:	afbf0014 	sw	ra,20(sp)
9d0071c8:	afb00010 	sw	s0,16(sp)
  int en = __builtin_disable_interrupts();  // disable interrupts, remember initial state
9d0071cc:	41706000 	di	s0
9d0071d0:	000000c0 	ehb
  
  IEC1bits.PMPIE = 0;    // disable PMP interrupts
9d0071d4:	3c02bf88 	lui	v0,0xbf88
9d0071d8:	8c431070 	lw	v1,4208(v0)
9d0071dc:	7c031084 	ins	v1,zero,0x2,0x1
9d0071e0:	ac431070 	sw	v1,4208(v0)
  PMCON = 0;             // clear PMCON, like it is on reset
9d0071e4:	3c02bf80 	lui	v0,0xbf80
9d0071e8:	ac407000 	sw	zero,28672(v0)
  PMCONbits.PTWREN = 1;  // PMENB strobe enabled
9d0071ec:	3c02bf80 	lui	v0,0xbf80
9d0071f0:	94437000 	lhu	v1,28672(v0)
9d0071f4:	24040001 	li	a0,1
9d0071f8:	7c834a44 	ins	v1,a0,0x9,0x1
9d0071fc:	a4437000 	sh	v1,28672(v0)
  PMCONbits.PTRDEN = 1;  // PMRD/PMWR enabled
9d007200:	94437000 	lhu	v1,28672(v0)
9d007204:	7c834204 	ins	v1,a0,0x8,0x1
9d007208:	a4437000 	sh	v1,28672(v0)
  PMCONbits.WRSP = 1;    // Read/write strobe is active high
9d00720c:	94437000 	lhu	v1,28672(v0)
9d007210:	7c830844 	ins	v1,a0,0x1,0x1
9d007214:	a4437000 	sh	v1,28672(v0)
  PMCONbits.RDSP = 1;    // Read/write strobe is active high
9d007218:	94437000 	lhu	v1,28672(v0)
9d00721c:	7c830004 	ins	v1,a0,0x0,0x1
9d007220:	a4437000 	sh	v1,28672(v0)

  PMMODE = 0;            // clear PMMODE like it is on reset
9d007224:	3c03bf80 	lui	v1,0xbf80
9d007228:	ac607010 	sw	zero,28688(v1)
  PMMODEbits.MODE = 0x3; // set master mode 1, which uses a single strobe
9d00722c:	3c03bf80 	lui	v1,0xbf80
9d007230:	94657010 	lhu	a1,28688(v1)
9d007234:	24060003 	li	a2,3
9d007238:	7cc54a04 	ins	a1,a2,0x8,0x2
9d00723c:	a4657010 	sh	a1,28688(v1)
  // The cycle is started when reading from or writing to the PMDIN SFR.
  // Note that the wait states for writes start with minimum of 1 (except WAITE)
  // We add some extra wait states to make sure we meet the time and
  // account for variations in timing amongst different HD44780 compatible parts.
  // The timing we use here is for the KS066U which is faster than the HD44780.
  PMMODEbits.WAITB = 0x3;  // Tas in the LCD datasheet is 60 ns 
9d007240:	94657010 	lhu	a1,28688(v1)
9d007244:	7cc53984 	ins	a1,a2,0x6,0x2
9d007248:	a4657010 	sh	a1,28688(v1)
  PMMODEbits.WAITM = 0xF;  // PWeh in the data sheet is 230 ns (we don't quite meet this)
9d00724c:	94657010 	lhu	a1,28688(v1)
9d007250:	2406000f 	li	a2,15
9d007254:	7cc52884 	ins	a1,a2,0x2,0x4
9d007258:	a4657010 	sh	a1,28688(v1)
                           // If not working for your LCD you may need to reduce PBCLK
  PMMODEbits.WAITE = 0x1;  // after E is low wait Tah (10ns)
9d00725c:	94657010 	lhu	a1,28688(v1)
9d007260:	7c850804 	ins	a1,a0,0x0,0x2
9d007264:	a4657010 	sh	a1,28688(v1)

  PMAEN |= 1 << PMABIT;   // PMA is an address line
9d007268:	3c03bf80 	lui	v1,0xbf80
9d00726c:	8c657050 	lw	a1,28752(v1)
9d007270:	34a50400 	ori	a1,a1,0x400
9d007274:	ac657050 	sw	a1,28752(v1)
  
  PMCONbits.ON = 1;        // enable the PMP peripheral
9d007278:	94437000 	lhu	v1,28672(v0)
9d00727c:	7c837bc4 	ins	v1,a0,0xf,0x1
9d007280:	a4437000 	sh	v1,28672(v0)

9d007284 <.LBB12>:
// This controls some LCD settings
// You may want to clear the screen after calling this
// n : 0 one line, 1 two lines
// f : 0 small font, 1 large font (only if n == 0)
void LCD_Function(int n, int f) {
  LCD_Write(0, 0x30 | (n << 3) | (f << 2));
9d007284:	00002021 	move	a0,zero
9d007288:	0f401bc1 	jal	9d006f04 <LCD_Write>
9d00728c:	24050038 	li	a1,56

9d007290 <.LBB14>:
// Changes display settings
// d : 1 display on, 0 display off
// c : 1 cursor on, 0 cursor off
// b : 1 cursor blinks, 0 cursor doesn't blink
void LCD_Display(int d, int c, int b) {
  LCD_Write(0, 0x08 | (d << 2) | (c << 1) | b);
9d007290:	00002021 	move	a0,zero
9d007294:	0f401bc1 	jal	9d006f04 <LCD_Write>
9d007298:	2405000c 	li	a1,12

9d00729c <.LBE14>:
  
  PMCONbits.ON = 1;        // enable the PMP peripheral
  // perform the initialization sequence
  LCD_Function(1,0);       // 2 line mode, small font
  LCD_Display(1, 0, 0);    // Display control: display on, cursor off, blinking cursor off
  LCD_Clear();             // clear the LCD 
9d00729c:	0f401be9 	jal	9d006fa4 <LCD_Clear>
9d0072a0:	32100001 	andi	s0,s0,0x1

9d0072a4 <.LBB16>:
// Issue the LCD entry mode set command
// This tells the LCD what to do after writing a character
// id : 1 increment cursor, 0 decrement cursor
// s : 1 shift display right, 0 don't shift display
void LCD_Entry(int id, int s) {
  LCD_Write(0, 0x04 | (id << 1) | s);
9d0072a4:	00002021 	move	a0,zero
9d0072a8:	0f401bc1 	jal	9d006f04 <LCD_Write>
9d0072ac:	24050006 	li	a1,6

9d0072b0 <.LBE16>:
  LCD_Function(1,0);       // 2 line mode, small font
  LCD_Display(1, 0, 0);    // Display control: display on, cursor off, blinking cursor off
  LCD_Clear();             // clear the LCD 
  LCD_Entry(1, 0);         // Cursor moves left to right. do not shift the display
  
  if(en & 0x1)             // if interrupts were enabled before, re-enable them
9d0072b0:	12000003 	beqz	s0,9d0072c0 <.LBE16+0x10>
9d0072b4:	8fbf0014 	lw	ra,20(sp)
  {
    __builtin_enable_interrupts();
9d0072b8:	41626020 	ei	v0
  }
}
9d0072bc:	8fbf0014 	lw	ra,20(sp)
9d0072c0:	8fb00010 	lw	s0,16(sp)
9d0072c4:	03e00008 	jr	ra
9d0072c8:	27bd0018 	addiu	sp,sp,24

Disassembly of section .text.dp32subadd:

9d0072cc <__subdf3>:
9d0072cc:	3c018000 00e13826                       ...<&8..

9d0072d4 <__adddf3>:
9d0072d4:	00055840 000b5d42 000552c0 00047d42     @X..B]...R..B}..
9d0072e4:	014f5025 00044ac0 3c088000 01485025     %PO..J.....<%PH.
9d0072f4:	00077040 000e7542 00076ac0 00067d42     @p..Bu...j..B}..
9d007304:	01af6825 000662c0 01a86825 256fffff     %h...b..%h....o%
9d007314:	2de107fe 1020008d 00000000              ...-.. .....

9d007320 <Blab1>:
9d007320:	25cfffff 	addiu	t7,t6,-1
9d007324:	2de107fe 	sltiu	at,t7,2046
9d007328:	102000bb 	beqz	at,9d007618 <BspecB>
9d00732c:	00000000 	nop

9d007330 <Blab2>:
9d007330:	3c018000 	lui	at,0x8000
9d007334:	00a12824 	and	a1,a1,at
9d007338:	016e4023 	subu	t0,t3,t6
9d00733c:	1100002c 	beqz	t0,9d0073f0 <Badd3>
9d007340:	00000000 	nop
9d007344:	19000015 	blez	t0,9d00739c <i1>
9d007348:	00000000 	nop

9d00734c <L1>:
9d00734c:	2d010020 	sltiu	at,t0,32
9d007350:	14200007 	bnez	at,9d007370 <L2>
9d007354:	00000000 	nop
9d007358:	2108ffe0 	addi	t0,t0,-32
9d00735c:	000c302b 	sltu	a2,zero,t4
9d007360:	100d0023 	beq	zero,t5,9d0073f0 <Badd3>
9d007364:	01a66025 	or	t4,t5,a2
9d007368:	1000fff8 	b	9d00734c <L1>
9d00736c:	340d0000 	li	t5,0x0

9d007370 <L2>:
9d007370:	1100001f 	beqz	t0,9d0073f0 <Badd3>
9d007374:	00000000 	nop
9d007378:	00082022 	neg	a0,t0
9d00737c:	008c3004 	sllv	a2,t4,a0
9d007380:	008d2004 	sllv	a0,t5,a0
9d007384:	010c6006 	srlv	t4,t4,t0
9d007388:	010d6806 	srlv	t5,t5,t0
9d00738c:	10c00018 	beqz	a2,9d0073f0 <Badd3>
9d007390:	008c6025 	or	t4,a0,t4
9d007394:	10000016 	b	9d0073f0 <Badd3>
9d007398:	358c0002 	ori	t4,t4,0x2

9d00739c <i1>:
9d00739c:	000e5825 	or	t3,zero,t6
9d0073a0:	00084023 	negu	t0,t0

9d0073a4 <L4>:
9d0073a4:	2d010020 	sltiu	at,t0,32
9d0073a8:	14200007 	bnez	at,9d0073c8 <L5>
9d0073ac:	00000000 	nop
9d0073b0:	2108ffe0 	addi	t0,t0,-32
9d0073b4:	0009302b 	sltu	a2,zero,t1
9d0073b8:	100a000d 	beq	zero,t2,9d0073f0 <Badd3>
9d0073bc:	01464825 	or	t1,t2,a2
9d0073c0:	1000fff8 	b	9d0073a4 <L4>
9d0073c4:	340a0000 	li	t2,0x0

9d0073c8 <L5>:
9d0073c8:	11000009 	beqz	t0,9d0073f0 <Badd3>
9d0073cc:	00000000 	nop
9d0073d0:	00082022 	neg	a0,t0
9d0073d4:	00893004 	sllv	a2,t1,a0
9d0073d8:	008a2004 	sllv	a0,t2,a0
9d0073dc:	01094806 	srlv	t1,t1,t0
9d0073e0:	010a5006 	srlv	t2,t2,t0
9d0073e4:	10c00002 	beqz	a2,9d0073f0 <Badd3>
9d0073e8:	00894825 	or	t1,a0,t1
9d0073ec:	35290002 	ori	t1,t1,0x2

9d0073f0 <Badd3>:
9d0073f0:	00a77826 	xor	t7,a1,a3
9d0073f4:	05e0001c 	bltz	t7,9d007468 <Bsub1>
9d0073f8:	00000000 	nop
9d0073fc:	012c4821 	addu	t1,t1,t4
9d007400:	012c782b 	sltu	t7,t1,t4
9d007404:	014d5021 	addu	t2,t2,t5
9d007408:	014f5021 	addu	t2,t2,t7
9d00740c:	114d0002 	beq	t2,t5,9d007418 <L7>
9d007410:	00000000 	nop
9d007414:	014d782b 	sltu	t7,t2,t5

9d007418 <L7>:
9d007418:	11e00037 	beqz	t7,9d0074f8 <Bres>
9d00741c:	00000000 	nop
9d007420:	312f0001 	andi	t7,t1,0x1
9d007424:	11e00002 	beqz	t7,9d007430 <i3>
9d007428:	00000000 	nop
9d00742c:	35290002 	ori	t1,t1,0x2

9d007430 <i3>:
9d007430:	00094842 	srl	t1,t1,0x1
9d007434:	000a7fc0 	sll	t7,t2,0x1f
9d007438:	012f4825 	or	t1,t1,t7
9d00743c:	000a5042 	srl	t2,t2,0x1
9d007440:	3c018000 	lui	at,0x8000
9d007444:	01415025 	or	t2,t2,at
9d007448:	256b0001 	addiu	t3,t3,1
9d00744c:	240107ff 	li	at,2047
9d007450:	15610029 	bne	t3,at,9d0074f8 <Bres>
9d007454:	00000000 	nop
9d007458:	3c017ff0 	lui	at,0x7ff0
9d00745c:	00a12825 	or	a1,a1,at
9d007460:	10000037 	b	9d007540 <BretA>
9d007464:	24040000 	li	a0,0

9d007468 <Bsub1>:
9d007468:	012c782b 	sltu	t7,t1,t4
9d00746c:	012c4823 	subu	t1,t1,t4
9d007470:	014f102b 	sltu	v0,t2,t7
9d007474:	014f5023 	subu	t2,t2,t7
9d007478:	014d782b 	sltu	t7,t2,t5
9d00747c:	01e27825 	or	t7,t7,v0
9d007480:	11e00007 	beqz	t7,9d0074a0 <i5>
9d007484:	014d5023 	subu	t2,t2,t5
9d007488:	3c018000 	lui	at,0x8000
9d00748c:	00a12826 	xor	a1,a1,at
9d007490:	0009782b 	sltu	t7,zero,t1
9d007494:	00094823 	negu	t1,t1
9d007498:	000a5023 	negu	t2,t2
9d00749c:	014f5023 	subu	t2,t2,t7

9d0074a0 <i5>:
9d0074a0:	15400008 	bnez	t2,9d0074c4 <L8>
9d0074a4:	00000000 	nop
9d0074a8:	15200003 	bnez	t1,9d0074b8 <L9>
9d0074ac:	00000000 	nop
9d0074b0:	1000000d 	b	9d0074e8 <L10>
9d0074b4:	240b0000 	li	t3,0

9d0074b8 <L9>:
9d0074b8:	01205025 	move	t2,t1
9d0074bc:	24090000 	li	t1,0
9d0074c0:	256bffe0 	addiu	t3,t3,-32

9d0074c4 <L8>:
9d0074c4:	71484020 	clz	t0,t2
9d0074c8:	11000007 	beqz	t0,9d0074e8 <L10>
9d0074cc:	00000000 	nop
9d0074d0:	01685823 	subu	t3,t3,t0
9d0074d4:	00082022 	neg	a0,t0
9d0074d8:	00892006 	srlv	a0,t1,a0
9d0074dc:	01094804 	sllv	t1,t1,t0
9d0074e0:	010a5004 	sllv	t2,t2,t0
9d0074e4:	01445025 	or	t2,t2,a0

9d0074e8 <L10>:
9d0074e8:	01497825 	or	t7,t2,t1
9d0074ec:	15e00002 	bnez	t7,9d0074f8 <Bres>
9d0074f0:	00000000 	nop
9d0074f4:	24050000 	li	a1,0

9d0074f8 <Bres>:
9d0074f8:	19600068 	blez	t3,9d00769c <Bund>
9d0074fc:	00000000 	nop

9d007500 <Blab8>:
9d007500:	25290400 	addiu	t1,t1,1024
9d007504:	2d2f0400 	sltiu	t7,t1,1024
9d007508:	014f5021 	addu	t2,t2,t7
9d00750c:	014f782b 	sltu	t7,t2,t7
9d007510:	016f5821 	addu	t3,t3,t7
9d007514:	00097ac2 	srl	t7,t1,0xb
9d007518:	31ef0001 	andi	t7,t7,0x1
9d00751c:	012f4823 	subu	t1,t1,t7
9d007520:	000922c2 	srl	a0,t1,0xb
9d007524:	000a7d40 	sll	t7,t2,0x15
9d007528:	008f2025 	or	a0,a0,t7
9d00752c:	000a7840 	sll	t7,t2,0x1
9d007530:	000f7b02 	srl	t7,t7,0xc
9d007534:	00af2825 	or	a1,a1,t7
9d007538:	000b7d00 	sll	t7,t3,0x14
9d00753c:	00af2825 	or	a1,a1,t7

9d007540 <BretA>:
9d007540:	00041025 	or	v0,zero,a0
9d007544:	00051825 	or	v1,zero,a1

9d007548 <B999>:
9d007548:	03e00008 	jr	ra
9d00754c:	00000000 	nop

9d007550 <BspecA>:
9d007550:	0120782a 	slt	t7,t1,zero
9d007554:	01294821 	addu	t1,t1,t1
9d007558:	014a5021 	addu	t2,t2,t2
9d00755c:	15600023 	bnez	t3,9d0075ec <i7>
9d007560:	014f5021 	addu	t2,t2,t7
9d007564:	01497825 	or	t7,t2,t1
9d007568:	11e00014 	beqz	t7,9d0075bc <i8>
9d00756c:	00000000 	nop
9d007570:	15400008 	bnez	t2,9d007594 <L11>
9d007574:	00000000 	nop
9d007578:	15200003 	bnez	t1,9d007588 <L12>
9d00757c:	00000000 	nop
9d007580:	1000ff67 	b	9d007320 <Blab1>
9d007584:	240b0000 	li	t3,0

9d007588 <L12>:
9d007588:	01205025 	move	t2,t1
9d00758c:	24090000 	li	t1,0
9d007590:	256bffe0 	addiu	t3,t3,-32

9d007594 <L11>:
9d007594:	71484020 	clz	t0,t2
9d007598:	1100ff61 	beqz	t0,9d007320 <Blab1>
9d00759c:	00000000 	nop
9d0075a0:	01685823 	subu	t3,t3,t0
9d0075a4:	00082022 	neg	a0,t0
9d0075a8:	00892006 	srlv	a0,t1,a0
9d0075ac:	01094804 	sllv	t1,t1,t0
9d0075b0:	010a5004 	sllv	t2,t2,t0
9d0075b4:	1000ff5a 	b	9d007320 <Blab1>
9d0075b8:	01445025 	or	t2,t2,a0

9d0075bc <i8>:
9d0075bc:	240107ff 	li	at,2047
9d0075c0:	11c10015 	beq	t6,at,9d007618 <BspecB>
9d0075c4:	00000000 	nop
9d0075c8:	00e74021 	addu	t0,a3,a3
9d0075cc:	01067825 	or	t7,t0,a2
9d0075d0:	15e00003 	bnez	t7,9d0075e0 <BretB>
9d0075d4:	00000000 	nop
9d0075d8:	04e0ffd9 	bltz	a3,9d007540 <BretA>
9d0075dc:	00000000 	nop

9d0075e0 <BretB>:
9d0075e0:	00061025 	or	v0,zero,a2
9d0075e4:	1000ffd8 	b	9d007548 <B999>
9d0075e8:	00071825 	or	v1,zero,a3

9d0075ec <i7>:
9d0075ec:	01497825 	or	t7,t2,t1
9d0075f0:	15e00027 	bnez	t7,9d007690 <Bnan>
9d0075f4:	00000000 	nop
9d0075f8:	240107ff 	li	at,2047
9d0075fc:	15c1ffd0 	bne	t6,at,9d007540 <BretA>
9d007600:	00000000 	nop
9d007604:	00a77826 	xor	t7,a1,a3
9d007608:	05e00021 	bltz	t7,9d007690 <Bnan>
9d00760c:	00000000 	nop
9d007610:	1000fff3 	b	9d0075e0 <BretB>
9d007614:	00000000 	nop

9d007618 <BspecB>:
9d007618:	0180782a 	slt	t7,t4,zero
9d00761c:	018c6021 	addu	t4,t4,t4
9d007620:	01ad6821 	addu	t5,t5,t5
9d007624:	15c00017 	bnez	t6,9d007684 <i11>
9d007628:	01af6821 	addu	t5,t5,t7
9d00762c:	01ac7825 	or	t7,t5,t4
9d007630:	11e0ffc3 	beqz	t7,9d007540 <BretA>
9d007634:	00000000 	nop
9d007638:	15a00008 	bnez	t5,9d00765c <L14>
9d00763c:	00000000 	nop
9d007640:	15800003 	bnez	t4,9d007650 <L15>
9d007644:	00000000 	nop
9d007648:	1000ff39 	b	9d007330 <Blab2>
9d00764c:	240e0000 	li	t6,0

9d007650 <L15>:
9d007650:	01806825 	move	t5,t4
9d007654:	240c0000 	li	t4,0
9d007658:	25ceffe0 	addiu	t6,t6,-32

9d00765c <L14>:
9d00765c:	71a84020 	clz	t0,t5
9d007660:	1100ff33 	beqz	t0,9d007330 <Blab2>
9d007664:	00000000 	nop
9d007668:	01c87023 	subu	t6,t6,t0
9d00766c:	00082022 	neg	a0,t0
9d007670:	008c2006 	srlv	a0,t4,a0
9d007674:	010c6004 	sllv	t4,t4,t0
9d007678:	010d6804 	sllv	t5,t5,t0
9d00767c:	1000ff2c 	b	9d007330 <Blab2>
9d007680:	01a46825 	or	t5,t5,a0

9d007684 <i11>:
9d007684:	01ac7825 	or	t7,t5,t4
9d007688:	11e0ffd5 	beqz	t7,9d0075e0 <BretB>
9d00768c:	00000000 	nop

9d007690 <Bnan>:
9d007690:	3c05fff8 	lui	a1,0xfff8
9d007694:	1000ffaa 	b	9d007540 <BretA>
9d007698:	24040000 	li	a0,0

9d00769c <Bund>:
9d00769c:	24080001 	li	t0,1
9d0076a0:	010b4023 	subu	t0,t0,t3

9d0076a4 <L17>:
9d0076a4:	2d010020 	sltiu	at,t0,32
9d0076a8:	14200007 	bnez	at,9d0076c8 <L18>
9d0076ac:	00000000 	nop
9d0076b0:	2108ffe0 	addi	t0,t0,-32
9d0076b4:	0009302b 	sltu	a2,zero,t1
9d0076b8:	100a000d 	beq	zero,t2,9d0076f0 <L19>
9d0076bc:	01464825 	or	t1,t2,a2
9d0076c0:	1000fff8 	b	9d0076a4 <L17>
9d0076c4:	340a0000 	li	t2,0x0

9d0076c8 <L18>:
9d0076c8:	11000009 	beqz	t0,9d0076f0 <L19>
9d0076cc:	00000000 	nop
9d0076d0:	00082022 	neg	a0,t0
9d0076d4:	00893004 	sllv	a2,t1,a0
9d0076d8:	008a2004 	sllv	a0,t2,a0
9d0076dc:	01094806 	srlv	t1,t1,t0
9d0076e0:	010a5006 	srlv	t2,t2,t0
9d0076e4:	10c00002 	beqz	a2,9d0076f0 <L19>
9d0076e8:	00894825 	or	t1,a0,t1
9d0076ec:	35290002 	ori	t1,t1,0x2

9d0076f0 <L19>:
9d0076f0:	1000ff83 	b	9d007500 <Blab8>
9d0076f4:	240b0000 	li	t3,0
9d0076f8:	00000000 	nop

Disassembly of section .text.__strtod:

9d0076fc <__strtod>:
9d0076fc:	27bdffc8 	addiu	sp,sp,-56

9d007700 <.LCFI0>:
9d007700:	afbf0034 	sw	ra,52(sp)
9d007704:	afbe0030 	sw	s8,48(sp)
9d007708:	afb7002c 	sw	s7,44(sp)
9d00770c:	afb60028 	sw	s6,40(sp)
9d007710:	afb50024 	sw	s5,36(sp)
9d007714:	afb40020 	sw	s4,32(sp)
9d007718:	afb3001c 	sw	s3,28(sp)
9d00771c:	afb20018 	sw	s2,24(sp)
9d007720:	afb10014 	sw	s1,20(sp)
9d007724:	afb00010 	sw	s0,16(sp)
9d007728:	0080b821 	move	s7,a0
9d00772c:	80820000 	lb	v0,0(a0)
9d007730:	3c1e9d01 	lui	s8,0x9d01
9d007734:	27deabcd 	addiu	s8,s8,-21555
9d007738:	03c21821 	addu	v1,s8,v0
9d00773c:	80630000 	lb	v1,0(v1)
9d007740:	00a0a821 	move	s5,a1
9d007744:	30630088 	andi	v1,v1,0x88
9d007748:	10600008 	beqz	v1,9d00776c <.LCFI0+0x6c>
9d00774c:	0080a021 	move	s4,a0
9d007750:	26940001 	addiu	s4,s4,1
9d007754:	82820000 	lb	v0,0(s4)
9d007758:	03c21821 	addu	v1,s8,v0
9d00775c:	80630000 	lb	v1,0(v1)
9d007760:	30630088 	andi	v1,v1,0x88
9d007764:	5460fffb 	bnezl	v1,9d007754 <.LCFI0+0x54>
9d007768:	26940001 	addiu	s4,s4,1
9d00776c:	2403002d 	li	v1,45
9d007770:	10430098 	beq	v0,v1,9d0079d4 <.LCFI0+0x2d4>
9d007774:	3842002b 	xori	v0,v0,0x2b
9d007778:	2c420001 	sltiu	v0,v0,1
9d00777c:	00009821 	move	s3,zero
9d007780:	0282a021 	addu	s4,s4,v0
9d007784:	82860000 	lb	a2,0(s4)
9d007788:	03c61021 	addu	v0,s8,a2
9d00778c:	90420000 	lbu	v0,0(v0)
9d007790:	30420004 	andi	v0,v0,0x4
9d007794:	00008821 	move	s1,zero
9d007798:	104000bc 	beqz	v0,9d007a8c <.LCFI0+0x38c>
9d00779c:	00008021 	move	s0,zero
9d0077a0:	00009021 	move	s2,zero
9d0077a4:	24d6ffd0 	addiu	s6,a2,-48
9d0077a8:	02002821 	move	a1,s0
9d0077ac:	02202021 	move	a0,s1
9d0077b0:	00003021 	move	a2,zero
9d0077b4:	0f40206b 	jal	9d0081ac <.LFE23>
9d0077b8:	3c074024 	lui	a3,0x4024
9d0077bc:	00408021 	move	s0,v0
9d0077c0:	00608821 	move	s1,v1
9d0077c4:	0f402f92 	jal	9d00be48 <__floatsidf>
9d0077c8:	02c02021 	move	a0,s6
9d0077cc:	02002021 	move	a0,s0
9d0077d0:	02202821 	move	a1,s1
9d0077d4:	00403021 	move	a2,v0
9d0077d8:	00603821 	move	a3,v1
9d0077dc:	0f401cb5 	jal	9d0072d4 <__adddf3>
9d0077e0:	26940001 	addiu	s4,s4,1
9d0077e4:	00408821 	move	s1,v0
9d0077e8:	00608021 	move	s0,v1
9d0077ec:	82860000 	lb	a2,0(s4)
9d0077f0:	03c61021 	addu	v0,s8,a2
9d0077f4:	90420000 	lbu	v0,0(v0)
9d0077f8:	30420004 	andi	v0,v0,0x4
9d0077fc:	1440ffe9 	bnez	v0,9d0077a4 <.LCFI0+0xa4>
9d007800:	02569025 	or	s2,s2,s6
9d007804:	24030001 	li	v1,1
9d007808:	2402002e 	li	v0,46
9d00780c:	50c20048 	beql	a2,v0,9d007930 <.LCFI0+0x230>
9d007810:	82820001 	lb	v0,1(s4)
9d007814:	54600072 	bnezl	v1,9d0079e0 <.LCFI0+0x2e0>
9d007818:	82820000 	lb	v0,0(s4)
9d00781c:	12a0002a 	beqz	s5,9d0078c8 <.LCFI0+0x1c8>
9d007820:	00000000 	nop
9d007824:	02e0a021 	move	s4,s7
9d007828:	0000b821 	move	s7,zero
9d00782c:	aeb40000 	sw	s4,0(s5)
9d007830:	12e00025 	beqz	s7,9d0078c8 <.LCFI0+0x1c8>
9d007834:	00004021 	move	t0,zero
9d007838:	001717c3 	sra	v0,s7,0x1f
9d00783c:	0057b026 	xor	s6,v0,s7
9d007840:	02c2b023 	subu	s6,s6,v0
9d007844:	3c159d01 	lui	s5,0x9d01
9d007848:	26b5c4b0 	addiu	s5,s5,-15184
9d00784c:	3c093ff0 	lui	t1,0x3ff0
9d007850:	0b401e18 	j	9d007860 <.LCFI0+0x160>
9d007854:	24140009 	li	s4,9
9d007858:	1280000e 	beqz	s4,9d007894 <.LCFI0+0x194>
9d00785c:	26b5fff8 	addiu	s5,s5,-8
9d007860:	2694ffff 	addiu	s4,s4,-1
9d007864:	02961007 	srav	v0,s6,s4
9d007868:	30420001 	andi	v0,v0,0x1
9d00786c:	1040fffa 	beqz	v0,9d007858 <.LCFI0+0x158>
9d007870:	01002021 	move	a0,t0
9d007874:	8ea60000 	lw	a2,0(s5)
9d007878:	8ea70004 	lw	a3,4(s5)
9d00787c:	0f40206b 	jal	9d0081ac <.LFE23>
9d007880:	01202821 	move	a1,t1
9d007884:	00404021 	move	t0,v0
9d007888:	00604821 	move	t1,v1
9d00788c:	1680fff4 	bnez	s4,9d007860 <.LCFI0+0x160>
9d007890:	26b5fff8 	addiu	s5,s5,-8
9d007894:	02202021 	move	a0,s1
9d007898:	02002821 	move	a1,s0
9d00789c:	01003021 	move	a2,t0
9d0078a0:	06e00075 	bltz	s7,9d007a78 <.LCFI0+0x378>
9d0078a4:	01203821 	move	a3,t1
9d0078a8:	0f40206b 	jal	9d0081ac <.LFE23>
9d0078ac:	00000000 	nop
9d0078b0:	00402021 	move	a0,v0
9d0078b4:	00602821 	move	a1,v1
9d0078b8:	0f40279e 	jal	9d009e78 <__ldexp>
9d0078bc:	02e03021 	move	a2,s7
9d0078c0:	00408821 	move	s1,v0
9d0078c4:	00608021 	move	s0,v1
9d0078c8:	1220007b 	beqz	s1,9d007ab8 <.LCFI0+0x3b8>
9d0078cc:	7e02f000 	ext	v0,s0,0x0,0x1f
9d0078d0:	02301025 	or	v0,s1,s0
9d0078d4:	10400073 	beqz	v0,9d007aa4 <.LCFI0+0x3a4>
9d0078d8:	00000000 	nop
9d0078dc:	12600007 	beqz	s3,9d0078fc <.LCFI0+0x1fc>
9d0078e0:	02201021 	move	v0,s1
9d0078e4:	02202021 	move	a0,s1
9d0078e8:	0f40320a 	jal	9d00c828 <__negdf2>
9d0078ec:	02002821 	move	a1,s0
9d0078f0:	00408821 	move	s1,v0
9d0078f4:	00608021 	move	s0,v1
9d0078f8:	02201021 	move	v0,s1
9d0078fc:	02001821 	move	v1,s0
9d007900:	8fbf0034 	lw	ra,52(sp)
9d007904:	8fbe0030 	lw	s8,48(sp)
9d007908:	8fb7002c 	lw	s7,44(sp)
9d00790c:	8fb60028 	lw	s6,40(sp)
9d007910:	8fb50024 	lw	s5,36(sp)
9d007914:	8fb40020 	lw	s4,32(sp)
9d007918:	8fb3001c 	lw	s3,28(sp)
9d00791c:	8fb20018 	lw	s2,24(sp)
9d007920:	8fb10014 	lw	s1,20(sp)
9d007924:	8fb00010 	lw	s0,16(sp)
9d007928:	03e00008 	jr	ra
9d00792c:	27bd0038 	addiu	sp,sp,56
9d007930:	03c22021 	addu	a0,s8,v0
9d007934:	90840000 	lbu	a0,0(a0)
9d007938:	30840004 	andi	a0,a0,0x4
9d00793c:	1080ffb5 	beqz	a0,9d007814 <.LCFI0+0x114>
9d007940:	26940001 	addiu	s4,s4,1
9d007944:	0000b821 	move	s7,zero
9d007948:	2456ffd0 	addiu	s6,v0,-48
9d00794c:	02002821 	move	a1,s0
9d007950:	02202021 	move	a0,s1
9d007954:	00003021 	move	a2,zero
9d007958:	0f40206b 	jal	9d0081ac <.LFE23>
9d00795c:	3c074024 	lui	a3,0x4024
9d007960:	00408021 	move	s0,v0
9d007964:	00608821 	move	s1,v1
9d007968:	0f402f92 	jal	9d00be48 <__floatsidf>
9d00796c:	02c02021 	move	a0,s6
9d007970:	02002021 	move	a0,s0
9d007974:	02202821 	move	a1,s1
9d007978:	00403021 	move	a2,v0
9d00797c:	00603821 	move	a3,v1
9d007980:	0f401cb5 	jal	9d0072d4 <__adddf3>
9d007984:	26940001 	addiu	s4,s4,1
9d007988:	00408821 	move	s1,v0
9d00798c:	00608021 	move	s0,v1
9d007990:	82820000 	lb	v0,0(s4)
9d007994:	02569025 	or	s2,s2,s6
9d007998:	03c21821 	addu	v1,s8,v0
9d00799c:	90630000 	lbu	v1,0(v1)
9d0079a0:	30630004 	andi	v1,v1,0x4
9d0079a4:	1460ffe8 	bnez	v1,9d007948 <.LCFI0+0x248>
9d0079a8:	26f7ffff 	addiu	s7,s7,-1
9d0079ac:	2404ffdf 	li	a0,-33
9d0079b0:	00441824 	and	v1,v0,a0
9d0079b4:	7c031c20 	seb	v1,v1
9d0079b8:	24020045 	li	v0,69
9d0079bc:	5062000f 	beql	v1,v0,9d0079fc <.LCFI0+0x2fc>
9d0079c0:	82830001 	lb	v1,1(s4)
9d0079c4:	56a0ff9a 	bnezl	s5,9d007830 <.LCFI0+0x130>
9d0079c8:	aeb40000 	sw	s4,0(s5)
9d0079cc:	0b401e0c 	j	9d007830 <.LCFI0+0x130>
9d0079d0:	00000000 	nop
9d0079d4:	26940001 	addiu	s4,s4,1
9d0079d8:	0b401de1 	j	9d007784 <.LCFI0+0x84>
9d0079dc:	24130001 	li	s3,1
9d0079e0:	2404ffdf 	li	a0,-33
9d0079e4:	00441824 	and	v1,v0,a0
9d0079e8:	7c031c20 	seb	v1,v1
9d0079ec:	24020045 	li	v0,69
9d0079f0:	1462fff4 	bne	v1,v0,9d0079c4 <.LCFI0+0x2c4>
9d0079f4:	0000b821 	move	s7,zero
9d0079f8:	82830001 	lb	v1,1(s4)
9d0079fc:	2402002d 	li	v0,45
9d007a00:	10620019 	beq	v1,v0,9d007a68 <.LCFI0+0x368>
9d007a04:	2402002b 	li	v0,43
9d007a08:	50620023 	beql	v1,v0,9d007a98 <.LCFI0+0x398>
9d007a0c:	82830002 	lb	v1,2(s4)
9d007a10:	26940001 	addiu	s4,s4,1
9d007a14:	00003821 	move	a3,zero
9d007a18:	03c31021 	addu	v0,s8,v1
9d007a1c:	90420000 	lbu	v0,0(v0)
9d007a20:	30420004 	andi	v0,v0,0x4
9d007a24:	1040000c 	beqz	v0,9d007a58 <.LCFI0+0x358>
9d007a28:	00001021 	move	v0,zero
9d007a2c:	26940001 	addiu	s4,s4,1
9d007a30:	2465ffd0 	addiu	a1,v1,-48
9d007a34:	82830000 	lb	v1,0(s4)
9d007a38:	00023040 	sll	a2,v0,0x1
9d007a3c:	000210c0 	sll	v0,v0,0x3
9d007a40:	03c32021 	addu	a0,s8,v1
9d007a44:	90840000 	lbu	a0,0(a0)
9d007a48:	00c21021 	addu	v0,a2,v0
9d007a4c:	30840004 	andi	a0,a0,0x4
9d007a50:	1480fff6 	bnez	a0,9d007a2c <.LCFI0+0x32c>
9d007a54:	00451021 	addu	v0,v0,a1
9d007a58:	00021823 	negu	v1,v0
9d007a5c:	0067100b 	movn	v0,v1,a3
9d007a60:	0b401e71 	j	9d0079c4 <.LCFI0+0x2c4>
9d007a64:	02e2b821 	addu	s7,s7,v0
9d007a68:	82830002 	lb	v1,2(s4)
9d007a6c:	24070001 	li	a3,1
9d007a70:	0b401e86 	j	9d007a18 <.LCFI0+0x318>
9d007a74:	26940002 	addiu	s4,s4,2
9d007a78:	0f401714 	jal	9d005c50 <__divdf3>
9d007a7c:	00000000 	nop
9d007a80:	00402021 	move	a0,v0
9d007a84:	0b401e2e 	j	9d0078b8 <.LCFI0+0x1b8>
9d007a88:	00602821 	move	a1,v1
9d007a8c:	00001821 	move	v1,zero
9d007a90:	0b401e02 	j	9d007808 <.LCFI0+0x108>
9d007a94:	00009021 	move	s2,zero
9d007a98:	00003821 	move	a3,zero
9d007a9c:	0b401e86 	j	9d007a18 <.LCFI0+0x318>
9d007aa0:	26940002 	addiu	s4,s4,2
9d007aa4:	1240ff8d 	beqz	s2,9d0078dc <.LCFI0+0x1dc>
9d007aa8:	24030022 	li	v1,34
9d007aac:	3c02a000 	lui	v0,0xa000
9d007ab0:	0b401e37 	j	9d0078dc <.LCFI0+0x1dc>
9d007ab4:	ac430054 	sw	v1,84(v0)
9d007ab8:	3c037ff0 	lui	v1,0x7ff0
9d007abc:	1443ff85 	bne	v0,v1,9d0078d4 <.LCFI0+0x1d4>
9d007ac0:	02301025 	or	v0,s1,s0
9d007ac4:	0b401eab 	j	9d007aac <.LCFI0+0x3ac>
9d007ac8:	24030022 	li	v1,34

Disassembly of section .text.strtoll:

9d007acc <strtoll>:
9d007acc:	27bdffd0 	addiu	sp,sp,-48
9d007ad0:	afbf002c 	sw	ra,44(sp)
9d007ad4:	afb60028 	sw	s6,40(sp)
9d007ad8:	afb50024 	sw	s5,36(sp)
9d007adc:	afb40020 	sw	s4,32(sp)
9d007ae0:	afb3001c 	sw	s3,28(sp)
9d007ae4:	afb20018 	sw	s2,24(sp)
9d007ae8:	afb10014 	sw	s1,20(sp)
9d007aec:	afb00010 	sw	s0,16(sp)
9d007af0:	00809821 	move	s3,a0
9d007af4:	80820000 	lb	v0,0(a0)
9d007af8:	00a0a021 	move	s4,a1
9d007afc:	104000c0 	beqz	v0,9d007e00 <strtoll+0x334>
9d007b00:	00c09021 	move	s2,a2
9d007b04:	3c049d01 	lui	a0,0x9d01
9d007b08:	2484abcd 	addiu	a0,a0,-21555
9d007b0c:	00821821 	addu	v1,a0,v0
9d007b10:	80630000 	lb	v1,0(v1)
9d007b14:	30630088 	andi	v1,v1,0x88
9d007b18:	14600007 	bnez	v1,9d007b38 <strtoll+0x6c>
9d007b1c:	02608821 	move	s1,s3
9d007b20:	0b401f4e 	j	9d007d38 <strtoll+0x26c>
9d007b24:	2403002b 	li	v1,43
9d007b28:	80630000 	lb	v1,0(v1)
9d007b2c:	30630088 	andi	v1,v1,0x88
9d007b30:	50600081 	beqzl	v1,9d007d38 <strtoll+0x26c>
9d007b34:	2403002b 	li	v1,43
9d007b38:	26310001 	addiu	s1,s1,1
9d007b3c:	82220000 	lb	v0,0(s1)
9d007b40:	1440fff9 	bnez	v0,9d007b28 <strtoll+0x5c>
9d007b44:	00821821 	addu	v1,a0,v0
9d007b48:	00008021 	move	s0,zero
9d007b4c:	0000b021 	move	s6,zero
9d007b50:	16400063 	bnez	s2,9d007ce0 <strtoll+0x214>
9d007b54:	24020010 	li	v0,16
9d007b58:	24020030 	li	v0,48
9d007b5c:	12020090 	beq	s0,v0,9d007da0 <strtoll+0x2d4>
9d007b60:	3c0fcccc 	lui	t7,0xcccc
9d007b64:	35efcccc 	ori	t7,t7,0xcccc
9d007b68:	3c0b0ccc 	lui	t3,0xccc
9d007b6c:	356bcccc 	ori	t3,t3,0xcccc
9d007b70:	240c000a 	li	t4,10
9d007b74:	0000a821 	move	s5,zero
9d007b78:	00002021 	move	a0,zero
9d007b7c:	2412000a 	li	s2,10
9d007b80:	2628ffff 	addiu	t0,s1,-1
9d007b84:	00002821 	move	a1,zero
9d007b88:	00001021 	move	v0,zero
9d007b8c:	00001821 	move	v1,zero
9d007b90:	3c079d01 	lui	a3,0x9d01
9d007b94:	24e7abcd 	addiu	a3,a3,-21555
9d007b98:	240e0061 	li	t6,97
9d007b9c:	240d0041 	li	t5,65
9d007ba0:	3c187fff 	lui	t8,0x7fff
9d007ba4:	3718ffff 	ori	t8,t8,0xffff
9d007ba8:	1200002c 	beqz	s0,9d007c5c <strtoll+0x190>
9d007bac:	25080001 	addiu	t0,t0,1
9d007bb0:	02074821 	addu	t1,s0,a3
9d007bb4:	91290000 	lbu	t1,0(t1)
9d007bb8:	312a0004 	andi	t2,t1,0x4
9d007bbc:	11400041 	beqz	t2,9d007cc4 <strtoll+0x1f8>
9d007bc0:	31260003 	andi	a2,t1,0x3
9d007bc4:	2610ffd0 	addiu	s0,s0,-48
9d007bc8:	06000024 	bltz	s0,9d007c5c <strtoll+0x190>
9d007bcc:	0212482a 	slt	t1,s0,s2
9d007bd0:	11200022 	beqz	t1,9d007c5c <strtoll+0x190>
9d007bd4:	0163482a 	slt	t1,t3,v1
9d007bd8:	55200037 	bnezl	t1,9d007cb8 <strtoll+0x1ec>
9d007bdc:	24050001 	li	a1,1
9d007be0:	146b0003 	bne	v1,t3,9d007bf0 <strtoll+0x124>
9d007be4:	01e2202b 	sltu	a0,t7,v0
9d007be8:	54800033 	bnezl	a0,9d007cb8 <strtoll+0x1ec>
9d007bec:	24050001 	li	a1,1
9d007bf0:	14a00030 	bnez	a1,9d007cb4 <strtoll+0x1e8>
9d007bf4:	02a20018 	mult	s5,v0
9d007bf8:	001027c3 	sra	a0,s0,0x1f
9d007bfc:	71830000 	madd	t4,v1
9d007c00:	00003012 	mflo	a2
9d007c04:	004c0019 	multu	v0,t4
9d007c08:	00001012 	mflo	v0
9d007c0c:	00001810 	mfhi	v1
9d007c10:	00c31821 	addu	v1,a2,v1
9d007c14:	03033023 	subu	a2,t8,v1
9d007c18:	00c4482a 	slt	t1,a2,a0
9d007c1c:	15200025 	bnez	t1,9d007cb4 <strtoll+0x1e8>
9d007c20:	00025027 	nor	t2,zero,v0
9d007c24:	54860005 	bnel	a0,a2,9d007c3c <strtoll+0x170>
9d007c28:	02028021 	addu	s0,s0,v0
9d007c2c:	0150502b 	sltu	t2,t2,s0
9d007c30:	55400021 	bnezl	t2,9d007cb8 <strtoll+0x1ec>
9d007c34:	24050001 	li	a1,1
9d007c38:	02028021 	addu	s0,s0,v0
9d007c3c:	0202302b 	sltu	a2,s0,v0
9d007c40:	00642021 	addu	a0,v1,a0
9d007c44:	02001021 	move	v0,s0
9d007c48:	00c41821 	addu	v1,a2,a0
9d007c4c:	81100001 	lb	s0,1(t0)
9d007c50:	24040001 	li	a0,1
9d007c54:	1600ffd6 	bnez	s0,9d007bb0 <strtoll+0xe4>
9d007c58:	25080001 	addiu	t0,t0,1
9d007c5c:	12c0002d 	beqz	s6,9d007d14 <strtoll+0x248>
9d007c60:	00000000 	nop
9d007c64:	54a0003b 	bnezl	a1,9d007d54 <strtoll+0x288>
9d007c68:	24030022 	li	v1,34
9d007c6c:	00023823 	negu	a3,v0
9d007c70:	0007282b 	sltu	a1,zero,a3
9d007c74:	00033023 	negu	a2,v1
9d007c78:	00e01021 	move	v0,a3
9d007c7c:	00c51823 	subu	v1,a2,a1
9d007c80:	12800002 	beqz	s4,9d007c8c <strtoll+0x1c0>
9d007c84:	0264400a 	movz	t0,s3,a0
9d007c88:	ae880000 	sw	t0,0(s4)
9d007c8c:	8fbf002c 	lw	ra,44(sp)
9d007c90:	8fb60028 	lw	s6,40(sp)
9d007c94:	8fb50024 	lw	s5,36(sp)
9d007c98:	8fb40020 	lw	s4,32(sp)
9d007c9c:	8fb3001c 	lw	s3,28(sp)
9d007ca0:	8fb20018 	lw	s2,24(sp)
9d007ca4:	8fb10014 	lw	s1,20(sp)
9d007ca8:	8fb00010 	lw	s0,16(sp)
9d007cac:	03e00008 	jr	ra
9d007cb0:	27bd0030 	addiu	sp,sp,48
9d007cb4:	24050001 	li	a1,1
9d007cb8:	81100001 	lb	s0,1(t0)
9d007cbc:	0b401f15 	j	9d007c54 <strtoll+0x188>
9d007cc0:	24040001 	li	a0,1
9d007cc4:	10c0ffe5 	beqz	a2,9d007c5c <strtoll+0x190>
9d007cc8:	31290001 	andi	t1,t1,0x1
9d007ccc:	01a03021 	move	a2,t5
9d007cd0:	01c9300a 	movz	a2,t6,t1
9d007cd4:	02068023 	subu	s0,s0,a2
9d007cd8:	0b401ef2 	j	9d007bc8 <strtoll+0xfc>
9d007cdc:	2610000a 	addiu	s0,s0,10
9d007ce0:	12420026 	beq	s2,v0,9d007d7c <strtoll+0x2b0>
9d007ce4:	0012afc3 	sra	s5,s2,0x1f
9d007ce8:	2404ffff 	li	a0,-1
9d007cec:	3c057fff 	lui	a1,0x7fff
9d007cf0:	34a5ffff 	ori	a1,a1,0xffff
9d007cf4:	02403021 	move	a2,s2
9d007cf8:	0f401842 	jal	9d006108 <__divdi3>
9d007cfc:	02a03821 	move	a3,s5
9d007d00:	02406021 	move	t4,s2
9d007d04:	00407821 	move	t7,v0
9d007d08:	00605821 	move	t3,v1
9d007d0c:	0b401ee0 	j	9d007b80 <strtoll+0xb4>
9d007d10:	00002021 	move	a0,zero
9d007d14:	10a0ffda 	beqz	a1,9d007c80 <strtoll+0x1b4>
9d007d18:	00000000 	nop
9d007d1c:	24030022 	li	v1,34
9d007d20:	3c02a000 	lui	v0,0xa000
9d007d24:	ac430054 	sw	v1,84(v0)
9d007d28:	2402ffff 	li	v0,-1
9d007d2c:	3c037fff 	lui	v1,0x7fff
9d007d30:	0b401f20 	j	9d007c80 <strtoll+0x1b4>
9d007d34:	3463ffff 	ori	v1,v1,0xffff
9d007d38:	5443000b 	bnel	v0,v1,9d007d68 <strtoll+0x29c>
9d007d3c:	2403002d 	li	v1,45
9d007d40:	3842002d 	xori	v0,v0,0x2d
9d007d44:	82300001 	lb	s0,1(s1)
9d007d48:	2c560001 	sltiu	s6,v0,1
9d007d4c:	0b401ed4 	j	9d007b50 <strtoll+0x84>
9d007d50:	26310001 	addiu	s1,s1,1
9d007d54:	3c02a000 	lui	v0,0xa000
9d007d58:	ac430054 	sw	v1,84(v0)
9d007d5c:	00001021 	move	v0,zero
9d007d60:	0b401f20 	j	9d007c80 <strtoll+0x1b4>
9d007d64:	3c038000 	lui	v1,0x8000
9d007d68:	5043fff6 	beql	v0,v1,9d007d44 <strtoll+0x278>
9d007d6c:	3842002d 	xori	v0,v0,0x2d
9d007d70:	82300000 	lb	s0,0(s1)
9d007d74:	0b401ed4 	j	9d007b50 <strtoll+0x84>
9d007d78:	0000b021 	move	s6,zero
9d007d7c:	24020030 	li	v0,48
9d007d80:	12020023 	beq	s0,v0,9d007e10 <strtoll+0x344>
9d007d84:	240fffff 	li	t7,-1
9d007d88:	3c0b07ff 	lui	t3,0x7ff
9d007d8c:	356bffff 	ori	t3,t3,0xffff
9d007d90:	240c0010 	li	t4,16
9d007d94:	0000a821 	move	s5,zero
9d007d98:	0b401ee0 	j	9d007b80 <strtoll+0xb4>
9d007d9c:	00002021 	move	a0,zero
9d007da0:	82300001 	lb	s0,1(s1)
9d007da4:	2402ffdf 	li	v0,-33
9d007da8:	02021824 	and	v1,s0,v0
9d007dac:	24020058 	li	v0,88
9d007db0:	5062000a 	beql	v1,v0,9d007ddc <strtoll+0x310>
9d007db4:	82300002 	lb	s0,2(s1)
9d007db8:	26310001 	addiu	s1,s1,1
9d007dbc:	240fffff 	li	t7,-1
9d007dc0:	3c0b0fff 	lui	t3,0xfff
9d007dc4:	356bffff 	ori	t3,t3,0xffff
9d007dc8:	240c0008 	li	t4,8
9d007dcc:	0000a821 	move	s5,zero
9d007dd0:	24040001 	li	a0,1
9d007dd4:	0b401ee0 	j	9d007b80 <strtoll+0xb4>
9d007dd8:	24120008 	li	s2,8
9d007ddc:	240fffff 	li	t7,-1
9d007de0:	26310002 	addiu	s1,s1,2
9d007de4:	3c0b07ff 	lui	t3,0x7ff
9d007de8:	356bffff 	ori	t3,t3,0xffff
9d007dec:	240c0010 	li	t4,16
9d007df0:	0000a821 	move	s5,zero
9d007df4:	24040001 	li	a0,1
9d007df8:	0b401ee0 	j	9d007b80 <strtoll+0xb4>
9d007dfc:	24120010 	li	s2,16
9d007e00:	00008021 	move	s0,zero
9d007e04:	00808821 	move	s1,a0
9d007e08:	0b401ed4 	j	9d007b50 <strtoll+0x84>
9d007e0c:	0000b021 	move	s6,zero
9d007e10:	82300001 	lb	s0,1(s1)
9d007e14:	2406ffdf 	li	a2,-33
9d007e18:	02061824 	and	v1,s0,a2
9d007e1c:	24020058 	li	v0,88
9d007e20:	50620009 	beql	v1,v0,9d007e48 <strtoll+0x37c>
9d007e24:	82300002 	lb	s0,2(s1)
9d007e28:	26310001 	addiu	s1,s1,1
9d007e2c:	240fffff 	li	t7,-1
9d007e30:	3c0b07ff 	lui	t3,0x7ff
9d007e34:	356bffff 	ori	t3,t3,0xffff
9d007e38:	240c0010 	li	t4,16
9d007e3c:	0000a821 	move	s5,zero
9d007e40:	0b401ee0 	j	9d007b80 <strtoll+0xb4>
9d007e44:	24040001 	li	a0,1
9d007e48:	240fffff 	li	t7,-1
9d007e4c:	0b401f8c 	j	9d007e30 <strtoll+0x364>
9d007e50:	26310002 	addiu	s1,s1,2

Disassembly of section .text.__strtof:

9d007e54 <__strtof>:
9d007e54:	27bdffc8 	addiu	sp,sp,-56

9d007e58 <.LCFI0>:
9d007e58:	afbf0034 	sw	ra,52(sp)
9d007e5c:	afb70030 	sw	s7,48(sp)
9d007e60:	afb6002c 	sw	s6,44(sp)
9d007e64:	afb50028 	sw	s5,40(sp)
9d007e68:	afb40024 	sw	s4,36(sp)
9d007e6c:	afb30020 	sw	s3,32(sp)
9d007e70:	afb2001c 	sw	s2,28(sp)
9d007e74:	afb10018 	sw	s1,24(sp)
9d007e78:	afb00014 	sw	s0,20(sp)
9d007e7c:	0080a821 	move	s5,a0
9d007e80:	80820000 	lb	v0,0(a0)
9d007e84:	3c139d01 	lui	s3,0x9d01
9d007e88:	2673abcd 	addiu	s3,s3,-21555
9d007e8c:	02621821 	addu	v1,s3,v0
9d007e90:	80630000 	lb	v1,0(v1)
9d007e94:	00a0b021 	move	s6,a1
9d007e98:	30630088 	andi	v1,v1,0x88
9d007e9c:	10600008 	beqz	v1,9d007ec0 <.LCFI0+0x68>
9d007ea0:	00808021 	move	s0,a0
9d007ea4:	26100001 	addiu	s0,s0,1
9d007ea8:	82020000 	lb	v0,0(s0)
9d007eac:	02621821 	addu	v1,s3,v0
9d007eb0:	80630000 	lb	v1,0(v1)
9d007eb4:	30630088 	andi	v1,v1,0x88
9d007eb8:	5460fffb 	bnezl	v1,9d007ea8 <.LCFI0+0x50>
9d007ebc:	26100001 	addiu	s0,s0,1
9d007ec0:	2403002d 	li	v1,45
9d007ec4:	10430081 	beq	v0,v1,9d0080cc <.LCFI0+0x274>
9d007ec8:	3842002b 	xori	v0,v0,0x2b
9d007ecc:	2c420001 	sltiu	v0,v0,1
9d007ed0:	0000b821 	move	s7,zero
9d007ed4:	02028021 	addu	s0,s0,v0
9d007ed8:	82030000 	lb	v1,0(s0)
9d007edc:	02631021 	addu	v0,s3,v1
9d007ee0:	90420000 	lbu	v0,0(v0)
9d007ee4:	30420004 	andi	v0,v0,0x4
9d007ee8:	104000a5 	beqz	v0,9d008180 <.LCFI0+0x328>
9d007eec:	00008821 	move	s1,zero
9d007ef0:	0000a021 	move	s4,zero
9d007ef4:	2472ffd0 	addiu	s2,v1,-48
9d007ef8:	02202021 	move	a0,s1
9d007efc:	0f40272f 	jal	9d009cbc <.LFE9>
9d007f00:	3c054120 	lui	a1,0x4120
9d007f04:	00408821 	move	s1,v0
9d007f08:	0f403080 	jal	9d00c200 <__floatsisf>
9d007f0c:	02402021 	move	a0,s2
9d007f10:	02202021 	move	a0,s1
9d007f14:	00402821 	move	a1,v0
9d007f18:	0f402525 	jal	9d009494 <__addsf3>
9d007f1c:	26100001 	addiu	s0,s0,1
9d007f20:	00408821 	move	s1,v0
9d007f24:	82030000 	lb	v1,0(s0)
9d007f28:	02631021 	addu	v0,s3,v1
9d007f2c:	90420000 	lbu	v0,0(v0)
9d007f30:	30420004 	andi	v0,v0,0x4
9d007f34:	1440ffef 	bnez	v0,9d007ef4 <.LCFI0+0x9c>
9d007f38:	0292a025 	or	s4,s4,s2
9d007f3c:	24040001 	li	a0,1
9d007f40:	2402002e 	li	v0,46
9d007f44:	5062003e 	beql	v1,v0,9d008040 <.LCFI0+0x1e8>
9d007f48:	82020001 	lb	v0,1(s0)
9d007f4c:	54800062 	bnezl	a0,9d0080d8 <.LCFI0+0x280>
9d007f50:	82020000 	lb	v0,0(s0)
9d007f54:	12c00024 	beqz	s6,9d007fe8 <.LCFI0+0x190>
9d007f58:	00111840 	sll	v1,s1,0x1
9d007f5c:	02a08021 	move	s0,s5
9d007f60:	00009021 	move	s2,zero
9d007f64:	aed00000 	sw	s0,0(s6)
9d007f68:	1240001f 	beqz	s2,9d007fe8 <.LCFI0+0x190>
9d007f6c:	00111840 	sll	v1,s1,0x1
9d007f70:	001217c3 	sra	v0,s2,0x1f
9d007f74:	0052a826 	xor	s5,v0,s2
9d007f78:	02a2a823 	subu	s5,s5,v0
9d007f7c:	3c139d01 	lui	s3,0x9d01
9d007f80:	2673c870 	addiu	s3,s3,-14224
9d007f84:	24100006 	li	s0,6
9d007f88:	0b401fe6 	j	9d007f98 <.LCFI0+0x140>
9d007f8c:	3c023f80 	lui	v0,0x3f80
9d007f90:	1200000b 	beqz	s0,9d007fc0 <.LCFI0+0x168>
9d007f94:	2673fffc 	addiu	s3,s3,-4
9d007f98:	2610ffff 	addiu	s0,s0,-1
9d007f9c:	02151807 	srav	v1,s5,s0
9d007fa0:	30630001 	andi	v1,v1,0x1
9d007fa4:	1060fffa 	beqz	v1,9d007f90 <.LCFI0+0x138>
9d007fa8:	00000000 	nop
9d007fac:	8e650000 	lw	a1,0(s3)
9d007fb0:	0f40272f 	jal	9d009cbc <.LFE9>
9d007fb4:	00402021 	move	a0,v0
9d007fb8:	1600fff7 	bnez	s0,9d007f98 <.LCFI0+0x140>
9d007fbc:	2673fffc 	addiu	s3,s3,-4
9d007fc0:	02202021 	move	a0,s1
9d007fc4:	0640006a 	bltz	s2,9d008170 <.LCFI0+0x318>
9d007fc8:	00402821 	move	a1,v0
9d007fcc:	0f40272f 	jal	9d009cbc <.LFE9>
9d007fd0:	00000000 	nop
9d007fd4:	00402021 	move	a0,v0
9d007fd8:	0f402b75 	jal	9d00add4 <__ldexpf>
9d007fdc:	02402821 	move	a1,s2
9d007fe0:	00408821 	move	s1,v0
9d007fe4:	00111840 	sll	v1,s1,0x1
9d007fe8:	3c02ff00 	lui	v0,0xff00
9d007fec:	5062006c 	beql	v1,v0,9d0081a0 <.LCFI0+0x348>
9d007ff0:	24030022 	li	v1,34
9d007ff4:	12200068 	beqz	s1,9d008198 <.LCFI0+0x340>
9d007ff8:	00000000 	nop
9d007ffc:	12e00005 	beqz	s7,9d008014 <.LCFI0+0x1bc>
9d008000:	02201021 	move	v0,s1
9d008004:	0f403231 	jal	9d00c8c4 <__negsf2>
9d008008:	02202021 	move	a0,s1
9d00800c:	00408821 	move	s1,v0
9d008010:	02201021 	move	v0,s1
9d008014:	8fbf0034 	lw	ra,52(sp)
9d008018:	8fb70030 	lw	s7,48(sp)
9d00801c:	8fb6002c 	lw	s6,44(sp)
9d008020:	8fb50028 	lw	s5,40(sp)
9d008024:	8fb40024 	lw	s4,36(sp)
9d008028:	8fb30020 	lw	s3,32(sp)
9d00802c:	8fb2001c 	lw	s2,28(sp)
9d008030:	8fb10018 	lw	s1,24(sp)
9d008034:	8fb00014 	lw	s0,20(sp)
9d008038:	03e00008 	jr	ra
9d00803c:	27bd0038 	addiu	sp,sp,56
9d008040:	02621821 	addu	v1,s3,v0
9d008044:	90630000 	lbu	v1,0(v1)
9d008048:	30630004 	andi	v1,v1,0x4
9d00804c:	1060ffbf 	beqz	v1,9d007f4c <.LCFI0+0xf4>
9d008050:	26100001 	addiu	s0,s0,1
9d008054:	00009021 	move	s2,zero
9d008058:	2455ffd0 	addiu	s5,v0,-48
9d00805c:	02202021 	move	a0,s1
9d008060:	0f40272f 	jal	9d009cbc <.LFE9>
9d008064:	3c054120 	lui	a1,0x4120
9d008068:	00408821 	move	s1,v0
9d00806c:	0f403080 	jal	9d00c200 <__floatsisf>
9d008070:	02a02021 	move	a0,s5
9d008074:	02202021 	move	a0,s1
9d008078:	00402821 	move	a1,v0
9d00807c:	0f402525 	jal	9d009494 <__addsf3>
9d008080:	26100001 	addiu	s0,s0,1
9d008084:	00408821 	move	s1,v0
9d008088:	82020000 	lb	v0,0(s0)
9d00808c:	0295a025 	or	s4,s4,s5
9d008090:	02621821 	addu	v1,s3,v0
9d008094:	90630000 	lbu	v1,0(v1)
9d008098:	30630004 	andi	v1,v1,0x4
9d00809c:	1460ffee 	bnez	v1,9d008058 <.LCFI0+0x200>
9d0080a0:	2652ffff 	addiu	s2,s2,-1
9d0080a4:	2404ffdf 	li	a0,-33
9d0080a8:	00441824 	and	v1,v0,a0
9d0080ac:	7c031c20 	seb	v1,v1
9d0080b0:	24020045 	li	v0,69
9d0080b4:	5062000f 	beql	v1,v0,9d0080f4 <.LCFI0+0x29c>
9d0080b8:	82030001 	lb	v1,1(s0)
9d0080bc:	56c0ffaa 	bnezl	s6,9d007f68 <.LCFI0+0x110>
9d0080c0:	aed00000 	sw	s0,0(s6)
9d0080c4:	0b401fda 	j	9d007f68 <.LCFI0+0x110>
9d0080c8:	00000000 	nop
9d0080cc:	26100001 	addiu	s0,s0,1
9d0080d0:	0b401fb6 	j	9d007ed8 <.LCFI0+0x80>
9d0080d4:	24170001 	li	s7,1
9d0080d8:	2404ffdf 	li	a0,-33
9d0080dc:	00441824 	and	v1,v0,a0
9d0080e0:	7c031c20 	seb	v1,v1
9d0080e4:	24020045 	li	v0,69
9d0080e8:	1462fff4 	bne	v1,v0,9d0080bc <.LCFI0+0x264>
9d0080ec:	00009021 	move	s2,zero
9d0080f0:	82030001 	lb	v1,1(s0)
9d0080f4:	2402002d 	li	v0,45
9d0080f8:	10620019 	beq	v1,v0,9d008160 <.LCFI0+0x308>
9d0080fc:	2402002b 	li	v0,43
9d008100:	50620022 	beql	v1,v0,9d00818c <.LCFI0+0x334>
9d008104:	82030002 	lb	v1,2(s0)
9d008108:	26100001 	addiu	s0,s0,1
9d00810c:	00003821 	move	a3,zero
9d008110:	02631021 	addu	v0,s3,v1
9d008114:	90420000 	lbu	v0,0(v0)
9d008118:	30420004 	andi	v0,v0,0x4
9d00811c:	1040000c 	beqz	v0,9d008150 <.LCFI0+0x2f8>
9d008120:	00001021 	move	v0,zero
9d008124:	26100001 	addiu	s0,s0,1
9d008128:	2465ffd0 	addiu	a1,v1,-48
9d00812c:	82030000 	lb	v1,0(s0)
9d008130:	00023040 	sll	a2,v0,0x1
9d008134:	000210c0 	sll	v0,v0,0x3
9d008138:	02632021 	addu	a0,s3,v1
9d00813c:	90840000 	lbu	a0,0(a0)
9d008140:	00c21021 	addu	v0,a2,v0
9d008144:	30840004 	andi	a0,a0,0x4
9d008148:	1480fff6 	bnez	a0,9d008124 <.LCFI0+0x2cc>
9d00814c:	00451021 	addu	v0,v0,a1
9d008150:	00021823 	negu	v1,v0
9d008154:	0067100b 	movn	v0,v1,a3
9d008158:	0b40202f 	j	9d0080bc <.LCFI0+0x264>
9d00815c:	02429021 	addu	s2,s2,v0
9d008160:	82030002 	lb	v1,2(s0)
9d008164:	24070001 	li	a3,1
9d008168:	0b402044 	j	9d008110 <.LCFI0+0x2b8>
9d00816c:	26100002 	addiu	s0,s0,2
9d008170:	0f4025c1 	jal	9d009704 <__divsf3>
9d008174:	00000000 	nop
9d008178:	0b401ff6 	j	9d007fd8 <.LCFI0+0x180>
9d00817c:	00402021 	move	a0,v0
9d008180:	00002021 	move	a0,zero
9d008184:	0b401fd0 	j	9d007f40 <.LCFI0+0xe8>
9d008188:	0000a021 	move	s4,zero
9d00818c:	00003821 	move	a3,zero
9d008190:	0b402044 	j	9d008110 <.LCFI0+0x2b8>
9d008194:	26100002 	addiu	s0,s0,2
9d008198:	1280ff98 	beqz	s4,9d007ffc <.LCFI0+0x1a4>
9d00819c:	24030022 	li	v1,34
9d0081a0:	3c02a000 	lui	v0,0xa000
9d0081a4:	0b401fff 	j	9d007ffc <.LCFI0+0x1a4>
9d0081a8:	ac430054 	sw	v1,84(v0)

Disassembly of section .text.dp32mul:

9d0081ac <__muldf3>:
9d0081ac:	00055040 000a5542 00054ac0 00047d42     @P..BU...J..B}..
9d0081bc:	012f4825 000442c0 3c0e8000 012e4825     %H/..B.....<%H..
9d0081cc:	00076840 000d6d42 000762c0 00067d42     @h..Bm...b..B}..
9d0081dc:	018f6025 00065ac0 018e6025 00a72826     %`...Z..%`..&(..
9d0081ec:	00ae2824 254fffff 2de107fe 10200047     $(....O%...-G. .
9d0081fc:	00000000                                ....

9d008200 <Clab1>:
9d008200:	25afffff 	addiu	t7,t5,-1
9d008204:	2de107fe 	sltiu	at,t7,2046
9d008208:	1020006f 	beqz	at,9d0083c8 <CspecB>
9d00820c:	00000000 	nop

9d008210 <Clab2>:
9d008210:	25affc02 	addiu	t7,t5,-1022
9d008214:	014f5021 	addu	t2,t2,t7
9d008218:	012c0019 	multu	t1,t4
9d00821c:	00003812 	mflo	a3
9d008220:	00007010 	mfhi	t6
9d008224:	010b0019 	multu	t0,t3
9d008228:	00002012 	mflo	a0
9d00822c:	00003010 	mfhi	a2
9d008230:	012b0019 	multu	t1,t3
9d008234:	00005812 	mflo	t3
9d008238:	00006810 	mfhi	t5
9d00823c:	00cb3021 	addu	a2,a2,t3
9d008240:	00cb782b 	sltu	t7,a2,t3
9d008244:	00ed3821 	addu	a3,a3,t5
9d008248:	00ef3821 	addu	a3,a3,t7
9d00824c:	10ed0002 	beq	a3,t5,9d008258 <L20>
9d008250:	00000000 	nop
9d008254:	00ed782b 	sltu	t7,a3,t5

9d008258 <L20>:
9d008258:	01cf7021 	addu	t6,t6,t7
9d00825c:	010c0019 	multu	t0,t4
9d008260:	00004012 	mflo	t0
9d008264:	00004810 	mfhi	t1
9d008268:	00c83021 	addu	a2,a2,t0
9d00826c:	00c8782b 	sltu	t7,a2,t0
9d008270:	00e93821 	addu	a3,a3,t1
9d008274:	00ef3821 	addu	a3,a3,t7
9d008278:	10e90002 	beq	a3,t1,9d008284 <L21>
9d00827c:	00000000 	nop
9d008280:	00e9782b 	sltu	t7,a3,t1

9d008284 <L21>:
9d008284:	01cf7021 	addu	t6,t6,t7
9d008288:	00867825 	or	t7,a0,a2
9d00828c:	11e00002 	beqz	t7,9d008298 <i13>
9d008290:	00000000 	nop
9d008294:	34e70001 	ori	a3,a3,0x1

9d008298 <i13>:
9d008298:	000e4825 	or	t1,zero,t6
9d00829c:	05200006 	bltz	t1,9d0082b8 <i14>
9d0082a0:	00074025 	or	t0,zero,a3
9d0082a4:	0100782a 	slt	t7,t0,zero
9d0082a8:	01084021 	addu	t0,t0,t0
9d0082ac:	01294821 	addu	t1,t1,t1
9d0082b0:	012f4821 	addu	t1,t1,t7
9d0082b4:	254affff 	addiu	t2,t2,-1

9d0082b8 <i14>:
9d0082b8:	254fffff 	addiu	t7,t2,-1
9d0082bc:	2de107fe 	sltiu	at,t7,2046
9d0082c0:	10200068 	beqz	at,9d008464 <Coveund>
9d0082c4:	00000000 	nop
9d0082c8:	25080400 	addiu	t0,t0,1024
9d0082cc:	2d0f0400 	sltiu	t7,t0,1024
9d0082d0:	012f4821 	addu	t1,t1,t7
9d0082d4:	012f782b 	sltu	t7,t1,t7
9d0082d8:	014f5021 	addu	t2,t2,t7

9d0082dc <Clab8>:
9d0082dc:	00087ac2 	srl	t7,t0,0xb
9d0082e0:	31ef0001 	andi	t7,t7,0x1
9d0082e4:	010f4023 	subu	t0,t0,t7
9d0082e8:	000822c2 	srl	a0,t0,0xb
9d0082ec:	00097d40 	sll	t7,t1,0x15
9d0082f0:	008f2025 	or	a0,a0,t7
9d0082f4:	00097840 	sll	t7,t1,0x1
9d0082f8:	000f7b02 	srl	t7,t7,0xc
9d0082fc:	00af2825 	or	a1,a1,t7
9d008300:	000a7d00 	sll	t7,t2,0x14
9d008304:	00af2825 	or	a1,a1,t7

9d008308 <Cret>:
9d008308:	00041025 	or	v0,zero,a0
9d00830c:	00051825 	or	v1,zero,a1

9d008310 <C999>:
9d008310:	03e00008 	jr	ra
9d008314:	00000000 	nop

9d008318 <CspecA>:
9d008318:	0100782a 	slt	t7,t0,zero
9d00831c:	01084021 	addu	t0,t0,t0
9d008320:	01294821 	addu	t1,t1,t1
9d008324:	1540001c 	bnez	t2,9d008398 <i15>
9d008328:	012f4821 	addu	t1,t1,t7
9d00832c:	01287825 	or	t7,t1,t0
9d008330:	11e00014 	beqz	t7,9d008384 <i16>
9d008334:	00000000 	nop
9d008338:	15200008 	bnez	t1,9d00835c <L22>
9d00833c:	00000000 	nop
9d008340:	15000003 	bnez	t0,9d008350 <L23>
9d008344:	00000000 	nop
9d008348:	1000ffad 	b	9d008200 <Clab1>
9d00834c:	240a0000 	li	t2,0

9d008350 <L23>:
9d008350:	01004825 	move	t1,t0
9d008354:	24080000 	li	t0,0
9d008358:	254affe0 	addiu	t2,t2,-32

9d00835c <L22>:
9d00835c:	712e7020 	clz	t6,t1
9d008360:	11c0ffa7 	beqz	t6,9d008200 <Clab1>
9d008364:	00000000 	nop
9d008368:	014e5023 	subu	t2,t2,t6
9d00836c:	000e3822 	neg	a3,t6
9d008370:	00e83806 	srlv	a3,t0,a3
9d008374:	01c84004 	sllv	t0,t0,t6
9d008378:	01c94804 	sllv	t1,t1,t6
9d00837c:	1000ffa0 	b	9d008200 <Clab1>
9d008380:	01274825 	or	t1,t1,a3

9d008384 <i16>:
9d008384:	240107ff 	li	at,2047
9d008388:	11a10033 	beq	t5,at,9d008458 <Cnan>
9d00838c:	00000000 	nop
9d008390:	1000ffdd 	b	9d008308 <Cret>
9d008394:	00000000 	nop

9d008398 <i15>:
9d008398:	01287825 	or	t7,t1,t0
9d00839c:	15e0002e 	bnez	t7,9d008458 <Cnan>
9d0083a0:	00000000 	nop
9d0083a4:	15a00005 	bnez	t5,9d0083bc <i17>
9d0083a8:	00000000 	nop
9d0083ac:	000c7840 	sll	t7,t4,0x1
9d0083b0:	01eb7825 	or	t7,t7,t3
9d0083b4:	11e00028 	beqz	t7,9d008458 <Cnan>
9d0083b8:	00000000 	nop

9d0083bc <i17>:
9d0083bc:	240107ff 	li	at,2047
9d0083c0:	15a10021 	bne	t5,at,9d008448 <Cinf>
9d0083c4:	00000000 	nop

9d0083c8 <CspecB>:
9d0083c8:	0160782a 	slt	t7,t3,zero
9d0083cc:	016b5821 	addu	t3,t3,t3
9d0083d0:	018c6021 	addu	t4,t4,t4
9d0083d4:	15a00019 	bnez	t5,9d00843c <i18>
9d0083d8:	018f6021 	addu	t4,t4,t7
9d0083dc:	018b7825 	or	t7,t4,t3
9d0083e0:	11e00014 	beqz	t7,9d008434 <i19>
9d0083e4:	00000000 	nop
9d0083e8:	15800008 	bnez	t4,9d00840c <L25>
9d0083ec:	00000000 	nop
9d0083f0:	15600003 	bnez	t3,9d008400 <L26>
9d0083f4:	00000000 	nop
9d0083f8:	1000ff85 	b	9d008210 <Clab2>
9d0083fc:	240d0000 	li	t5,0

9d008400 <L26>:
9d008400:	01606025 	move	t4,t3
9d008404:	240b0000 	li	t3,0
9d008408:	25adffe0 	addiu	t5,t5,-32

9d00840c <L25>:
9d00840c:	71863020 	clz	a2,t4
9d008410:	10c0ff7f 	beqz	a2,9d008210 <Clab2>
9d008414:	00000000 	nop
9d008418:	01a66823 	subu	t5,t5,a2
9d00841c:	00067022 	neg	t6,a2
9d008420:	01cb7006 	srlv	t6,t3,t6
9d008424:	00cb5804 	sllv	t3,t3,a2
9d008428:	00cc6004 	sllv	t4,t4,a2
9d00842c:	1000ff78 	b	9d008210 <Clab2>
9d008430:	018e6025 	or	t4,t4,t6

9d008434 <i19>:
9d008434:	1000ffb4 	b	9d008308 <Cret>
9d008438:	24040000 	li	a0,0

9d00843c <i18>:
9d00843c:	018b7825 	or	t7,t4,t3
9d008440:	15e00005 	bnez	t7,9d008458 <Cnan>
9d008444:	00000000 	nop

9d008448 <Cinf>:
9d008448:	3c017ff0 	lui	at,0x7ff0
9d00844c:	00a12825 	or	a1,a1,at
9d008450:	1000ffad 	b	9d008308 <Cret>
9d008454:	24040000 	li	a0,0

9d008458 <Cnan>:
9d008458:	3c05fff8 	lui	a1,0xfff8
9d00845c:	1000ffaa 	b	9d008308 <Cret>
9d008460:	24040000 	li	a0,0

9d008464 <Coveund>:
9d008464:	1d40fff8 	bgtz	t2,9d008448 <Cinf>
9d008468:	00000000 	nop
9d00846c:	240e0001 	li	t6,1
9d008470:	01ca7023 	subu	t6,t6,t2

9d008474 <L28>:
9d008474:	2dc10020 	sltiu	at,t6,32
9d008478:	14200007 	bnez	at,9d008498 <L29>
9d00847c:	00000000 	nop
9d008480:	21ceffe0 	addi	t6,t6,-32
9d008484:	0008302b 	sltu	a2,zero,t0
9d008488:	1009000d 	beq	zero,t1,9d0084c0 <L30>
9d00848c:	01264025 	or	t0,t1,a2
9d008490:	1000fff8 	b	9d008474 <L28>
9d008494:	34090000 	li	t1,0x0

9d008498 <L29>:
9d008498:	11c00009 	beqz	t6,9d0084c0 <L30>
9d00849c:	00000000 	nop
9d0084a0:	000e3822 	neg	a3,t6
9d0084a4:	00e83004 	sllv	a2,t0,a3
9d0084a8:	00e93804 	sllv	a3,t1,a3
9d0084ac:	01c84006 	srlv	t0,t0,t6
9d0084b0:	01c94806 	srlv	t1,t1,t6
9d0084b4:	10c00002 	beqz	a2,9d0084c0 <L30>
9d0084b8:	00e84025 	or	t0,a3,t0
9d0084bc:	35080002 	ori	t0,t0,0x2

9d0084c0 <L30>:
9d0084c0:	25080400 	addiu	t0,t0,1024
9d0084c4:	2d0f0400 	sltiu	t7,t0,1024
9d0084c8:	012f4821 	addu	t1,t1,t7
9d0084cc:	1000ff83 	b	9d0082dc <Clab8>
9d0084d0:	000957c2 	srl	t2,t1,0x1f
9d0084d4:	00000000 	nop

Disassembly of section .text.strtoull:

9d0084d8 <strtoull>:
9d0084d8:	27bdffd0 	addiu	sp,sp,-48
9d0084dc:	afbf002c 	sw	ra,44(sp)
9d0084e0:	afb50028 	sw	s5,40(sp)
9d0084e4:	afb40024 	sw	s4,36(sp)
9d0084e8:	afb30020 	sw	s3,32(sp)
9d0084ec:	afb2001c 	sw	s2,28(sp)
9d0084f0:	afb10018 	sw	s1,24(sp)
9d0084f4:	afb00014 	sw	s0,20(sp)
9d0084f8:	00808821 	move	s1,a0
9d0084fc:	80820000 	lb	v0,0(a0)
9d008500:	00a09821 	move	s3,a1
9d008504:	1040001f 	beqz	v0,9d008584 <strtoull+0xac>
9d008508:	00c09021 	move	s2,a2
9d00850c:	3c049d01 	lui	a0,0x9d01
9d008510:	2484abcd 	addiu	a0,a0,-21555
9d008514:	0b40214a 	j	9d008528 <strtoull+0x50>
9d008518:	00821821 	addu	v1,a0,v0
9d00851c:	82220000 	lb	v0,0(s1)
9d008520:	10400018 	beqz	v0,9d008584 <strtoull+0xac>
9d008524:	00821821 	addu	v1,a0,v0
9d008528:	80630000 	lb	v1,0(v1)
9d00852c:	30630088 	andi	v1,v1,0x88
9d008530:	5460fffa 	bnezl	v1,9d00851c <strtoull+0x44>
9d008534:	26310001 	addiu	s1,s1,1
9d008538:	2403002b 	li	v1,43
9d00853c:	14430079 	bne	v0,v1,9d008724 <strtoull+0x24c>
9d008540:	2403002d 	li	v1,45
9d008544:	3842002d 	xori	v0,v0,0x2d
9d008548:	82300001 	lb	s0,1(s1)
9d00854c:	2c550001 	sltiu	s5,v0,1
9d008550:	26310001 	addiu	s1,s1,1
9d008554:	1640000f 	bnez	s2,9d008594 <strtoull+0xbc>
9d008558:	24020010 	li	v0,16
9d00855c:	24020030 	li	v0,48
9d008560:	12020075 	beq	s0,v0,9d008738 <strtoull+0x260>
9d008564:	3c0d9999 	lui	t5,0x9999
9d008568:	35ad9999 	ori	t5,t5,0x9999
9d00856c:	3c0a1999 	lui	t2,0x1999
9d008570:	354a9999 	ori	t2,t2,0x9999
9d008574:	240b000a 	li	t3,10
9d008578:	0000a021 	move	s4,zero
9d00857c:	0b40216f 	j	9d0085bc <strtoull+0xe4>
9d008580:	2412000a 	li	s2,10
9d008584:	00008021 	move	s0,zero
9d008588:	1240fff4 	beqz	s2,9d00855c <strtoull+0x84>
9d00858c:	0000a821 	move	s5,zero
9d008590:	24020010 	li	v0,16
9d008594:	12420076 	beq	s2,v0,9d008770 <strtoull+0x298>
9d008598:	0012a7c3 	sra	s4,s2,0x1f
9d00859c:	2404ffff 	li	a0,-1
9d0085a0:	2405ffff 	li	a1,-1
9d0085a4:	02403021 	move	a2,s2
9d0085a8:	0f401a88 	jal	9d006a20 <.LFE1>
9d0085ac:	02803821 	move	a3,s4
9d0085b0:	02405821 	move	t3,s2
9d0085b4:	00406821 	move	t5,v0
9d0085b8:	00605021 	move	t2,v1
9d0085bc:	2624ffff 	addiu	a0,s1,-1
9d0085c0:	00002821 	move	a1,zero
9d0085c4:	00001021 	move	v0,zero
9d0085c8:	00001821 	move	v1,zero
9d0085cc:	3c079d01 	lui	a3,0x9d01
9d0085d0:	24e7abcd 	addiu	a3,a3,-21555
9d0085d4:	240e0061 	li	t6,97
9d0085d8:	240c0041 	li	t4,65
9d0085dc:	1200002b 	beqz	s0,9d00868c <strtoull+0x1b4>
9d0085e0:	24840001 	addiu	a0,a0,1
9d0085e4:	02074021 	addu	t0,s0,a3
9d0085e8:	91080000 	lbu	t0,0(t0)
9d0085ec:	31090004 	andi	t1,t0,0x4
9d0085f0:	1120003d 	beqz	t1,9d0086e8 <strtoull+0x210>
9d0085f4:	31060003 	andi	a2,t0,0x3
9d0085f8:	2610ffd0 	addiu	s0,s0,-48
9d0085fc:	06000023 	bltz	s0,9d00868c <strtoull+0x1b4>
9d008600:	0212402a 	slt	t0,s0,s2
9d008604:	11000021 	beqz	t0,9d00868c <strtoull+0x1b4>
9d008608:	0143402b 	sltu	t0,t2,v1
9d00860c:	55000034 	bnezl	t0,9d0086e0 <strtoull+0x208>
9d008610:	24050001 	li	a1,1
9d008614:	146a0003 	bne	v1,t2,9d008624 <strtoull+0x14c>
9d008618:	01a2302b 	sltu	a2,t5,v0
9d00861c:	54c00030 	bnezl	a2,9d0086e0 <strtoull+0x208>
9d008620:	24050001 	li	a1,1
9d008624:	14a00016 	bnez	a1,9d008680 <strtoull+0x1a8>
9d008628:	02820018 	mult	s4,v0
9d00862c:	001047c3 	sra	t0,s0,0x1f
9d008630:	71630000 	madd	t3,v1
9d008634:	00003012 	mflo	a2
9d008638:	004b0019 	multu	v0,t3
9d00863c:	00001012 	mflo	v0
9d008640:	00001810 	mfhi	v1
9d008644:	00c31821 	addu	v1,a2,v1
9d008648:	00033027 	nor	a2,zero,v1
9d00864c:	00c8482b 	sltu	t1,a2,t0
9d008650:	15200022 	bnez	t1,9d0086dc <strtoull+0x204>
9d008654:	00027827 	nor	t7,zero,v0
9d008658:	55060005 	bnel	t0,a2,9d008670 <strtoull+0x198>
9d00865c:	02028021 	addu	s0,s0,v0
9d008660:	01f0782b 	sltu	t7,t7,s0
9d008664:	55e0001e 	bnezl	t7,9d0086e0 <strtoull+0x208>
9d008668:	24050001 	li	a1,1
9d00866c:	02028021 	addu	s0,s0,v0
9d008670:	0202302b 	sltu	a2,s0,v0
9d008674:	00684021 	addu	t0,v1,t0
9d008678:	02001021 	move	v0,s0
9d00867c:	00c81821 	addu	v1,a2,t0
9d008680:	80900001 	lb	s0,1(a0)
9d008684:	1600ffd7 	bnez	s0,9d0085e4 <strtoull+0x10c>
9d008688:	24840001 	addiu	a0,a0,1
9d00868c:	12a0001d 	beqz	s5,9d008704 <strtoull+0x22c>
9d008690:	00000000 	nop
9d008694:	54a0001e 	bnezl	a1,9d008710 <strtoull+0x238>
9d008698:	24030022 	li	v1,34
9d00869c:	00023823 	negu	a3,v0
9d0086a0:	0007282b 	sltu	a1,zero,a3
9d0086a4:	00033023 	negu	a2,v1
9d0086a8:	00e01021 	move	v0,a3
9d0086ac:	00c51823 	subu	v1,a2,a1
9d0086b0:	56600001 	bnezl	s3,9d0086b8 <strtoull+0x1e0>
9d0086b4:	ae640000 	sw	a0,0(s3)
9d0086b8:	8fbf002c 	lw	ra,44(sp)
9d0086bc:	8fb50028 	lw	s5,40(sp)
9d0086c0:	8fb40024 	lw	s4,36(sp)
9d0086c4:	8fb30020 	lw	s3,32(sp)
9d0086c8:	8fb2001c 	lw	s2,28(sp)
9d0086cc:	8fb10018 	lw	s1,24(sp)
9d0086d0:	8fb00014 	lw	s0,20(sp)
9d0086d4:	03e00008 	jr	ra
9d0086d8:	27bd0030 	addiu	sp,sp,48
9d0086dc:	24050001 	li	a1,1
9d0086e0:	0b4021a1 	j	9d008684 <strtoull+0x1ac>
9d0086e4:	80900001 	lb	s0,1(a0)
9d0086e8:	10c0ffe8 	beqz	a2,9d00868c <strtoull+0x1b4>
9d0086ec:	31080001 	andi	t0,t0,0x1
9d0086f0:	01803021 	move	a2,t4
9d0086f4:	01c8300a 	movz	a2,t6,t0
9d0086f8:	02068023 	subu	s0,s0,a2
9d0086fc:	0b40217f 	j	9d0085fc <strtoull+0x124>
9d008700:	2610000a 	addiu	s0,s0,10
9d008704:	10a0ffea 	beqz	a1,9d0086b0 <strtoull+0x1d8>
9d008708:	00000000 	nop
9d00870c:	24030022 	li	v1,34
9d008710:	3c02a000 	lui	v0,0xa000
9d008714:	ac430054 	sw	v1,84(v0)
9d008718:	2402ffff 	li	v0,-1
9d00871c:	0b4021ac 	j	9d0086b0 <strtoull+0x1d8>
9d008720:	2403ffff 	li	v1,-1
9d008724:	1043ff88 	beq	v0,v1,9d008548 <strtoull+0x70>
9d008728:	3842002d 	xori	v0,v0,0x2d
9d00872c:	82300000 	lb	s0,0(s1)
9d008730:	0b402155 	j	9d008554 <strtoull+0x7c>
9d008734:	0000a821 	move	s5,zero
9d008738:	82300001 	lb	s0,1(s1)
9d00873c:	2402ffdf 	li	v0,-33
9d008740:	02021824 	and	v1,s0,v0
9d008744:	24020058 	li	v0,88
9d008748:	50620012 	beql	v1,v0,9d008794 <strtoull+0x2bc>
9d00874c:	82300002 	lb	s0,2(s1)
9d008750:	26310001 	addiu	s1,s1,1
9d008754:	240dffff 	li	t5,-1
9d008758:	3c0a1fff 	lui	t2,0x1fff
9d00875c:	354affff 	ori	t2,t2,0xffff
9d008760:	240b0008 	li	t3,8
9d008764:	0000a021 	move	s4,zero
9d008768:	0b40216f 	j	9d0085bc <strtoull+0xe4>
9d00876c:	24120008 	li	s2,8
9d008770:	24020030 	li	v0,48
9d008774:	5202000f 	beql	s0,v0,9d0087b4 <strtoull+0x2dc>
9d008778:	82300001 	lb	s0,1(s1)
9d00877c:	240dffff 	li	t5,-1
9d008780:	3c0a0fff 	lui	t2,0xfff
9d008784:	354affff 	ori	t2,t2,0xffff
9d008788:	240b0010 	li	t3,16
9d00878c:	0b40216f 	j	9d0085bc <strtoull+0xe4>
9d008790:	0000a021 	move	s4,zero
9d008794:	240dffff 	li	t5,-1
9d008798:	26310002 	addiu	s1,s1,2
9d00879c:	3c0a0fff 	lui	t2,0xfff
9d0087a0:	354affff 	ori	t2,t2,0xffff
9d0087a4:	240b0010 	li	t3,16
9d0087a8:	0000a021 	move	s4,zero
9d0087ac:	0b40216f 	j	9d0085bc <strtoull+0xe4>
9d0087b0:	24120010 	li	s2,16
9d0087b4:	24020078 	li	v0,120
9d0087b8:	52020003 	beql	s0,v0,9d0087c8 <strtoull+0x2f0>
9d0087bc:	82300002 	lb	s0,2(s1)
9d0087c0:	0b4021df 	j	9d00877c <strtoull+0x2a4>
9d0087c4:	26310001 	addiu	s1,s1,1
9d0087c8:	240dffff 	li	t5,-1
9d0087cc:	26310002 	addiu	s1,s1,2
9d0087d0:	3c0a0fff 	lui	t2,0xfff
9d0087d4:	354affff 	ori	t2,t2,0xffff
9d0087d8:	240b0010 	li	t3,16
9d0087dc:	0b40216f 	j	9d0085bc <strtoull+0xe4>
9d0087e0:	0000a021 	move	s4,zero

Disassembly of section .text:

9d0087e4 <PWM_init>:


void PWM_init(){

  // Timer 2 - 5kHz
  T2CONbits.TCKPS = 0;
9d0087e4:	3c02bf80 	lui	v0,0xbf80
9d0087e8:	94430800 	lhu	v1,2048(v0)
9d0087ec:	7c033104 	ins	v1,zero,0x4,0x3
9d0087f0:	a4430800 	sh	v1,2048(v0)
  PR2 = 15999;
9d0087f4:	24043e7f 	li	a0,15999
9d0087f8:	3c03bf80 	lui	v1,0xbf80
9d0087fc:	ac640820 	sw	a0,2080(v1)
  TMR2 = 0;
9d008800:	3c03bf80 	lui	v1,0xbf80
9d008804:	ac600810 	sw	zero,2064(v1)
  T2CONbits.ON = 1;
9d008808:	94440800 	lhu	a0,2048(v0)
9d00880c:	24030001 	li	v1,1
9d008810:	7c647bc4 	ins	a0,v1,0xf,0x1
9d008814:	a4440800 	sh	a0,2048(v0)
  IPC2bits.T2IP = 3;              // step 4: interrupt priority 3
9d008818:	3c02bf88 	lui	v0,0xbf88
9d00881c:	8c4410b0 	lw	a0,4272(v0)
9d008820:	24050003 	li	a1,3
9d008824:	7ca42084 	ins	a0,a1,0x2,0x3
9d008828:	ac4410b0 	sw	a0,4272(v0)
  IPC2bits.T2IS = 0;
9d00882c:	8c4410b0 	lw	a0,4272(v0)
9d008830:	7c040804 	ins	a0,zero,0x0,0x2
9d008834:	ac4410b0 	sw	a0,4272(v0)
  IFS0bits.T2IF = 0;              // step 5: clear the int flag
9d008838:	3c02bf88 	lui	v0,0xbf88
9d00883c:	8c441030 	lw	a0,4144(v0)
9d008840:	7c044204 	ins	a0,zero,0x8,0x1
9d008844:	ac441030 	sw	a0,4144(v0)
  IEC0bits.T2IE = 1;              // step 6: enable INT0 by setting IEC0<3>
9d008848:	3c02bf88 	lui	v0,0xbf88
9d00884c:	8c441060 	lw	a0,4192(v0)
9d008850:	7c644204 	ins	a0,v1,0x8,0x1
9d008854:	ac441060 	sw	a0,4192(v0)

  // Timer 3 - 20kHz
  T3CONbits.TCKPS = 0;            // Timer3 prescaler N=1
9d008858:	3c04bf80 	lui	a0,0xbf80
9d00885c:	94820a00 	lhu	v0,2560(a0)
9d008860:	7c023104 	ins	v0,zero,0x4,0x3
9d008864:	a4820a00 	sh	v0,2560(a0)
  PR3 = 3999;                     // period = (PR3+1) * N * 12.5 ns = 50us. 20kHz
9d008868:	24050f9f 	li	a1,3999
9d00886c:	3c02bf80 	lui	v0,0xbf80
9d008870:	ac450a20 	sw	a1,2592(v0)
  TMR3 = 0;                       // initial TMR3 count is 0
9d008874:	3c02bf80 	lui	v0,0xbf80
9d008878:	ac400a10 	sw	zero,2576(v0)
  OC1CONbits.OCTSEL = 1;          // selects Timer3
9d00887c:	3c02bf80 	lui	v0,0xbf80
9d008880:	94453000 	lhu	a1,12288(v0)
9d008884:	7c6518c4 	ins	a1,v1,0x3,0x1
9d008888:	a4453000 	sh	a1,12288(v0)
  OC1CONbits.OCM = 0b110;         // PWM mode without fault pin; other OC1CON bits are defaults
9d00888c:	94453000 	lhu	a1,12288(v0)
9d008890:	24060006 	li	a2,6
9d008894:	7cc51004 	ins	a1,a2,0x0,0x3
9d008898:	a4453000 	sh	a1,12288(v0)
  OC1RS = 1000;                   // duty cycle = OC1RS/(PR2+1) = 25%
9d00889c:	240503e8 	li	a1,1000
9d0088a0:	3c06bf80 	lui	a2,0xbf80
9d0088a4:	acc53020 	sw	a1,12320(a2)
  OC1R = 1000;                    // initialize before turning OC1 on; afterward it is read-only
9d0088a8:	3c06bf80 	lui	a2,0xbf80
9d0088ac:	acc53010 	sw	a1,12304(a2)
  T3CONbits.ON = 1;               // turn on Timer3
9d0088b0:	94850a00 	lhu	a1,2560(a0)
9d0088b4:	7c657bc4 	ins	a1,v1,0xf,0x1
9d0088b8:	a4850a00 	sh	a1,2560(a0)
  OC1CONbits.ON = 1;              // turn on OC1
9d0088bc:	94443000 	lhu	a0,12288(v0)
9d0088c0:	7c647bc4 	ins	a0,v1,0xf,0x1
9d0088c4:	a4443000 	sh	a0,12288(v0)

  TRISDbits.TRISD0 = 0;           // make D0 an output
9d0088c8:	3c02bf88 	lui	v0,0xbf88
9d0088cc:	944360c0 	lhu	v1,24768(v0)
9d0088d0:	7c030004 	ins	v1,zero,0x0,0x1
9d0088d4:	a44360c0 	sh	v1,24768(v0)
  TRISDbits.TRISD11 = 0;
9d0088d8:	944360c0 	lhu	v1,24768(v0)
9d0088dc:	7c035ac4 	ins	v1,zero,0xb,0x1
9d0088e0:	a44360c0 	sh	v1,24768(v0)
9d0088e4:	03e00008 	jr	ra
9d0088e8:	00000000 	nop

9d0088ec <makeWaveform>:

void makeWaveform() {
  int i = 0;
  int center = 0;
  int A = 200;     // square wave, fill in center value and amplitude
  for (i = 0; i < NUMSAMPS; i++) {
9d0088ec:	00001021 	move	v0,zero
    }
    else if (i>=50 && i<75) {
      Waveform[i] = center + A;
    }
    else {
      Waveform[i] = center - A;
9d0088f0:	3c04a001 	lui	a0,0xa001
9d0088f4:	2484a794 	addiu	a0,a0,-22636
9d0088f8:	2406ff38 	li	a2,-200
    }
    else if (i>=25 && i<50) {
      Waveform[i] = center - A;
    }
    else if (i>=50 && i<75) {
      Waveform[i] = center + A;
9d0088fc:	240700c8 	li	a3,200

void makeWaveform() {
  int i = 0;
  int center = 0;
  int A = 200;     // square wave, fill in center value and amplitude
  for (i = 0; i < NUMSAMPS; i++) {
9d008900:	24050064 	li	a1,100
    if (i<25) {
9d008904:	28430019 	slti	v1,v0,25
9d008908:	10600006 	beqz	v1,9d008924 <makeWaveform+0x38>
9d00890c:	2443ffe7 	addiu	v1,v0,-25
      Waveform[i] = center + A;
9d008910:	00021880 	sll	v1,v0,0x2
9d008914:	00641821 	addu	v1,v1,a0
9d008918:	ac670000 	sw	a3,0(v1)
9d00891c:	0b40225b 	j	9d00896c <makeWaveform+0x80>
9d008920:	24420001 	addiu	v0,v0,1
    }
    else if (i>=25 && i<50) {
9d008924:	2c630019 	sltiu	v1,v1,25
9d008928:	10600006 	beqz	v1,9d008944 <makeWaveform+0x58>
9d00892c:	2443ffce 	addiu	v1,v0,-50
      Waveform[i] = center - A;
9d008930:	00021880 	sll	v1,v0,0x2
9d008934:	00641821 	addu	v1,v1,a0
9d008938:	ac660000 	sw	a2,0(v1)
9d00893c:	0b40225b 	j	9d00896c <makeWaveform+0x80>
9d008940:	24420001 	addiu	v0,v0,1
    }
    else if (i>=50 && i<75) {
9d008944:	2c630019 	sltiu	v1,v1,25
9d008948:	10600005 	beqz	v1,9d008960 <makeWaveform+0x74>
9d00894c:	00021880 	sll	v1,v0,0x2
      Waveform[i] = center + A;
9d008950:	00641821 	addu	v1,v1,a0
9d008954:	ac670000 	sw	a3,0(v1)
9d008958:	0b40225b 	j	9d00896c <makeWaveform+0x80>
9d00895c:	24420001 	addiu	v0,v0,1
    }
    else {
      Waveform[i] = center - A;
9d008960:	00641821 	addu	v1,v1,a0
9d008964:	ac660000 	sw	a2,0(v1)

void makeWaveform() {
  int i = 0;
  int center = 0;
  int A = 200;     // square wave, fill in center value and amplitude
  for (i = 0; i < NUMSAMPS; i++) {
9d008968:	24420001 	addiu	v0,v0,1
9d00896c:	1445ffe6 	bne	v0,a1,9d008908 <makeWaveform+0x1c>
9d008970:	28430019 	slti	v1,v0,25
    }
    else {
      Waveform[i] = center - A;
    }
  }
}
9d008974:	03e00008 	jr	ra
9d008978:	00000000 	nop

9d00897c <curr_PI>:

int curr_PI(float kp, float ki, int ref, int actual) {
9d00897c:	27bdffe0 	addiu	sp,sp,-32
9d008980:	afbf001c 	sw	ra,28(sp)
9d008984:	afb20018 	sw	s2,24(sp)
9d008988:	afb10014 	sw	s1,20(sp)
9d00898c:	afb00010 	sw	s0,16(sp)
9d008990:	00808021 	move	s0,a0
9d008994:	00a08821 	move	s1,a1
  int error = ref - actual;
9d008998:	00c72023 	subu	a0,a2,a3
  curr_E_int = curr_E_int + error;
9d00899c:	8f828078 	lw	v0,-32648(gp)
9d0089a0:	00441021 	addu	v0,v0,a0
9d0089a4:	af828078 	sw	v0,-32648(gp)

  if (error >0) {
9d0089a8:	18800004 	blez	a0,9d0089bc <curr_PI+0x40>
9d0089ac:	24020001 	li	v0,1
    dir = 1;
9d0089b0:	af828074 	sw	v0,-32652(gp)
9d0089b4:	0b402270 	j	9d0089c0 <curr_PI+0x44>
9d0089b8:	00000000 	nop
  }
  else {
    dir = 0;
9d0089bc:	af808074 	sw	zero,-32652(gp)
  }
  int u = abs((kp*error) + (ki*curr_E_int));
9d0089c0:	8f928078 	lw	s2,-32648(gp)
9d0089c4:	0f403080 	jal	9d00c200 <__floatsisf>
9d0089c8:	00000000 	nop
9d0089cc:	00402021 	move	a0,v0
9d0089d0:	0f40272f 	jal	9d009cbc <.LFE9>
9d0089d4:	02002821 	move	a1,s0
9d0089d8:	00408021 	move	s0,v0
9d0089dc:	0f403080 	jal	9d00c200 <__floatsisf>
9d0089e0:	02402021 	move	a0,s2
9d0089e4:	00402021 	move	a0,v0
9d0089e8:	0f40272f 	jal	9d009cbc <.LFE9>
9d0089ec:	02202821 	move	a1,s1
9d0089f0:	02002021 	move	a0,s0
9d0089f4:	0f402525 	jal	9d009494 <__addsf3>
9d0089f8:	00402821 	move	a1,v0
9d0089fc:	0f402f36 	jal	9d00bcd8 <__fixsfsi>
9d008a00:	00402021 	move	a0,v0
9d008a04:	00021fc3 	sra	v1,v0,0x1f
9d008a08:	00621026 	xor	v0,v1,v0
9d008a0c:	00431023 	subu	v0,v0,v1
9d008a10:	28440065 	slti	a0,v0,101
  
  if (u > 100) {
    u = 100;
  }
  return (unsigned int)((u/100.0)*4000);
9d008a14:	24030064 	li	v1,100
9d008a18:	0044180b 	movn	v1,v0,a0
9d008a1c:	0f402f92 	jal	9d00be48 <__floatsidf>
9d008a20:	00602021 	move	a0,v1
9d008a24:	00402021 	move	a0,v0
9d008a28:	00602821 	move	a1,v1
9d008a2c:	3c029d01 	lui	v0,0x9d01
9d008a30:	8c46c8d8 	lw	a2,-14120(v0)
9d008a34:	0f401714 	jal	9d005c50 <__divdf3>
9d008a38:	8c47c8dc 	lw	a3,-14116(v0)
9d008a3c:	00402021 	move	a0,v0
9d008a40:	00602821 	move	a1,v1
9d008a44:	3c029d01 	lui	v0,0x9d01
9d008a48:	8c46c8e0 	lw	a2,-14112(v0)
9d008a4c:	0f40206b 	jal	9d0081ac <.LFE23>
9d008a50:	8c47c8e4 	lw	a3,-14108(v0)
9d008a54:	00402021 	move	a0,v0
9d008a58:	0f402eb2 	jal	9d00bac8 <__fixunsdfsi>
9d008a5c:	00602821 	move	a1,v1
}
9d008a60:	8fbf001c 	lw	ra,28(sp)
9d008a64:	8fb20018 	lw	s2,24(sp)
9d008a68:	8fb10014 	lw	s1,20(sp)
9d008a6c:	8fb00010 	lw	s0,16(sp)
9d008a70:	03e00008 	jr	ra
9d008a74:	27bd0020 	addiu	sp,sp,32

9d008a78 <set_direction>:

void set_direction(int d) {
  LATDbits.LATD11 = d;
9d008a78:	3c02bf88 	lui	v0,0xbf88
9d008a7c:	944360e0 	lhu	v1,24800(v0)
9d008a80:	7c835ac4 	ins	v1,a0,0xb,0x1
9d008a84:	a44360e0 	sh	v1,24800(v0)
9d008a88:	03e00008 	jr	ra
9d008a8c:	00000000 	nop

Disassembly of section .text._strtostr:

9d008a90 <_strtostr>:
9d008a90:	27bdfec8 	addiu	sp,sp,-312
9d008a94:	afbf0134 	sw	ra,308(sp)
9d008a98:	afbe0130 	sw	s8,304(sp)
9d008a9c:	afb7012c 	sw	s7,300(sp)
9d008aa0:	afb60128 	sw	s6,296(sp)
9d008aa4:	afb50124 	sw	s5,292(sp)
9d008aa8:	afb40120 	sw	s4,288(sp)
9d008aac:	afb3011c 	sw	s3,284(sp)
9d008ab0:	afb20118 	sw	s2,280(sp)
9d008ab4:	afb10114 	sw	s1,276(sp)
9d008ab8:	afb00110 	sw	s0,272(sp)
9d008abc:	00808021 	move	s0,a0
9d008ac0:	afa5013c 	sw	a1,316(sp)
9d008ac4:	00c09821 	move	s3,a2
9d008ac8:	00e0b021 	move	s6,a3
9d008acc:	24020002 	li	v0,2
9d008ad0:	10820056 	beq	a0,v0,9d008c2c <_strtostr+0x19c>
9d008ad4:	8fb20148 	lw	s2,328(sp)
9d008ad8:	32730001 	andi	s3,s3,0x1
9d008adc:	16600005 	bnez	s3,9d008af4 <_strtostr+0x64>
9d008ae0:	00000000 	nop
9d008ae4:	8e42000c 	lw	v0,12(s2)
9d008ae8:	24430004 	addiu	v1,v0,4
9d008aec:	ae43000c 	sw	v1,12(s2)
9d008af0:	8c510000 	lw	s1,0(v0)
9d008af4:	12c00081 	beqz	s6,9d008cfc <_strtostr+0x26c>
9d008af8:	02c0b821 	move	s7,s6
9d008afc:	2414ffff 	li	s4,-1
9d008b00:	24150001 	li	s5,1
9d008b04:	3c1e9d01 	lui	s8,0x9d01
9d008b08:	27deabcd 	addiu	s8,s8,-21555
9d008b0c:	0f403036 	jal	9d00c0d8 <gsgetc>
9d008b10:	02402021 	move	a0,s2
9d008b14:	50540011 	beql	v0,s4,9d008b5c <_strtostr+0xcc>
9d008b18:	02e01821 	move	v1,s7
9d008b1c:	12150038 	beq	s0,s5,9d008c00 <_strtostr+0x170>
9d008b20:	26e3ffff 	addiu	v1,s7,-1
9d008b24:	24040002 	li	a0,2
9d008b28:	1204002b 	beq	s0,a0,9d008bd8 <_strtostr+0x148>
9d008b2c:	27a50010 	addiu	a1,sp,16
9d008b30:	16600003 	bnez	s3,9d008b40 <_strtostr+0xb0>
9d008b34:	00000000 	nop
9d008b38:	a2220000 	sb	v0,0(s1)
9d008b3c:	26310001 	addiu	s1,s1,1
9d008b40:	10600006 	beqz	v1,9d008b5c <_strtostr+0xcc>
9d008b44:	0060b821 	move	s7,v1
9d008b48:	0f403036 	jal	9d00c0d8 <gsgetc>
9d008b4c:	02402021 	move	a0,s2
9d008b50:	1454fff2 	bne	v0,s4,9d008b1c <_strtostr+0x8c>
9d008b54:	00000000 	nop
9d008b58:	02e01821 	move	v1,s7
9d008b5c:	2402ffff 	li	v0,-1
9d008b60:	8e440014 	lw	a0,20(s2)
9d008b64:	24840001 	addiu	a0,a0,1
9d008b68:	16600008 	bnez	s3,9d008b8c <_strtostr+0xfc>
9d008b6c:	ae440014 	sw	a0,20(s2)
9d008b70:	24040001 	li	a0,1
9d008b74:	8fa6013c 	lw	a2,316(sp)
9d008b78:	50c40001 	beql	a2,a0,9d008b80 <_strtostr+0xf0>
9d008b7c:	a2200000 	sb	zero,0(s1)
9d008b80:	8e440018 	lw	a0,24(s2)
9d008b84:	24840001 	addiu	a0,a0,1
9d008b88:	ae440018 	sw	a0,24(s2)
9d008b8c:	14760005 	bne	v1,s6,9d008ba4 <_strtostr+0x114>
9d008b90:	00002021 	move	a0,zero
9d008b94:	2404ffff 	li	a0,-1
9d008b98:	00021027 	nor	v0,zero,v0
9d008b9c:	24030001 	li	v1,1
9d008ba0:	0062200b 	movn	a0,v1,v0
9d008ba4:	00801021 	move	v0,a0
9d008ba8:	8fbf0134 	lw	ra,308(sp)
9d008bac:	8fbe0130 	lw	s8,304(sp)
9d008bb0:	8fb7012c 	lw	s7,300(sp)
9d008bb4:	8fb60128 	lw	s6,296(sp)
9d008bb8:	8fb50124 	lw	s5,292(sp)
9d008bbc:	8fb40120 	lw	s4,288(sp)
9d008bc0:	8fb3011c 	lw	s3,284(sp)
9d008bc4:	8fb20118 	lw	s2,280(sp)
9d008bc8:	8fb10114 	lw	s1,276(sp)
9d008bcc:	8fb00110 	lw	s0,272(sp)
9d008bd0:	03e00008 	jr	ra
9d008bd4:	27bd0138 	addiu	sp,sp,312
9d008bd8:	00a22021 	addu	a0,a1,v0
9d008bdc:	80840000 	lb	a0,0(a0)
9d008be0:	1480ffd3 	bnez	a0,9d008b30 <_strtostr+0xa0>
9d008be4:	00000000 	nop
9d008be8:	8e440010 	lw	a0,16(s2)
9d008bec:	ae420004 	sw	v0,4(s2)
9d008bf0:	02e01821 	move	v1,s7
9d008bf4:	2484ffff 	addiu	a0,a0,-1
9d008bf8:	0b4022d8 	j	9d008b60 <_strtostr+0xd0>
9d008bfc:	ae440010 	sw	a0,16(s2)
9d008c00:	005e2021 	addu	a0,v0,s8
9d008c04:	80840000 	lb	a0,0(a0)
9d008c08:	30840088 	andi	a0,a0,0x88
9d008c0c:	1080ffc8 	beqz	a0,9d008b30 <_strtostr+0xa0>
9d008c10:	00000000 	nop
9d008c14:	8e440010 	lw	a0,16(s2)
9d008c18:	ae420004 	sw	v0,4(s2)
9d008c1c:	02e01821 	move	v1,s7
9d008c20:	2484ffff 	addiu	a0,a0,-1
9d008c24:	0b4022d8 	j	9d008b60 <_strtostr+0xd0>
9d008c28:	ae440010 	sw	a0,16(s2)
9d008c2c:	8e540008 	lw	s4,8(s2)
9d008c30:	82830000 	lb	v1,0(s4)
9d008c34:	2402005e 	li	v0,94
9d008c38:	50620032 	beql	v1,v0,9d008d04 <_strtostr+0x274>
9d008c3c:	26940001 	addiu	s4,s4,1
9d008c40:	24150001 	li	s5,1
9d008c44:	00002821 	move	a1,zero
9d008c48:	27a40010 	addiu	a0,sp,16
9d008c4c:	0f4031c4 	jal	9d00c710 <.LFE1>
9d008c50:	24060100 	li	a2,256
9d008c54:	82830000 	lb	v1,0(s4)
9d008c58:	2405ffff 	li	a1,-1
9d008c5c:	2409ffff 	li	t1,-1
9d008c60:	240a002d 	li	t2,45
9d008c64:	2408005d 	li	t0,93
9d008c68:	0b402326 	j	9d008c98 <_strtostr+0x208>
9d008c6c:	7c152420 	seb	a0,s5
9d008c70:	00602821 	move	a1,v1
9d008c74:	27a30010 	addiu	v1,sp,16
9d008c78:	00651021 	addu	v0,v1,a1
9d008c7c:	a0550000 	sb	s5,0(v0)
9d008c80:	02801021 	move	v0,s4
9d008c84:	24540001 	addiu	s4,v0,1
9d008c88:	ae540008 	sw	s4,8(s2)
9d008c8c:	80430001 	lb	v1,1(v0)
9d008c90:	50680018 	beql	v1,t0,9d008cf4 <_strtostr+0x264>
9d008c94:	24420002 	addiu	v0,v0,2
9d008c98:	10a9fff5 	beq	a1,t1,9d008c70 <_strtostr+0x1e0>
9d008c9c:	82870001 	lb	a3,1(s4)
9d008ca0:	546afff4 	bnel	v1,t2,9d008c74 <_strtostr+0x1e4>
9d008ca4:	00602821 	move	a1,v1
9d008ca8:	10e8fff1 	beq	a3,t0,9d008c70 <_strtostr+0x1e0>
9d008cac:	24a20001 	addiu	v0,a1,1
9d008cb0:	00e2282a 	slt	a1,a3,v0
9d008cb4:	27a30010 	addiu	v1,sp,16
9d008cb8:	00621021 	addu	v0,v1,v0
9d008cbc:	27a60011 	addiu	a2,sp,17
9d008cc0:	14a00005 	bnez	a1,9d008cd8 <_strtostr+0x248>
9d008cc4:	00c71821 	addu	v1,a2,a3
9d008cc8:	a0440000 	sb	a0,0(v0)
9d008ccc:	24420001 	addiu	v0,v0,1
9d008cd0:	5443fffe 	bnel	v0,v1,9d008ccc <_strtostr+0x23c>
9d008cd4:	a0440000 	sb	a0,0(v0)
9d008cd8:	26820001 	addiu	v0,s4,1
9d008cdc:	24540001 	addiu	s4,v0,1
9d008ce0:	ae540008 	sw	s4,8(s2)
9d008ce4:	80430001 	lb	v1,1(v0)
9d008ce8:	1468ffeb 	bne	v1,t0,9d008c98 <_strtostr+0x208>
9d008cec:	2405ffff 	li	a1,-1
9d008cf0:	24420002 	addiu	v0,v0,2
9d008cf4:	0b4022b6 	j	9d008ad8 <_strtostr+0x48>
9d008cf8:	ae420008 	sw	v0,8(s2)
9d008cfc:	0b4022d7 	j	9d008b5c <_strtostr+0xcc>
9d008d00:	00001821 	move	v1,zero
9d008d04:	ae540008 	sw	s4,8(s2)
9d008d08:	0000a821 	move	s5,zero
9d008d0c:	0b402312 	j	9d008c48 <_strtostr+0x1b8>
9d008d10:	24050001 	li	a1,1

Disassembly of section .text.strtoul:

9d008d14 <strtoul>:
9d008d14:	80820000 	lb	v0,0(a0)
9d008d18:	10400089 	beqz	v0,9d008f40 <strtoul+0x22c>
9d008d1c:	00001821 	move	v1,zero
9d008d20:	3c089d01 	lui	t0,0x9d01
9d008d24:	2508abcd 	addiu	t0,t0,-21555
9d008d28:	01021821 	addu	v1,t0,v0
9d008d2c:	80630000 	lb	v1,0(v1)
9d008d30:	30630088 	andi	v1,v1,0x88
9d008d34:	14600007 	bnez	v1,9d008d54 <strtoul+0x40>
9d008d38:	00803821 	move	a3,a0
9d008d3c:	0b4023a9 	j	9d008ea4 <strtoul+0x190>
9d008d40:	2403002b 	li	v1,43
9d008d44:	80630000 	lb	v1,0(v1)
9d008d48:	30630088 	andi	v1,v1,0x88
9d008d4c:	50600055 	beqzl	v1,9d008ea4 <strtoul+0x190>
9d008d50:	2403002b 	li	v1,43
9d008d54:	24e70001 	addiu	a3,a3,1
9d008d58:	80e20000 	lb	v0,0(a3)
9d008d5c:	1440fff9 	bnez	v0,9d008d44 <strtoul+0x30>
9d008d60:	01021821 	addu	v1,t0,v0
9d008d64:	00001821 	move	v1,zero
9d008d68:	0000c021 	move	t8,zero
9d008d6c:	14c00041 	bnez	a2,9d008e74 <strtoul+0x160>
9d008d70:	24020010 	li	v0,16
9d008d74:	24020030 	li	v0,48
9d008d78:	1062005d 	beq	v1,v0,9d008ef0 <strtoul+0x1dc>
9d008d7c:	3c0d1999 	lui	t5,0x1999
9d008d80:	35ad9999 	ori	t5,t5,0x9999
9d008d84:	240f000a 	li	t7,10
9d008d88:	00005821 	move	t3,zero
9d008d8c:	2406000a 	li	a2,10
9d008d90:	24e7ffff 	addiu	a3,a3,-1
9d008d94:	00005021 	move	t2,zero
9d008d98:	00001021 	move	v0,zero
9d008d9c:	3c0c9d01 	lui	t4,0x9d01
9d008da0:	258cabcd 	addiu	t4,t4,-21555
9d008da4:	24190061 	li	t9,97
9d008da8:	240e0041 	li	t6,65
9d008dac:	10600019 	beqz	v1,9d008e14 <strtoul+0x100>
9d008db0:	24e70001 	addiu	a3,a3,1
9d008db4:	006c4021 	addu	t0,v1,t4
9d008db8:	91080000 	lbu	t0,0(t0)
9d008dbc:	31090004 	andi	t1,t0,0x4
9d008dc0:	11200023 	beqz	t1,9d008e50 <strtoul+0x13c>
9d008dc4:	31090003 	andi	t1,t0,0x3
9d008dc8:	2463ffd0 	addiu	v1,v1,-48
9d008dcc:	04600011 	bltz	v1,9d008e14 <strtoul+0x100>
9d008dd0:	0066402a 	slt	t0,v1,a2
9d008dd4:	1100000f 	beqz	t0,9d008e14 <strtoul+0x100>
9d008dd8:	01a2402b 	sltu	t0,t5,v0
9d008ddc:	55000019 	bnezl	t0,9d008e44 <strtoul+0x130>
9d008de0:	240a0001 	li	t2,1
9d008de4:	55400008 	bnezl	t2,9d008e08 <strtoul+0xf4>
9d008de8:	80e30001 	lb	v1,1(a3)
9d008dec:	704f1002 	mul	v0,v0,t7
9d008df0:	00024027 	nor	t0,zero,v0
9d008df4:	0103402b 	sltu	t0,t0,v1
9d008df8:	55000012 	bnezl	t0,9d008e44 <strtoul+0x130>
9d008dfc:	240a0001 	li	t2,1
9d008e00:	00431021 	addu	v0,v0,v1
9d008e04:	80e30001 	lb	v1,1(a3)
9d008e08:	240b0001 	li	t3,1
9d008e0c:	1460ffe9 	bnez	v1,9d008db4 <strtoul+0xa0>
9d008e10:	24e70001 	addiu	a3,a3,1
9d008e14:	1300001f 	beqz	t8,9d008e94 <strtoul+0x180>
9d008e18:	00000000 	nop
9d008e1c:	11400005 	beqz	t2,9d008e34 <strtoul+0x120>
9d008e20:	00021023 	negu	v0,v0
9d008e24:	24030022 	li	v1,34
9d008e28:	3c02a000 	lui	v0,0xa000
9d008e2c:	ac430054 	sw	v1,84(v0)
9d008e30:	2402ffff 	li	v0,-1
9d008e34:	10a0000d 	beqz	a1,9d008e6c <strtoul+0x158>
9d008e38:	008b380a 	movz	a3,a0,t3
9d008e3c:	03e00008 	jr	ra
9d008e40:	aca70000 	sw	a3,0(a1)
9d008e44:	80e30001 	lb	v1,1(a3)
9d008e48:	0b402383 	j	9d008e0c <strtoul+0xf8>
9d008e4c:	240b0001 	li	t3,1
9d008e50:	1120fff0 	beqz	t1,9d008e14 <strtoul+0x100>
9d008e54:	31080001 	andi	t0,t0,0x1
9d008e58:	01c04821 	move	t1,t6
9d008e5c:	0328480a 	movz	t1,t9,t0
9d008e60:	00691823 	subu	v1,v1,t1
9d008e64:	0b402373 	j	9d008dcc <strtoul+0xb8>
9d008e68:	2463000a 	addiu	v1,v1,10
9d008e6c:	03e00008 	jr	ra
9d008e70:	00000000 	nop
9d008e74:	10c20017 	beq	a2,v0,9d008ed4 <strtoul+0x1c0>
9d008e78:	240dffff 	li	t5,-1
9d008e7c:	00c07821 	move	t7,a2
9d008e80:	01a6001b 	divu	zero,t5,a2
9d008e84:	00c001f4 	teq	a2,zero,0x7
9d008e88:	00006812 	mflo	t5
9d008e8c:	0b402364 	j	9d008d90 <strtoul+0x7c>
9d008e90:	00005821 	move	t3,zero
9d008e94:	1540ffe4 	bnez	t2,9d008e28 <strtoul+0x114>
9d008e98:	24030022 	li	v1,34
9d008e9c:	0b40238d 	j	9d008e34 <strtoul+0x120>
9d008ea0:	00000000 	nop
9d008ea4:	54430006 	bnel	v0,v1,9d008ec0 <strtoul+0x1ac>
9d008ea8:	2403002d 	li	v1,45
9d008eac:	3842002d 	xori	v0,v0,0x2d
9d008eb0:	80e30001 	lb	v1,1(a3)
9d008eb4:	2c580001 	sltiu	t8,v0,1
9d008eb8:	0b40235b 	j	9d008d6c <strtoul+0x58>
9d008ebc:	24e70001 	addiu	a3,a3,1
9d008ec0:	5043fffb 	beql	v0,v1,9d008eb0 <strtoul+0x19c>
9d008ec4:	3842002d 	xori	v0,v0,0x2d
9d008ec8:	80e30000 	lb	v1,0(a3)
9d008ecc:	0b40235b 	j	9d008d6c <strtoul+0x58>
9d008ed0:	0000c021 	move	t8,zero
9d008ed4:	24020030 	li	v0,48
9d008ed8:	1062001c 	beq	v1,v0,9d008f4c <strtoul+0x238>
9d008edc:	3c0d0fff 	lui	t5,0xfff
9d008ee0:	35adffff 	ori	t5,t5,0xffff
9d008ee4:	240f0010 	li	t7,16
9d008ee8:	0b402364 	j	9d008d90 <strtoul+0x7c>
9d008eec:	00005821 	move	t3,zero
9d008ef0:	80e30001 	lb	v1,1(a3)
9d008ef4:	2402ffdf 	li	v0,-33
9d008ef8:	00623024 	and	a2,v1,v0
9d008efc:	24020058 	li	v0,88
9d008f00:	50c20008 	beql	a2,v0,9d008f24 <strtoul+0x210>
9d008f04:	80e30002 	lb	v1,2(a3)
9d008f08:	24e70001 	addiu	a3,a3,1
9d008f0c:	3c0d1fff 	lui	t5,0x1fff
9d008f10:	35adffff 	ori	t5,t5,0xffff
9d008f14:	240f0008 	li	t7,8
9d008f18:	240b0001 	li	t3,1
9d008f1c:	0b402364 	j	9d008d90 <strtoul+0x7c>
9d008f20:	24060008 	li	a2,8
9d008f24:	3c0d0fff 	lui	t5,0xfff
9d008f28:	35adffff 	ori	t5,t5,0xffff
9d008f2c:	24e70002 	addiu	a3,a3,2
9d008f30:	240f0010 	li	t7,16
9d008f34:	240b0001 	li	t3,1
9d008f38:	0b402364 	j	9d008d90 <strtoul+0x7c>
9d008f3c:	24060010 	li	a2,16
9d008f40:	00803821 	move	a3,a0
9d008f44:	0b40235b 	j	9d008d6c <strtoul+0x58>
9d008f48:	0000c021 	move	t8,zero
9d008f4c:	80e30001 	lb	v1,1(a3)
9d008f50:	2402ffdf 	li	v0,-33
9d008f54:	00624024 	and	t0,v1,v0
9d008f58:	24020058 	li	v0,88
9d008f5c:	51020007 	beql	t0,v0,9d008f7c <strtoul+0x268>
9d008f60:	80e30002 	lb	v1,2(a3)
9d008f64:	24e70001 	addiu	a3,a3,1
9d008f68:	3c0d0fff 	lui	t5,0xfff
9d008f6c:	35adffff 	ori	t5,t5,0xffff
9d008f70:	240f0010 	li	t7,16
9d008f74:	0b402364 	j	9d008d90 <strtoul+0x7c>
9d008f78:	240b0001 	li	t3,1
9d008f7c:	3c0d0fff 	lui	t5,0xfff
9d008f80:	35adffff 	ori	t5,t5,0xffff
9d008f84:	24e70002 	addiu	a3,a3,2
9d008f88:	240f0010 	li	t7,16
9d008f8c:	0b402364 	j	9d008d90 <strtoul+0x7c>
9d008f90:	240b0001 	li	t3,1

Disassembly of section .text.free:

9d008f94 <free>:
9d008f94:	10800074 	beqz	a0,9d009168 <free+0x1d4>
9d008f98:	2402fffe 	li	v0,-2
9d008f9c:	8c86fffc 	lw	a2,-4(a0)
9d008fa0:	2485fff8 	addiu	a1,a0,-8
9d008fa4:	00c21824 	and	v1,a2,v0
9d008fa8:	00a31021 	addu	v0,a1,v1
9d008fac:	8c470004 	lw	a3,4(v0)
9d008fb0:	30e80001 	andi	t0,a3,0x1
9d008fb4:	1100006c 	beqz	t0,9d009168 <free+0x1d4>
9d008fb8:	7c070804 	ins	a3,zero,0x0,0x2
9d008fbc:	3c08a001 	lui	t0,0xa001
9d008fc0:	2508a92c 	addiu	t0,t0,-22228
9d008fc4:	8d090008 	lw	t1,8(t0)
9d008fc8:	10490057 	beq	v0,t1,9d009128 <free+0x194>
9d008fcc:	30c60001 	andi	a2,a2,0x1
9d008fd0:	ac470004 	sw	a3,4(v0)
9d008fd4:	14c0000c 	bnez	a2,9d009008 <free+0x74>
9d008fd8:	00004821 	move	t1,zero
9d008fdc:	8c86fff8 	lw	a2,-8(a0)
9d008fe0:	00a62823 	subu	a1,a1,a2
9d008fe4:	8ca40008 	lw	a0,8(a1)
9d008fe8:	00661821 	addu	v1,v1,a2
9d008fec:	3c06a001 	lui	a2,0xa001
9d008ff0:	24c6a934 	addiu	a2,a2,-22220
9d008ff4:	50860004 	beql	a0,a2,9d009008 <free+0x74>
9d008ff8:	24090001 	li	t1,1
9d008ffc:	8ca6000c 	lw	a2,12(a1)
9d009000:	ac86000c 	sw	a2,12(a0)
9d009004:	acc40008 	sw	a0,8(a2)
9d009008:	00472021 	addu	a0,v0,a3
9d00900c:	8c840004 	lw	a0,4(a0)
9d009010:	30840001 	andi	a0,a0,0x1
9d009014:	54800008 	bnezl	a0,9d009038 <free+0xa4>
9d009018:	34640001 	ori	a0,v1,0x1
9d00901c:	00671821 	addu	v1,v1,a3
9d009020:	11200026 	beqz	t1,9d0090bc <free+0x128>
9d009024:	8c440008 	lw	a0,8(v0)
9d009028:	8c42000c 	lw	v0,12(v0)
9d00902c:	ac82000c 	sw	v0,12(a0)
9d009030:	ac440008 	sw	a0,8(v0)
9d009034:	34640001 	ori	a0,v1,0x1
9d009038:	00a31021 	addu	v0,a1,v1
9d00903c:	aca40004 	sw	a0,4(a1)
9d009040:	15200049 	bnez	t1,9d009168 <free+0x1d4>
9d009044:	ac430000 	sw	v1,0(v0)
9d009048:	2c620200 	sltiu	v0,v1,512
9d00904c:	54400028 	bnezl	v0,9d0090f0 <free+0x15c>
9d009050:	000318c2 	srl	v1,v1,0x3
9d009054:	00031242 	srl	v0,v1,0x9
9d009058:	2c440005 	sltiu	a0,v0,5
9d00905c:	1080004c 	beqz	a0,9d009190 <free+0x1fc>
9d009060:	2c440015 	sltiu	a0,v0,21
9d009064:	00032182 	srl	a0,v1,0x6
9d009068:	24840038 	addiu	a0,a0,56
9d00906c:	00043040 	sll	a2,a0,0x1
9d009070:	00063080 	sll	a2,a2,0x2
9d009074:	01063021 	addu	a2,t0,a2
9d009078:	8cc20008 	lw	v0,8(a2)
9d00907c:	50460049 	beql	v0,a2,9d0091a4 <free+0x210>
9d009080:	8d030004 	lw	v1,4(t0)
9d009084:	8c440004 	lw	a0,4(v0)
9d009088:	7c040804 	ins	a0,zero,0x0,0x2
9d00908c:	0064202b 	sltu	a0,v1,a0
9d009090:	50800005 	beqzl	a0,9d0090a8 <free+0x114>
9d009094:	8c43000c 	lw	v1,12(v0)
9d009098:	8c420008 	lw	v0,8(v0)
9d00909c:	54c2fffa 	bnel	a2,v0,9d009088 <free+0xf4>
9d0090a0:	8c440004 	lw	a0,4(v0)
9d0090a4:	8c43000c 	lw	v1,12(v0)
9d0090a8:	aca3000c 	sw	v1,12(a1)
9d0090ac:	aca20008 	sw	v0,8(a1)
9d0090b0:	ac650008 	sw	a1,8(v1)
9d0090b4:	03e00008 	jr	ra
9d0090b8:	ac45000c 	sw	a1,12(v0)
9d0090bc:	3c06a001 	lui	a2,0xa001
9d0090c0:	24c6a934 	addiu	a2,a2,-22220
9d0090c4:	5486ffd9 	bnel	a0,a2,9d00902c <free+0x98>
9d0090c8:	8c42000c 	lw	v0,12(v0)
9d0090cc:	34660001 	ori	a2,v1,0x1
9d0090d0:	00a31021 	addu	v0,a1,v1
9d0090d4:	ad050014 	sw	a1,20(t0)
9d0090d8:	ad050010 	sw	a1,16(t0)
9d0090dc:	aca4000c 	sw	a0,12(a1)
9d0090e0:	aca40008 	sw	a0,8(a1)
9d0090e4:	aca60004 	sw	a2,4(a1)
9d0090e8:	03e00008 	jr	ra
9d0090ec:	ac430000 	sw	v1,0(v0)
9d0090f0:	000310c0 	sll	v0,v1,0x3
9d0090f4:	01021021 	addu	v0,t0,v0
9d0090f8:	8d060004 	lw	a2,4(t0)
9d0090fc:	8c440008 	lw	a0,8(v0)
9d009100:	00031883 	sra	v1,v1,0x2
9d009104:	24070001 	li	a3,1
9d009108:	00671804 	sllv	v1,a3,v1
9d00910c:	00661825 	or	v1,v1,a2
9d009110:	aca2000c 	sw	v0,12(a1)
9d009114:	aca40008 	sw	a0,8(a1)
9d009118:	ad030004 	sw	v1,4(t0)
9d00911c:	ac450008 	sw	a1,8(v0)
9d009120:	03e00008 	jr	ra
9d009124:	ac85000c 	sw	a1,12(a0)
9d009128:	14c00008 	bnez	a2,9d00914c <free+0x1b8>
9d00912c:	00e33821 	addu	a3,a3,v1
9d009130:	8c84fff8 	lw	a0,-8(a0)
9d009134:	00a42823 	subu	a1,a1,a0
9d009138:	8ca2000c 	lw	v0,12(a1)
9d00913c:	8ca30008 	lw	v1,8(a1)
9d009140:	00e43821 	addu	a3,a3,a0
9d009144:	ac62000c 	sw	v0,12(v1)
9d009148:	ac430008 	sw	v1,8(v0)
9d00914c:	3c02a001 	lui	v0,0xa001
9d009150:	8c42a928 	lw	v0,-22232(v0)
9d009154:	34e30001 	ori	v1,a3,0x1
9d009158:	aca30004 	sw	v1,4(a1)
9d00915c:	00e2382b 	sltu	a3,a3,v0
9d009160:	10e00003 	beqz	a3,9d009170 <free+0x1dc>
9d009164:	ad050008 	sw	a1,8(t0)
9d009168:	03e00008 	jr	ra
9d00916c:	00000000 	nop
9d009170:	27bdffe8 	addiu	sp,sp,-24
9d009174:	afbf0014 	sw	ra,20(sp)
9d009178:	3c02a001 	lui	v0,0xa001
9d00917c:	0f402b34 	jal	9d00acd0 <malloc_trim>
9d009180:	8c44aec0 	lw	a0,-20800(v0)
9d009184:	8fbf0014 	lw	ra,20(sp)
9d009188:	03e00008 	jr	ra
9d00918c:	27bd0018 	addiu	sp,sp,24
9d009190:	5080000b 	beqzl	a0,9d0091c0 <free+0x22c>
9d009194:	2c440055 	sltiu	a0,v0,85
9d009198:	2444005b 	addiu	a0,v0,91
9d00919c:	0b40241c 	j	9d009070 <free+0xdc>
9d0091a0:	00043040 	sll	a2,a0,0x1
9d0091a4:	00042083 	sra	a0,a0,0x2
9d0091a8:	24060001 	li	a2,1
9d0091ac:	00862004 	sllv	a0,a2,a0
9d0091b0:	00831825 	or	v1,a0,v1
9d0091b4:	ad030004 	sw	v1,4(t0)
9d0091b8:	0b40242a 	j	9d0090a8 <free+0x114>
9d0091bc:	00401821 	move	v1,v0
9d0091c0:	50800005 	beqzl	a0,9d0091d8 <free+0x244>
9d0091c4:	2c440155 	sltiu	a0,v0,341
9d0091c8:	00032302 	srl	a0,v1,0xc
9d0091cc:	2484006e 	addiu	a0,a0,110
9d0091d0:	0b40241c 	j	9d009070 <free+0xdc>
9d0091d4:	00043040 	sll	a2,a0,0x1
9d0091d8:	10800005 	beqz	a0,9d0091f0 <free+0x25c>
9d0091dc:	2c420555 	sltiu	v0,v0,1365
9d0091e0:	000323c2 	srl	a0,v1,0xf
9d0091e4:	24840077 	addiu	a0,a0,119
9d0091e8:	0b40241c 	j	9d009070 <free+0xdc>
9d0091ec:	00043040 	sll	a2,a0,0x1
9d0091f0:	50400005 	beqzl	v0,9d009208 <free+0x274>
9d0091f4:	240600fc 	li	a2,252
9d0091f8:	00032482 	srl	a0,v1,0x12
9d0091fc:	2484007c 	addiu	a0,a0,124
9d009200:	0b40241c 	j	9d009070 <free+0xdc>
9d009204:	00043040 	sll	a2,a0,0x1
9d009208:	0b40241c 	j	9d009070 <free+0xdc>
9d00920c:	2404007e 	li	a0,126

Disassembly of section .text.strtol:

9d009210 <strtol>:
9d009210:	80820000 	lb	v0,0(a0)
9d009214:	1040008a 	beqz	v0,9d009440 <strtol+0x230>
9d009218:	00001821 	move	v1,zero
9d00921c:	3c089d01 	lui	t0,0x9d01
9d009220:	2508abcd 	addiu	t0,t0,-21555
9d009224:	01021821 	addu	v1,t0,v0
9d009228:	80630000 	lb	v1,0(v1)
9d00922c:	30630088 	andi	v1,v1,0x88
9d009230:	14600007 	bnez	v1,9d009250 <strtol+0x40>
9d009234:	00803821 	move	a3,a0
9d009238:	0b4024ec 	j	9d0093b0 <strtol+0x1a0>
9d00923c:	2403002b 	li	v1,43
9d009240:	80630000 	lb	v1,0(v1)
9d009244:	30630088 	andi	v1,v1,0x88
9d009248:	50600059 	beqzl	v1,9d0093b0 <strtol+0x1a0>
9d00924c:	2403002b 	li	v1,43
9d009250:	24e70001 	addiu	a3,a3,1
9d009254:	80e20000 	lb	v0,0(a3)
9d009258:	1440fff9 	bnez	v0,9d009240 <strtol+0x30>
9d00925c:	01021821 	addu	v1,t0,v0
9d009260:	00001821 	move	v1,zero
9d009264:	0000c021 	move	t8,zero
9d009268:	14c00042 	bnez	a2,9d009374 <strtol+0x164>
9d00926c:	24020010 	li	v0,16
9d009270:	24020030 	li	v0,48
9d009274:	10620060 	beq	v1,v0,9d0093f8 <strtol+0x1e8>
9d009278:	3c0d0ccc 	lui	t5,0xccc
9d00927c:	35adcccc 	ori	t5,t5,0xcccc
9d009280:	00005821 	move	t3,zero
9d009284:	2406000a 	li	a2,10
9d009288:	24e7ffff 	addiu	a3,a3,-1
9d00928c:	00005021 	move	t2,zero
9d009290:	00001021 	move	v0,zero
9d009294:	3c0c9d01 	lui	t4,0x9d01
9d009298:	258cabcd 	addiu	t4,t4,-21555
9d00929c:	240f0061 	li	t7,97
9d0092a0:	240e0041 	li	t6,65
9d0092a4:	3c197fff 	lui	t9,0x7fff
9d0092a8:	3739ffff 	ori	t9,t9,0xffff
9d0092ac:	10600019 	beqz	v1,9d009314 <strtol+0x104>
9d0092b0:	24e70001 	addiu	a3,a3,1
9d0092b4:	006c4021 	addu	t0,v1,t4
9d0092b8:	91080000 	lbu	t0,0(t0)
9d0092bc:	31090004 	andi	t1,t0,0x4
9d0092c0:	11200023 	beqz	t1,9d009350 <strtol+0x140>
9d0092c4:	31090003 	andi	t1,t0,0x3
9d0092c8:	2463ffd0 	addiu	v1,v1,-48
9d0092cc:	04600011 	bltz	v1,9d009314 <strtol+0x104>
9d0092d0:	0066402a 	slt	t0,v1,a2
9d0092d4:	1100000f 	beqz	t0,9d009314 <strtol+0x104>
9d0092d8:	01a2402a 	slt	t0,t5,v0
9d0092dc:	55000019 	bnezl	t0,9d009344 <strtol+0x134>
9d0092e0:	240a0001 	li	t2,1
9d0092e4:	55400017 	bnezl	t2,9d009344 <strtol+0x134>
9d0092e8:	240a0001 	li	t2,1
9d0092ec:	70461002 	mul	v0,v0,a2
9d0092f0:	03224023 	subu	t0,t9,v0
9d0092f4:	0103402a 	slt	t0,t0,v1
9d0092f8:	55000012 	bnezl	t0,9d009344 <strtol+0x134>
9d0092fc:	240a0001 	li	t2,1
9d009300:	00431021 	addu	v0,v0,v1
9d009304:	80e30001 	lb	v1,1(a3)
9d009308:	240b0001 	li	t3,1
9d00930c:	1460ffe9 	bnez	v1,9d0092b4 <strtol+0xa4>
9d009310:	24e70001 	addiu	a3,a3,1
9d009314:	1300001f 	beqz	t8,9d009394 <strtol+0x184>
9d009318:	00000000 	nop
9d00931c:	11400005 	beqz	t2,9d009334 <strtol+0x124>
9d009320:	00021023 	negu	v0,v0
9d009324:	24030022 	li	v1,34
9d009328:	3c02a000 	lui	v0,0xa000
9d00932c:	ac430054 	sw	v1,84(v0)
9d009330:	3c028000 	lui	v0,0x8000
9d009334:	10a0000d 	beqz	a1,9d00936c <strtol+0x15c>
9d009338:	008b380a 	movz	a3,a0,t3
9d00933c:	03e00008 	jr	ra
9d009340:	aca70000 	sw	a3,0(a1)
9d009344:	80e30001 	lb	v1,1(a3)
9d009348:	0b4024c3 	j	9d00930c <strtol+0xfc>
9d00934c:	240b0001 	li	t3,1
9d009350:	1120fff0 	beqz	t1,9d009314 <strtol+0x104>
9d009354:	31080001 	andi	t0,t0,0x1
9d009358:	01c04821 	move	t1,t6
9d00935c:	01e8480a 	movz	t1,t7,t0
9d009360:	00691823 	subu	v1,v1,t1
9d009364:	0b4024b3 	j	9d0092cc <strtol+0xbc>
9d009368:	2463000a 	addiu	v1,v1,10
9d00936c:	03e00008 	jr	ra
9d009370:	00000000 	nop
9d009374:	10c2001a 	beq	a2,v0,9d0093e0 <strtol+0x1d0>
9d009378:	3c0d7fff 	lui	t5,0x7fff
9d00937c:	35adffff 	ori	t5,t5,0xffff
9d009380:	01a6001a 	div	zero,t5,a2
9d009384:	00c001f4 	teq	a2,zero,0x7
9d009388:	00006812 	mflo	t5
9d00938c:	0b4024a2 	j	9d009288 <strtol+0x78>
9d009390:	00005821 	move	t3,zero
9d009394:	1140ffe7 	beqz	t2,9d009334 <strtol+0x124>
9d009398:	24030022 	li	v1,34
9d00939c:	3c02a000 	lui	v0,0xa000
9d0093a0:	ac430054 	sw	v1,84(v0)
9d0093a4:	3c027fff 	lui	v0,0x7fff
9d0093a8:	0b4024cd 	j	9d009334 <strtol+0x124>
9d0093ac:	3442ffff 	ori	v0,v0,0xffff
9d0093b0:	54430006 	bnel	v0,v1,9d0093cc <strtol+0x1bc>
9d0093b4:	2403002d 	li	v1,45
9d0093b8:	3842002d 	xori	v0,v0,0x2d
9d0093bc:	80e30001 	lb	v1,1(a3)
9d0093c0:	2c580001 	sltiu	t8,v0,1
9d0093c4:	0b40249a 	j	9d009268 <strtol+0x58>
9d0093c8:	24e70001 	addiu	a3,a3,1
9d0093cc:	5043fffb 	beql	v0,v1,9d0093bc <strtol+0x1ac>
9d0093d0:	3842002d 	xori	v0,v0,0x2d
9d0093d4:	80e30000 	lb	v1,0(a3)
9d0093d8:	0b40249a 	j	9d009268 <strtol+0x58>
9d0093dc:	0000c021 	move	t8,zero
9d0093e0:	24020030 	li	v0,48
9d0093e4:	10620019 	beq	v1,v0,9d00944c <strtol+0x23c>
9d0093e8:	3c0d07ff 	lui	t5,0x7ff
9d0093ec:	35adffff 	ori	t5,t5,0xffff
9d0093f0:	0b4024a2 	j	9d009288 <strtol+0x78>
9d0093f4:	00005821 	move	t3,zero
9d0093f8:	80e30001 	lb	v1,1(a3)
9d0093fc:	2402ffdf 	li	v0,-33
9d009400:	00623024 	and	a2,v1,v0
9d009404:	24020058 	li	v0,88
9d009408:	50c20007 	beql	a2,v0,9d009428 <strtol+0x218>
9d00940c:	80e30002 	lb	v1,2(a3)
9d009410:	24e70001 	addiu	a3,a3,1
9d009414:	3c0d0fff 	lui	t5,0xfff
9d009418:	35adffff 	ori	t5,t5,0xffff
9d00941c:	240b0001 	li	t3,1
9d009420:	0b4024a2 	j	9d009288 <strtol+0x78>
9d009424:	24060008 	li	a2,8
9d009428:	3c0d07ff 	lui	t5,0x7ff
9d00942c:	35adffff 	ori	t5,t5,0xffff
9d009430:	24e70002 	addiu	a3,a3,2
9d009434:	240b0001 	li	t3,1
9d009438:	0b4024a2 	j	9d009288 <strtol+0x78>
9d00943c:	24060010 	li	a2,16
9d009440:	00803821 	move	a3,a0
9d009444:	0b40249a 	j	9d009268 <strtol+0x58>
9d009448:	0000c021 	move	t8,zero
9d00944c:	80e30001 	lb	v1,1(a3)
9d009450:	2402ffdf 	li	v0,-33
9d009454:	00624024 	and	t0,v1,v0
9d009458:	24020058 	li	v0,88
9d00945c:	51020006 	beql	t0,v0,9d009478 <strtol+0x268>
9d009460:	80e30002 	lb	v1,2(a3)
9d009464:	24e70001 	addiu	a3,a3,1
9d009468:	3c0d07ff 	lui	t5,0x7ff
9d00946c:	35adffff 	ori	t5,t5,0xffff
9d009470:	0b4024a2 	j	9d009288 <strtol+0x78>
9d009474:	240b0001 	li	t3,1
9d009478:	3c0d07ff 	lui	t5,0x7ff
9d00947c:	35adffff 	ori	t5,t5,0xffff
9d009480:	24e70002 	addiu	a3,a3,2
9d009484:	0b4024a2 	j	9d009288 <strtol+0x78>
9d009488:	240b0001 	li	t3,1

Disassembly of section .text.fpsubadd:

9d00948c <__subsf3>:
9d00948c:	3c018000 00a12826                       ...<&(..

9d009494 <__addsf3>:
9d009494:	00044dc2 312900ff 00055dc2 316b00ff     .M....)1.]....k1
9d0094a4:	3c078000 00044200 01074025 00055200     ...<.B..%@...R..
9d0094b4:	01475025 252dffff 2da100fe 10200061     %PG...-%...-a. .
9d0094c4:	00000000                                ....

9d0094c8 <Blab1>:
9d0094c8:	256dffff 	addiu	t5,t3,-1
9d0094cc:	2da100fe 	sltiu	at,t5,254
9d0094d0:	10200077 	beqz	at,9d0096b0 <BspecB>
9d0094d4:	00000000 	nop

9d0094d8 <Blab2>:
9d0094d8:	012b6023 	subu	t4,t1,t3
9d0094dc:	0580000d 	bltz	t4,9d009514 <i1>
9d0094e0:	00000000 	nop
9d0094e4:	29810020 	slti	at,t4,32
9d0094e8:	14200003 	bnez	at,9d0094f8 <i2>
9d0094ec:	00000000 	nop
9d0094f0:	10000015 	b	9d009548 <e1>
9d0094f4:	240a0002 	li	t2,2

9d0094f8 <i2>:
9d0094f8:	000a3025 	or	a2,zero,t2
9d0094fc:	018a5006 	srlv	t2,t2,t4
9d009500:	018a6804 	sllv	t5,t2,t4
9d009504:	11a60010 	beq	t5,a2,9d009548 <e1>
9d009508:	00000000 	nop
9d00950c:	1000000e 	b	9d009548 <e1>
9d009510:	354a0002 	ori	t2,t2,0x2

9d009514 <i1>:
9d009514:	000b4825 	or	t1,zero,t3
9d009518:	000c6023 	negu	t4,t4
9d00951c:	29810020 	slti	at,t4,32
9d009520:	14200003 	bnez	at,9d009530 <i4>
9d009524:	00000000 	nop
9d009528:	10000007 	b	9d009548 <e1>
9d00952c:	24080002 	li	t0,2

9d009530 <i4>:
9d009530:	00083025 	or	a2,zero,t0
9d009534:	01884006 	srlv	t0,t0,t4
9d009538:	01886804 	sllv	t5,t0,t4
9d00953c:	11a60002 	beq	t5,a2,9d009548 <e1>
9d009540:	00000000 	nop
9d009544:	35080002 	ori	t0,t0,0x2

9d009548 <e1>:
9d009548:	00876024 	and	t4,a0,a3
9d00954c:	01856826 	xor	t5,t4,a1
9d009550:	05a00010 	bltz	t5,9d009594 <Bsub1>
9d009554:	00000000 	nop
9d009558:	010a4021 	addu	t0,t0,t2
9d00955c:	010a682b 	sltu	t5,t0,t2
9d009560:	11a00017 	beqz	t5,9d0095c0 <Bres>
9d009564:	00000000 	nop
9d009568:	310d0001 	andi	t5,t0,0x1
9d00956c:	11a00002 	beqz	t5,9d009578 <i7>
9d009570:	00000000 	nop
9d009574:	35080002 	ori	t0,t0,0x2

9d009578 <i7>:
9d009578:	00084042 	srl	t0,t0,0x1
9d00957c:	25290001 	addiu	t1,t1,1
9d009580:	240100ff 	li	at,255
9d009584:	1521000e 	bne	t1,at,9d0095c0 <Bres>
9d009588:	00000000 	nop
9d00958c:	1000000c 	b	9d0095c0 <Bres>
9d009590:	24080000 	li	t0,0

9d009594 <Bsub1>:
9d009594:	010a682b 	sltu	t5,t0,t2
9d009598:	11a00004 	beqz	t5,9d0095ac <i9>
9d00959c:	010a4023 	subu	t0,t0,t2
9d0095a0:	00084023 	negu	t0,t0
9d0095a4:	10000003 	b	9d0095b4 <e9>
9d0095a8:	01876026 	xor	t4,t4,a3

9d0095ac <i9>:
9d0095ac:	11000050 	beqz	t0,9d0096f0 <Bzer>
9d0095b0:	00000000 	nop

9d0095b4 <e9>:
9d0095b4:	71063020 	clz	a2,t0
9d0095b8:	01264823 	subu	t1,t1,a2
9d0095bc:	00c84004 	sllv	t0,t0,a2

9d0095c0 <Bres>:
9d0095c0:	1920000e 	blez	t1,9d0095fc <Bund>
9d0095c4:	00000000 	nop

9d0095c8 <Blab12>:
9d0095c8:	25080080 	addiu	t0,t0,128
9d0095cc:	2d0d0080 	sltiu	t5,t0,128
9d0095d0:	012d4821 	addu	t1,t1,t5
9d0095d4:	00086a02 	srl	t5,t0,0x8
9d0095d8:	31ad0001 	andi	t5,t5,0x1
9d0095dc:	010d4023 	subu	t0,t0,t5
9d0095e0:	00084040 	sll	t0,t0,0x1
9d0095e4:	00084242 	srl	t0,t0,0x9
9d0095e8:	00096dc0 	sll	t5,t1,0x17
9d0095ec:	010d4025 	or	t0,t0,t5
9d0095f0:	010c1025 	or	v0,t0,t4

9d0095f4 <B999>:
9d0095f4:	03e00008 	jr	ra
9d0095f8:	00000000 	nop

9d0095fc <Bund>:
9d0095fc:	24060001 	li	a2,1
9d009600:	00c93023 	subu	a2,a2,t1
9d009604:	2cc10020 	sltiu	at,a2,32
9d009608:	10200039 	beqz	at,9d0096f0 <Bzer>
9d00960c:	00000000 	nop
9d009610:	3c018000 	lui	at,0x8000
9d009614:	01014025 	or	t0,t0,at
9d009618:	240d0020 	li	t5,32
9d00961c:	01a66823 	subu	t5,t5,a2
9d009620:	01a84804 	sllv	t1,t0,t5
9d009624:	11200002 	beqz	t1,9d009630 <i10>
9d009628:	00c84006 	srlv	t0,t0,a2
9d00962c:	35080001 	ori	t0,t0,0x1

9d009630 <i10>:
9d009630:	24090000 	li	t1,0
9d009634:	250d0080 	addiu	t5,t0,128
9d009638:	05a1ffe3 	bgez	t5,9d0095c8 <Blab12>
9d00963c:	00000000 	nop
9d009640:	1000ffe1 	b	9d0095c8 <Blab12>
9d009644:	24090001 	li	t1,1

9d009648 <BspecA>:
9d009648:	1520000e 	bnez	t1,9d009684 <i12>
9d00964c:	00000000 	nop
9d009650:	01084021 	addu	t0,t0,t0
9d009654:	11000005 	beqz	t0,9d00966c <i13>
9d009658:	00000000 	nop
9d00965c:	710c6020 	clz	t4,t0
9d009660:	012c4823 	subu	t1,t1,t4
9d009664:	1000ff98 	b	9d0094c8 <Blab1>
9d009668:	01884004 	sllv	t0,t0,t4

9d00966c <i13>:
9d00966c:	240100ff 	li	at,255
9d009670:	1161000f 	beq	t3,at,9d0096b0 <BspecB>
9d009674:	00000000 	nop
9d009678:	3c018000 	lui	at,0x8000
9d00967c:	14a10018 	bne	a1,at,9d0096e0 <BretB>
9d009680:	00000000 	nop

9d009684 <i12>:
9d009684:	01086821 	addu	t5,t0,t0
9d009688:	15a0001b 	bnez	t5,9d0096f8 <Bnan>
9d00968c:	00000000 	nop
9d009690:	240100ff 	li	at,255
9d009694:	15610014 	bne	t3,at,9d0096e8 <BretA>
9d009698:	00000000 	nop
9d00969c:	00856826 	xor	t5,a0,a1
9d0096a0:	05a00015 	bltz	t5,9d0096f8 <Bnan>
9d0096a4:	00000000 	nop
9d0096a8:	1000000d 	b	9d0096e0 <BretB>
9d0096ac:	00000000 	nop

9d0096b0 <BspecB>:
9d0096b0:	15600008 	bnez	t3,9d0096d4 <i15>
9d0096b4:	00000000 	nop
9d0096b8:	014a5021 	addu	t2,t2,t2
9d0096bc:	1140000a 	beqz	t2,9d0096e8 <BretA>
9d0096c0:	00000000 	nop
9d0096c4:	714c6020 	clz	t4,t2
9d0096c8:	016c5823 	subu	t3,t3,t4
9d0096cc:	1000ff82 	b	9d0094d8 <Blab2>
9d0096d0:	018a5004 	sllv	t2,t2,t4

9d0096d4 <i15>:
9d0096d4:	014a6821 	addu	t5,t2,t2
9d0096d8:	15a00007 	bnez	t5,9d0096f8 <Bnan>
9d0096dc:	00000000 	nop

9d0096e0 <BretB>:
9d0096e0:	1000ffc4 	b	9d0095f4 <B999>
9d0096e4:	00051025 	or	v0,zero,a1

9d0096e8 <BretA>:
9d0096e8:	1000ffc2 	b	9d0095f4 <B999>
9d0096ec:	00041025 	or	v0,zero,a0

9d0096f0 <Bzer>:
9d0096f0:	1000ffc0 	b	9d0095f4 <B999>
9d0096f4:	24020000 	li	v0,0

9d0096f8 <Bnan>:
9d0096f8:	1000ffbe 	b	9d0095f4 <B999>
9d0096fc:	3c02ffc0 	lui	v0,0xffc0
9d009700:	00000000 	nop

Disassembly of section .text.fp32div:

9d009704 <__divsf3>:
9d009704:	3c0b8000 000445c2 310800ff 000555c2     ...<.E.....1.U..
9d009714:	314a00ff 00043a00 00eb3825 00054a00     ..J1.:..%8...J..
9d009724:	012b4825 00857026 016e5824 250effff     %H+.&p..$Xn....%
9d009734:	2dc100fe 1020003f 00000000              ...-?. .....

9d009740 <Dlab1>:
9d009740:	254effff 	addiu	t6,t2,-1
9d009744:	2dc100fe 	sltiu	at,t6,254
9d009748:	10200053 	beqz	at,9d009898 <DspecB>
9d00974c:	00000000 	nop

9d009750 <Dlab2>:
9d009750:	00e9082b 	sltu	at,a3,t1
9d009754:	14200003 	bnez	at,9d009764 <i27>
9d009758:	00000000 	nop
9d00975c:	00073842 	srl	a3,a3,0x1
9d009760:	25080001 	addiu	t0,t0,1

9d009764 <i27>:
9d009764:	00096382 	srl	t4,t1,0xe
9d009768:	018001f4 	teq	t4,zero,0x7
9d00976c:	00ec001b 	divu	zero,a3,t4
9d009770:	00002012 	mflo	a0
9d009774:	00003010 	mfhi	a2
9d009778:	312d3fff 	andi	t5,t1,0x3fff
9d00977c:	01a40019 	multu	t5,a0
9d009780:	00002812 	mflo	a1
9d009784:	00063380 	sll	a2,a2,0xe
9d009788:	00c5702b 	sltu	t6,a2,a1
9d00978c:	11c00004 	beqz	t6,9d0097a0 <i28>
9d009790:	00c53023 	subu	a2,a2,a1
9d009794:	2484ffff 	addiu	a0,a0,-1
9d009798:	00c93021 	addu	a2,a2,t1
9d00979c:	00c9702b 	sltu	t6,a2,t1

9d0097a0 <i28>:
9d0097a0:	018001f4 	teq	t4,zero,0x7
9d0097a4:	00cc001b 	divu	zero,a2,t4
9d0097a8:	00003812 	mflo	a3
9d0097ac:	00003010 	mfhi	a2
9d0097b0:	01a70019 	multu	t5,a3
9d0097b4:	00002812 	mflo	a1
9d0097b8:	00063380 	sll	a2,a2,0xe
9d0097bc:	00c5702b 	sltu	t6,a2,a1
9d0097c0:	11c00004 	beqz	t6,9d0097d4 <i29>
9d0097c4:	00c53023 	subu	a2,a2,a1
9d0097c8:	24e7ffff 	addiu	a3,a3,-1
9d0097cc:	00c93021 	addu	a2,a2,t1
9d0097d0:	00c9702b 	sltu	t6,a2,t1

9d0097d4 <i29>:
9d0097d4:	00047380 	sll	t6,a0,0xe
9d0097d8:	00ee3821 	addu	a3,a3,t6
9d0097dc:	10c00002 	beqz	a2,9d0097e8 <i30>
9d0097e0:	00073900 	sll	a3,a3,0x4
9d0097e4:	34e70001 	ori	a3,a3,0x1

9d0097e8 <i30>:
9d0097e8:	240e007e 	li	t6,126
9d0097ec:	01ca7023 	subu	t6,t6,t2
9d0097f0:	010e4021 	addu	t0,t0,t6
9d0097f4:	250effff 	addiu	t6,t0,-1
9d0097f8:	2dc100fe 	sltiu	at,t6,254
9d0097fc:	10200034 	beqz	at,9d0098d0 <Doveund>
9d009800:	00000000 	nop

9d009804 <Dlab8>:
9d009804:	24e70080 	addiu	a3,a3,128
9d009808:	2cee0080 	sltiu	t6,a3,128
9d00980c:	010e4021 	addu	t0,t0,t6
9d009810:	00077202 	srl	t6,a3,0x8
9d009814:	31ce0001 	andi	t6,t6,0x1
9d009818:	00ee3823 	subu	a3,a3,t6
9d00981c:	00073840 	sll	a3,a3,0x1
9d009820:	00073a42 	srl	a3,a3,0x9
9d009824:	000875c0 	sll	t6,t0,0x17
9d009828:	00ee3825 	or	a3,a3,t6
9d00982c:	00eb1025 	or	v0,a3,t3

9d009830 <D999>:
9d009830:	03e00008 	jr	ra
9d009834:	00000000 	nop

9d009838 <DspecA>:
9d009838:	15000008 	bnez	t0,9d00985c <i31>
9d00983c:	00000000 	nop
9d009840:	00e73821 	addu	a3,a3,a3
9d009844:	10e00005 	beqz	a3,9d00985c <i31>
9d009848:	00000000 	nop
9d00984c:	70ec6020 	clz	t4,a3
9d009850:	010c4023 	subu	t0,t0,t4
9d009854:	1000ffba 	b	9d009740 <Dlab1>
9d009858:	01873804 	sllv	a3,a3,t4

9d00985c <i31>:
9d00985c:	15480004 	bne	t2,t0,9d009870 <i33>
9d009860:	00000000 	nop
9d009864:	01297021 	addu	t6,t1,t1
9d009868:	11c0002f 	beqz	t6,9d009928 <Dnan>
9d00986c:	00000000 	nop

9d009870 <i33>:
9d009870:	240100ff 	li	at,255
9d009874:	11410008 	beq	t2,at,9d009898 <DspecB>
9d009878:	00000000 	nop
9d00987c:	11000012 	beqz	t0,9d0098c8 <Dzer>
9d009880:	00000000 	nop
9d009884:	00e77021 	addu	t6,a3,a3
9d009888:	15c00027 	bnez	t6,9d009928 <Dnan>
9d00988c:	00000000 	nop
9d009890:	10000022 	b	9d00991c <Dinf>
9d009894:	00000000 	nop

9d009898 <DspecB>:
9d009898:	15400008 	bnez	t2,9d0098bc <i34>
9d00989c:	00000000 	nop
9d0098a0:	01294821 	addu	t1,t1,t1
9d0098a4:	1120001d 	beqz	t1,9d00991c <Dinf>
9d0098a8:	00000000 	nop
9d0098ac:	712c6020 	clz	t4,t1
9d0098b0:	014c5023 	subu	t2,t2,t4
9d0098b4:	1000ffa6 	b	9d009750 <Dlab2>
9d0098b8:	01894804 	sllv	t1,t1,t4

9d0098bc <i34>:
9d0098bc:	01297021 	addu	t6,t1,t1
9d0098c0:	15c00019 	bnez	t6,9d009928 <Dnan>
9d0098c4:	00000000 	nop

9d0098c8 <Dzer>:
9d0098c8:	1000ffd9 	b	9d009830 <D999>
9d0098cc:	000b1025 	or	v0,zero,t3

9d0098d0 <Doveund>:
9d0098d0:	1d000012 	bgtz	t0,9d00991c <Dinf>
9d0098d4:	00000000 	nop
9d0098d8:	240c0001 	li	t4,1
9d0098dc:	01886023 	subu	t4,t4,t0
9d0098e0:	2d810020 	sltiu	at,t4,32
9d0098e4:	1020fff8 	beqz	at,9d0098c8 <Dzer>
9d0098e8:	00000000 	nop
9d0098ec:	240e0020 	li	t6,32
9d0098f0:	01cc7023 	subu	t6,t6,t4
9d0098f4:	01c74004 	sllv	t0,a3,t6
9d0098f8:	11000002 	beqz	t0,9d009904 <i37>
9d0098fc:	01873806 	srlv	a3,a3,t4
9d009900:	34e70002 	ori	a3,a3,0x2

9d009904 <i37>:
9d009904:	24080000 	li	t0,0
9d009908:	24ee0080 	addiu	t6,a3,128
9d00990c:	05c1ffbd 	bgez	t6,9d009804 <Dlab8>
9d009910:	00000000 	nop
9d009914:	1000ffbb 	b	9d009804 <Dlab8>
9d009918:	24080001 	li	t0,1

9d00991c <Dinf>:
9d00991c:	3c017f80 	lui	at,0x7f80
9d009920:	1000ffc3 	b	9d009830 <D999>
9d009924:	01611025 	or	v0,t3,at

9d009928 <Dnan>:
9d009928:	1000ffc1 	b	9d009830 <D999>
9d00992c:	3c02ffc0 	lui	v0,0xffc0
9d009930:	00000000 	nop

Disassembly of section .text:

9d009934 <display>:

#include <stdio.h>
#include <xc.h>


int display(char* msg) {
9d009934:	27bdffe8 	addiu	sp,sp,-24
9d009938:	afbf0014 	sw	ra,20(sp)
9d00993c:	afb00010 	sw	s0,16(sp)
  LCD_Clear();                    
9d009940:	0f401be9 	jal	9d006fa4 <LCD_Clear>
9d009944:	00808021 	move	s0,a0

9d009948 <.LVL1>:
  LCD_Move(0,0);
9d009948:	00002021 	move	a0,zero
9d00994c:	0f401c29 	jal	9d0070a4 <LCD_Move>
9d009950:	00002821 	move	a1,zero

9d009954 <.LVL2>:
  // sprintf(msg);          // print to LCD
  LCD_WriteString(msg);
9d009954:	0f401c45 	jal	9d007114 <LCD_WriteString>
9d009958:	02002021 	move	a0,s0

9d00995c <.LVL3>:
}
9d00995c:	8fbf0014 	lw	ra,20(sp)
9d009960:	8fb00010 	lw	s0,16(sp)
9d009964:	03e00008 	jr	ra
9d009968:	27bd0018 	addiu	sp,sp,24

9d00996c <get_mode>:

modes get_mode(modes m){
9d00996c:	27bdffc8 	addiu	sp,sp,-56
9d009970:	afbf0034 	sw	ra,52(sp)
9d009974:	afb00030 	sw	s0,48(sp)
  char buffer[30];

  switch (m) {
9d009978:	2c820005 	sltiu	v0,a0,5
9d00997c:	10400059 	beqz	v0,9d009ae4 <.LVL19>
9d009980:	00808021 	move	s0,a0
9d009984:	00041880 	sll	v1,a0,0x2
9d009988:	3c029d01 	lui	v0,0x9d01
9d00998c:	244299a0 	addiu	v0,v0,-26208
9d009990:	00431021 	addu	v0,v0,v1
9d009994:	8c420000 	lw	v0,0(v0)
9d009998:	00400008 	jr	v0
9d00999c:	00000000 	nop
9d0099a0:	9d0099b4 	0x9d0099b4
9d0099a4:	9d0099f4 	0x9d0099f4
9d0099a8:	9d009a2c 	0x9d009a2c
9d0099ac:	9d009a6c 	0x9d009a6c
9d0099b0:	9d009aac 	0x9d009aac

    case IDLE: {                    // In IDLE mode, the PIC32 puts the H-bridge in 
                                    // brake mode, with zero voltage across the motor
      sprintf(buffer,"Mode set: IDLE\r\n");
9d0099b4:	3c029d01 	lui	v0,0x9d01
9d0099b8:	8c46c1a0 	lw	a2,-15968(v0)
9d0099bc:	2442c1a0 	addiu	v0,v0,-15968
9d0099c0:	8c450004 	lw	a1,4(v0)
9d0099c4:	8c440008 	lw	a0,8(v0)
9d0099c8:	8c43000c 	lw	v1,12(v0)
9d0099cc:	afa60010 	sw	a2,16(sp)
9d0099d0:	afa50014 	sw	a1,20(sp)
9d0099d4:	afa40018 	sw	a0,24(sp)
9d0099d8:	afa3001c 	sw	v1,28(sp)
9d0099dc:	90420010 	lbu	v0,16(v0)
9d0099e0:	a3a20020 	sb	v0,32(sp)
      NU32_WriteUART3(buffer);            
9d0099e4:	0f402720 	jal	9d009c80 <NU32_WriteUART3>
9d0099e8:	27a40010 	addiu	a0,sp,16

9d0099ec <.LVL7>:
      break;
9d0099ec:	0b4026ba 	j	9d009ae8 <.LVL19+0x4>
9d0099f0:	02001021 	move	v0,s0
    }

    case PWM: {                     // In PWM mode, the PIC32 implements a fxed 
                                    // PWM duty cycle, as requested by the user
      sprintf(buffer,"Mode set: PWM\r\n");
9d0099f4:	3c029d01 	lui	v0,0x9d01
9d0099f8:	8c45c1b4 	lw	a1,-15948(v0)
9d0099fc:	2442c1b4 	addiu	v0,v0,-15948
9d009a00:	8c440004 	lw	a0,4(v0)
9d009a04:	8c430008 	lw	v1,8(v0)
9d009a08:	8c42000c 	lw	v0,12(v0)
9d009a0c:	afa50010 	sw	a1,16(sp)
9d009a10:	afa40014 	sw	a0,20(sp)
9d009a14:	afa30018 	sw	v1,24(sp)
9d009a18:	afa2001c 	sw	v0,28(sp)
      NU32_WriteUART3(buffer);            
9d009a1c:	0f402720 	jal	9d009c80 <NU32_WriteUART3>
9d009a20:	27a40010 	addiu	a0,sp,16

9d009a24 <.LVL10>:
      break;
9d009a24:	0b4026ba 	j	9d009ae8 <.LVL19+0x4>
9d009a28:	02001021 	move	v0,s0
    }

    case ITEST: {                   // In ITEST mode, the PIC32 tests the current control
                                    // loop, without caring about the motion of the motor.
      sprintf(buffer,"Mode set: ITEST\r\n");
9d009a2c:	3c029d01 	lui	v0,0x9d01
9d009a30:	8c46c1c4 	lw	a2,-15932(v0)
9d009a34:	2442c1c4 	addiu	v0,v0,-15932
9d009a38:	8c450004 	lw	a1,4(v0)
9d009a3c:	8c440008 	lw	a0,8(v0)
9d009a40:	8c43000c 	lw	v1,12(v0)
9d009a44:	afa60010 	sw	a2,16(sp)
9d009a48:	afa50014 	sw	a1,20(sp)
9d009a4c:	afa40018 	sw	a0,24(sp)
9d009a50:	afa3001c 	sw	v1,28(sp)
9d009a54:	94420010 	lhu	v0,16(v0)
9d009a58:	a7a20020 	sh	v0,32(sp)
      NU32_WriteUART3(buffer);
9d009a5c:	0f402720 	jal	9d009c80 <NU32_WriteUART3>
9d009a60:	27a40010 	addiu	a0,sp,16

9d009a64 <.LVL13>:
      break;
9d009a64:	0b4026ba 	j	9d009ae8 <.LVL19+0x4>
9d009a68:	02001021 	move	v0,s0
    //   break;
    // }

    case HOLD: {                    // In HOLD mode, the PIC32 attempts to hold the motor
                                    // at the last position commanded by the user
      sprintf(buffer,"Mode set: HOLD\r\n");
9d009a6c:	3c029d01 	lui	v0,0x9d01
9d009a70:	8c46c1d8 	lw	a2,-15912(v0)
9d009a74:	2442c1d8 	addiu	v0,v0,-15912
9d009a78:	8c450004 	lw	a1,4(v0)
9d009a7c:	8c440008 	lw	a0,8(v0)
9d009a80:	8c43000c 	lw	v1,12(v0)
9d009a84:	afa60010 	sw	a2,16(sp)
9d009a88:	afa50014 	sw	a1,20(sp)
9d009a8c:	afa40018 	sw	a0,24(sp)
9d009a90:	afa3001c 	sw	v1,28(sp)
9d009a94:	90420010 	lbu	v0,16(v0)
9d009a98:	a3a20020 	sb	v0,32(sp)
      NU32_WriteUART3(buffer);
9d009a9c:	0f402720 	jal	9d009c80 <NU32_WriteUART3>
9d009aa0:	27a40010 	addiu	a0,sp,16

9d009aa4 <.LVL16>:
      break;
9d009aa4:	0b4026ba 	j	9d009ae8 <.LVL19+0x4>
9d009aa8:	02001021 	move	v0,s0
    }

    case TRACK: {                   // In TRACK mode, the PIC32 attempts to track a
                                    // reference motor trajectory specifed by the user
      sprintf(buffer,"Mode set: TRACK\r\n");
9d009aac:	3c029d01 	lui	v0,0x9d01
9d009ab0:	8c46c1ec 	lw	a2,-15892(v0)
9d009ab4:	2442c1ec 	addiu	v0,v0,-15892
9d009ab8:	8c450004 	lw	a1,4(v0)
9d009abc:	8c440008 	lw	a0,8(v0)
9d009ac0:	8c43000c 	lw	v1,12(v0)
9d009ac4:	afa60010 	sw	a2,16(sp)
9d009ac8:	afa50014 	sw	a1,20(sp)
9d009acc:	afa40018 	sw	a0,24(sp)
9d009ad0:	afa3001c 	sw	v1,28(sp)
9d009ad4:	94420010 	lhu	v0,16(v0)
9d009ad8:	a7a20020 	sh	v0,32(sp)
      NU32_WriteUART3(buffer);          
9d009adc:	0f402720 	jal	9d009c80 <NU32_WriteUART3>
9d009ae0:	27a40010 	addiu	a0,sp,16

9d009ae4 <.LVL19>:
      break;
    }
  }
  return m;
}
9d009ae4:	02001021 	move	v0,s0
9d009ae8:	8fbf0034 	lw	ra,52(sp)
9d009aec:	8fb00030 	lw	s0,48(sp)
9d009af0:	03e00008 	jr	ra
9d009af4:	27bd0038 	addiu	sp,sp,56

9d009af8 <NU32_Startup>:

// Perform startup routines:
//  Make NU32_LED1 and NU32_LED2 pins outputs (NU32_USER is by default an input)
//  Initialize the serial port - UART3 (no interrupt) 
//  Enable interrupts
void NU32_Startup() {
9d009af8:	27bdfff8 	addiu	sp,sp,-8
9d009afc:	afbf0004 	sw	ra,4(sp)
  // disable interrupts
  __builtin_disable_interrupts();
9d009b00:	41626000 	di	v0
9d009b04:	000000c0 	ehb
  // see Chapter 2 "CPU for Devices with M4K Core" of the PIC32 reference manual
  // most of the other bits have prescribed values
  // microchip does not provide a _CP0_SET_CONFIG macro, so we directly use
  // the compiler built-in command _mtc0
  // to disable cache, use 0xa4210582 
  __builtin_mtc0(_CP0_CONFIG, _CP0_CONFIG_SELECT, 0xa4210583); 
9d009b08:	3c02a421 	lui	v0,0xa421
9d009b0c:	24420583 	addiu	v0,v0,1411
9d009b10:	40828000 	mtc0	v0,c0_config
9d009b14:	000000c0 	ehb
  
  // set the prefectch cache wait state to 2, as per the
  // electrical characteristics data sheet
  CHECONbits.PFMWS = 0x2;   
9d009b18:	3c02bf88 	lui	v0,0xbf88
9d009b1c:	8c434000 	lw	v1,16384(v0)
9d009b20:	24050002 	li	a1,2
9d009b24:	7ca31004 	ins	v1,a1,0x0,0x3
9d009b28:	ac434000 	sw	v1,16384(v0)

  //enable prefetch for cacheable and noncacheable memory
  CHECONbits.PREFEN = 0x3; 
9d009b2c:	8c434000 	lw	v1,16384(v0)
9d009b30:	24040003 	li	a0,3
9d009b34:	7c832904 	ins	v1,a0,0x4,0x2
9d009b38:	ac434000 	sw	v1,16384(v0)

  // 0 data RAM access wait states
  BMXCONbits.BMXWSDRM = 0x0;
9d009b3c:	3c02bf88 	lui	v0,0xbf88
9d009b40:	8c432000 	lw	v1,8192(v0)
9d009b44:	7c033184 	ins	v1,zero,0x6,0x1
9d009b48:	ac432000 	sw	v1,8192(v0)
  
  // enable multi vector interrupts
  INTCONbits.MVEC = 0x1;
9d009b4c:	3c02bf88 	lui	v0,0xbf88
9d009b50:	8c461000 	lw	a2,4096(v0)
9d009b54:	24030001 	li	v1,1
9d009b58:	7c666304 	ins	a2,v1,0xc,0x1
9d009b5c:	ac461000 	sw	a2,4096(v0)

  // disable JTAG to get B10, B11, B12 and B13 back
  DDPCONbits.JTAGEN = 0;
9d009b60:	3c02bf81 	lui	v0,0xbf81
9d009b64:	9046f200 	lbu	a2,-3584(v0)
9d009b68:	7c0618c4 	ins	a2,zero,0x3,0x1
9d009b6c:	a046f200 	sb	a2,-3584(v0)

  TRISFCLR = 0x0003;  // Make F0 and F1 outputs (LED1 and LED2)
9d009b70:	3c02bf88 	lui	v0,0xbf88
9d009b74:	ac446144 	sw	a0,24900(v0)
  NU32_LED1 = 1;      // LED1 is off
9d009b78:	3c02bf88 	lui	v0,0xbf88
9d009b7c:	90446160 	lbu	a0,24928(v0)
9d009b80:	7c640004 	ins	a0,v1,0x0,0x1
9d009b84:	a0446160 	sb	a0,24928(v0)
  NU32_LED2 = 0;      // LED2 is on
9d009b88:	90446160 	lbu	a0,24928(v0)
9d009b8c:	7c040844 	ins	a0,zero,0x1,0x1
9d009b90:	a0446160 	sb	a0,24928(v0)

  // turn on UART3 without an interrupt
  U3MODEbits.BRGH = 0; // set baud to NU32_DESIRED_BAUD
9d009b94:	3c02bf80 	lui	v0,0xbf80
9d009b98:	94446400 	lhu	a0,25600(v0)
9d009b9c:	7c0418c4 	ins	a0,zero,0x3,0x1
9d009ba0:	a4446400 	sh	a0,25600(v0)
  U3BRG = ((NU32_SYS_FREQ / NU32_DESIRED_BAUD) / 16) - 1;
9d009ba4:	24060014 	li	a2,20
9d009ba8:	3c04bf80 	lui	a0,0xbf80
9d009bac:	ac866440 	sw	a2,25664(a0)

  // 8 bit, no parity bit, and 1 stop bit (8N1 setup)
  U3MODEbits.PDSEL = 0;
9d009bb0:	94446400 	lhu	a0,25600(v0)
9d009bb4:	7c041044 	ins	a0,zero,0x1,0x2
9d009bb8:	a4446400 	sh	a0,25600(v0)
  U3MODEbits.STSEL = 0;
9d009bbc:	94446400 	lhu	a0,25600(v0)
9d009bc0:	7c040004 	ins	a0,zero,0x0,0x1
9d009bc4:	a4446400 	sh	a0,25600(v0)

  // configure TX & RX pins as output & input pins
  U3STAbits.UTXEN = 1;
9d009bc8:	3c04bf80 	lui	a0,0xbf80
9d009bcc:	8c866410 	lw	a2,25616(a0)
9d009bd0:	7c665284 	ins	a2,v1,0xa,0x1
9d009bd4:	ac866410 	sw	a2,25616(a0)
  U3STAbits.URXEN = 1;
9d009bd8:	8c866410 	lw	a2,25616(a0)
9d009bdc:	7c666304 	ins	a2,v1,0xc,0x1
9d009be0:	ac866410 	sw	a2,25616(a0)
  // configure hardware flow control using RTS and CTS
  U3MODEbits.UEN = 2;
9d009be4:	94446400 	lhu	a0,25600(v0)
9d009be8:	7ca44a04 	ins	a0,a1,0x8,0x2
9d009bec:	a4446400 	sh	a0,25600(v0)

  // enable the uart
  U3MODEbits.ON = 1;
9d009bf0:	94446400 	lhu	a0,25600(v0)
9d009bf4:	7c647bc4 	ins	a0,v1,0xf,0x1
9d009bf8:	a4446400 	sh	a0,25600(v0)

  __builtin_enable_interrupts();
9d009bfc:	41626020 	ei	v0
}
9d009c00:	8fbf0004 	lw	ra,4(sp)
9d009c04:	03e00008 	jr	ra
9d009c08:	27bd0008 	addiu	sp,sp,8

9d009c0c <NU32_ReadUART3>:
// Read from UART3
// block other functions until you get a '\r' or '\n'
// send the pointer to your char array and the number of elements in the array
void NU32_ReadUART3(char * message, int maxLength) {
  char data = 0;
  int complete = 0, num_bytes = 0;
9d009c0c:	00003021 	move	a2,zero
  // loop until you get a '\r' or '\n'
  while (!complete) {
    if (U3STAbits.URXDA) { // if data is available
9d009c10:	3c03bf80 	lui	v1,0xbf80
      data = U3RXREG;      // read the data
9d009c14:	3c08bf80 	lui	t0,0xbf80
      if ((data == '\n') || (data == '\r')) {
9d009c18:	2407000a 	li	a3,10
9d009c1c:	0b402717 	j	9d009c5c <NU32_ReadUART3+0x50>
9d009c20:	2409000d 	li	t1,13
void NU32_ReadUART3(char * message, int maxLength) {
  char data = 0;
  int complete = 0, num_bytes = 0;
  // loop until you get a '\r' or '\n'
  while (!complete) {
    if (U3STAbits.URXDA) { // if data is available
9d009c24:	8c626410 	lw	v0,25616(v1)
9d009c28:	30420001 	andi	v0,v0,0x1
9d009c2c:	1040fffd 	beqz	v0,9d009c24 <NU32_ReadUART3+0x18>
9d009c30:	00000000 	nop
      data = U3RXREG;      // read the data
9d009c34:	8d026430 	lw	v0,25648(t0)
9d009c38:	7c021420 	seb	v0,v0
      if ((data == '\n') || (data == '\r')) {
9d009c3c:	5047000e 	beql	v0,a3,9d009c78 <NU32_ReadUART3+0x6c>
9d009c40:	00862021 	addu	a0,a0,a2
9d009c44:	1049000b 	beq	v0,t1,9d009c74 <NU32_ReadUART3+0x68>
9d009c48:	00865021 	addu	t2,a0,a2
        complete = 1;
      } else {
        message[num_bytes] = data;
9d009c4c:	a1420000 	sb	v0,0(t2)
        ++num_bytes;
9d009c50:	24c60001 	addiu	a2,a2,1
        // roll over if the array is too small
        if (num_bytes >= maxLength) {
9d009c54:	00c5102a 	slt	v0,a2,a1
          num_bytes = 0;
9d009c58:	0002300a 	movz	a2,zero,v0
void NU32_ReadUART3(char * message, int maxLength) {
  char data = 0;
  int complete = 0, num_bytes = 0;
  // loop until you get a '\r' or '\n'
  while (!complete) {
    if (U3STAbits.URXDA) { // if data is available
9d009c5c:	8c626410 	lw	v0,25616(v1)
9d009c60:	30420001 	andi	v0,v0,0x1
9d009c64:	1040ffef 	beqz	v0,9d009c24 <NU32_ReadUART3+0x18>
9d009c68:	00000000 	nop
9d009c6c:	0b40270d 	j	9d009c34 <NU32_ReadUART3+0x28>
9d009c70:	00000000 	nop
        }
      }
    }
  }
  // end the string
  message[num_bytes] = '\0';
9d009c74:	00862021 	addu	a0,a0,a2
9d009c78:	03e00008 	jr	ra
9d009c7c:	a0800000 	sb	zero,0(a0)

9d009c80 <NU32_WriteUART3>:
}

// Write a character array using UART3
void NU32_WriteUART3(const char * string) {
  while (*string != '\0') {
9d009c80:	80850000 	lb	a1,0(a0)
9d009c84:	10a0000b 	beqz	a1,9d009cb4 <NU32_WriteUART3+0x34>
9d009c88:	3c03bf80 	lui	v1,0xbf80
    while (U3STAbits.UTXBF) {
      ; // wait until tx buffer isn't full
    }
    U3TXREG = *string;
9d009c8c:	3c06bf80 	lui	a2,0xbf80
}

// Write a character array using UART3
void NU32_WriteUART3(const char * string) {
  while (*string != '\0') {
    while (U3STAbits.UTXBF) {
9d009c90:	8c626410 	lw	v0,25616(v1)
9d009c94:	30420200 	andi	v0,v0,0x200
9d009c98:	1440fffd 	bnez	v0,9d009c90 <NU32_WriteUART3+0x10>
9d009c9c:	00000000 	nop
      ; // wait until tx buffer isn't full
    }
    U3TXREG = *string;
9d009ca0:	acc56420 	sw	a1,25632(a2)
    ++string;
9d009ca4:	24840001 	addiu	a0,a0,1
  message[num_bytes] = '\0';
}

// Write a character array using UART3
void NU32_WriteUART3(const char * string) {
  while (*string != '\0') {
9d009ca8:	80850000 	lb	a1,0(a0)
9d009cac:	14a0fff8 	bnez	a1,9d009c90 <NU32_WriteUART3+0x10>
9d009cb0:	00000000 	nop
9d009cb4:	03e00008 	jr	ra
9d009cb8:	00000000 	nop

Disassembly of section .text.fp32mul:

9d009cbc <__mulsf3>:
9d009cbc:	00043dc2 30e700ff 00054dc2 312900ff     .=.....0.M....)1
9d009ccc:	3c0a8000 00043200 00ca3025 00054200     ...<.2..%0...B..
9d009cdc:	010a4025 00856026 014c5024 24ecffff     %@..&`..$PL....$
9d009cec:	2d8100fe 10200021 00000000              ...-!. .....

9d009cf8 <Clab1>:
9d009cf8:	252cffff 	addiu	t4,t1,-1
9d009cfc:	2d8100fe 	sltiu	at,t4,254
9d009d00:	10200036 	beqz	at,9d009ddc <CspecB>
9d009d04:	00000000 	nop

9d009d08 <Clab2>:
9d009d08:	00c80019 	multu	a2,t0
9d009d0c:	00005812 	mflo	t3
9d009d10:	11600002 	beqz	t3,9d009d1c <i17>
9d009d14:	00003010 	mfhi	a2
9d009d18:	34c60001 	ori	a2,a2,0x1

9d009d1c <i17>:
9d009d1c:	04c00003 	bltz	a2,9d009d2c <i18>
9d009d20:	00000000 	nop
9d009d24:	00063040 	sll	a2,a2,0x1
9d009d28:	24e7ffff 	addiu	a3,a3,-1

9d009d2c <i18>:
9d009d2c:	252cff82 	addiu	t4,t1,-126
9d009d30:	00ec3821 	addu	a3,a3,t4
9d009d34:	24ecffff 	addiu	t4,a3,-1
9d009d38:	2d8100fe 	sltiu	at,t4,254
9d009d3c:	1020003a 	beqz	at,9d009e28 <Coveund>
9d009d40:	00000000 	nop

9d009d44 <Clab8>:
9d009d44:	24c60080 	addiu	a2,a2,128
9d009d48:	2ccc0080 	sltiu	t4,a2,128
9d009d4c:	00ec3821 	addu	a3,a3,t4
9d009d50:	00066202 	srl	t4,a2,0x8
9d009d54:	318c0001 	andi	t4,t4,0x1
9d009d58:	00cc3023 	subu	a2,a2,t4
9d009d5c:	00063040 	sll	a2,a2,0x1
9d009d60:	00063242 	srl	a2,a2,0x9
9d009d64:	000765c0 	sll	t4,a3,0x17
9d009d68:	00cc3025 	or	a2,a2,t4
9d009d6c:	00ca1025 	or	v0,a2,t2

9d009d70 <C999>:
9d009d70:	03e00008 	jr	ra
9d009d74:	00000000 	nop

9d009d78 <CspecA>:
9d009d78:	14e0000d 	bnez	a3,9d009db0 <i19>
9d009d7c:	00000000 	nop
9d009d80:	00c63021 	addu	a2,a2,a2
9d009d84:	10c00005 	beqz	a2,9d009d9c <i20>
9d009d88:	00000000 	nop
9d009d8c:	70cb5820 	clz	t3,a2
9d009d90:	00eb3823 	subu	a3,a3,t3
9d009d94:	1000ffd8 	b	9d009cf8 <Clab1>
9d009d98:	01663004 	sllv	a2,a2,t3

9d009d9c <i20>:
9d009d9c:	240100ff 	li	at,255
9d009da0:	1121001f 	beq	t1,at,9d009e20 <Cnan>
9d009da4:	00000000 	nop
9d009da8:	10000015 	b	9d009e00 <Czer>
9d009dac:	00000000 	nop

9d009db0 <i19>:
9d009db0:	00c66021 	addu	t4,a2,a2
9d009db4:	1580001a 	bnez	t4,9d009e20 <Cnan>
9d009db8:	00000000 	nop
9d009dbc:	15200004 	bnez	t1,9d009dd0 <i21>
9d009dc0:	00000000 	nop
9d009dc4:	01086021 	addu	t4,t0,t0
9d009dc8:	11800015 	beqz	t4,9d009e20 <Cnan>
9d009dcc:	00000000 	nop

9d009dd0 <i21>:
9d009dd0:	240100ff 	li	at,255
9d009dd4:	1521000f 	bne	t1,at,9d009e14 <Cinf>
9d009dd8:	00000000 	nop

9d009ddc <CspecB>:
9d009ddc:	1520000a 	bnez	t1,9d009e08 <i22>
9d009de0:	00000000 	nop
9d009de4:	01084021 	addu	t0,t0,t0
9d009de8:	11000005 	beqz	t0,9d009e00 <Czer>
9d009dec:	00000000 	nop
9d009df0:	710b5820 	clz	t3,t0
9d009df4:	012b4823 	subu	t1,t1,t3
9d009df8:	1000ffc3 	b	9d009d08 <Clab2>
9d009dfc:	01684004 	sllv	t0,t0,t3

9d009e00 <Czer>:
9d009e00:	1000ffdb 	b	9d009d70 <C999>
9d009e04:	000a1025 	or	v0,zero,t2

9d009e08 <i22>:
9d009e08:	01086021 	addu	t4,t0,t0
9d009e0c:	15800004 	bnez	t4,9d009e20 <Cnan>
9d009e10:	00000000 	nop

9d009e14 <Cinf>:
9d009e14:	3c017f80 	lui	at,0x7f80
9d009e18:	1000ffd5 	b	9d009d70 <C999>
9d009e1c:	01411025 	or	v0,t2,at

9d009e20 <Cnan>:
9d009e20:	1000ffd3 	b	9d009d70 <C999>
9d009e24:	3c02ffc0 	lui	v0,0xffc0

9d009e28 <Coveund>:
9d009e28:	1ce0fffa 	bgtz	a3,9d009e14 <Cinf>
9d009e2c:	00000000 	nop
9d009e30:	240b0001 	li	t3,1
9d009e34:	01675823 	subu	t3,t3,a3
9d009e38:	2d610020 	sltiu	at,t3,32
9d009e3c:	1020fff0 	beqz	at,9d009e00 <Czer>
9d009e40:	00000000 	nop
9d009e44:	240c0020 	li	t4,32
9d009e48:	018b6023 	subu	t4,t4,t3
9d009e4c:	01863804 	sllv	a3,a2,t4
9d009e50:	10e00002 	beqz	a3,9d009e5c <i25>
9d009e54:	01663006 	srlv	a2,a2,t3
9d009e58:	34c60002 	ori	a2,a2,0x2

9d009e5c <i25>:
9d009e5c:	24070000 	li	a3,0
9d009e60:	24cc0080 	addiu	t4,a2,128
9d009e64:	0581ffb7 	bgez	t4,9d009d44 <Clab8>
9d009e68:	00000000 	nop
9d009e6c:	1000ffb5 	b	9d009d44 <Clab8>
9d009e70:	24070001 	li	a3,1
9d009e74:	00000000 	nop

Disassembly of section .text.__ldexp:

9d009e78 <__ldexp>:
9d009e78:	27bdffe0 	addiu	sp,sp,-32

9d009e7c <.LCFI0>:
9d009e7c:	afbf001c 	sw	ra,28(sp)
9d009e80:	afb20018 	sw	s2,24(sp)
9d009e84:	afb10014 	sw	s1,20(sp)
9d009e88:	afb00010 	sw	s0,16(sp)
9d009e8c:	7ca75500 	ext	a3,a1,0x14,0xb
9d009e90:	24e2ffff 	addiu	v0,a3,-1
9d009e94:	7ca89800 	ext	t0,a1,0x0,0x14
9d009e98:	2c4907fe 	sltiu	t1,v0,2046
9d009e9c:	00c08821 	move	s1,a2
9d009ea0:	000587c2 	srl	s0,a1,0x1f
9d009ea4:	00801021 	move	v0,a0
9d009ea8:	11200041 	beqz	t1,9d009fb0 <.LCFI0+0x134>
9d009eac:	01001821 	move	v1,t0
9d009eb0:	24e7fc01 	addiu	a3,a3,-1023
9d009eb4:	3c040010 	lui	a0,0x10
9d009eb8:	01041825 	or	v1,t0,a0
9d009ebc:	00f13821 	addu	a3,a3,s1
9d009ec0:	00022f42 	srl	a1,v0,0x1d
9d009ec4:	000318c0 	sll	v1,v1,0x3
9d009ec8:	24e403ff 	addiu	a0,a3,1023
9d009ecc:	00a31825 	or	v1,a1,v1
9d009ed0:	18800025 	blez	a0,9d009f68 <.LCFI0+0xec>
9d009ed4:	000210c0 	sll	v0,v0,0x3
9d009ed8:	30450007 	andi	a1,v0,0x7
9d009edc:	14a00015 	bnez	a1,9d009f34 <.LCFI0+0xb8>
9d009ee0:	7c4500c0 	ext	a1,v0,0x3,0x1
9d009ee4:	00033740 	sll	a2,v1,0x1d
9d009ee8:	000210c2 	srl	v0,v0,0x3
9d009eec:	288507ff 	slti	a1,a0,2047
9d009ef0:	00c21025 	or	v0,a2,v0
9d009ef4:	10a00036 	beqz	a1,9d009fd0 <.LCFI0+0x154>
9d009ef8:	000318c2 	srl	v1,v1,0x3
9d009efc:	7c650500 	ext	a1,v1,0x14,0x1
9d009f00:	50a00002 	beqzl	a1,9d009f0c <.LCFI0+0x90>
9d009f04:	00002021 	move	a0,zero
9d009f08:	7c639800 	ext	v1,v1,0x0,0x14
9d009f0c:	001082c0 	sll	s0,s0,0xb
9d009f10:	00902025 	or	a0,a0,s0
9d009f14:	00042500 	sll	a0,a0,0x14
9d009f18:	00831825 	or	v1,a0,v1
9d009f1c:	8fbf001c 	lw	ra,28(sp)
9d009f20:	8fb20018 	lw	s2,24(sp)
9d009f24:	8fb10014 	lw	s1,20(sp)
9d009f28:	8fb00010 	lw	s0,16(sp)
9d009f2c:	03e00008 	jr	ra
9d009f30:	27bd0020 	addiu	sp,sp,32
9d009f34:	24a50003 	addiu	a1,a1,3
9d009f38:	00452821 	addu	a1,v0,a1
9d009f3c:	00a2102b 	sltu	v0,a1,v0
9d009f40:	00431821 	addu	v1,v0,v1
9d009f44:	7c660600 	ext	a2,v1,0x18,0x1
9d009f48:	10c0ffe6 	beqz	a2,9d009ee4 <.LCFI0+0x68>
9d009f4c:	00a01021 	move	v0,a1
9d009f50:	00032fc0 	sll	a1,v1,0x1f
9d009f54:	00021042 	srl	v0,v0,0x1
9d009f58:	00a21025 	or	v0,a1,v0
9d009f5c:	00031842 	srl	v1,v1,0x1
9d009f60:	0b4027b9 	j	9d009ee4 <.LCFI0+0x68>
9d009f64:	24840001 	addiu	a0,a0,1
9d009f68:	2406fc02 	li	a2,-1022
9d009f6c:	00c73023 	subu	a2,a2,a3
9d009f70:	28c40038 	slti	a0,a2,56
9d009f74:	5080001b 	beqzl	a0,9d009fe4 <.LCFI0+0x168>
9d009f78:	00001021 	move	v0,zero
9d009f7c:	00062023 	negu	a0,a2
9d009f80:	30850020 	andi	a1,a0,0x20
9d009f84:	14a00003 	bnez	a1,9d009f94 <.LCFI0+0x118>
9d009f88:	00828804 	sllv	s1,v0,a0
9d009f8c:	00832004 	sllv	a0,v1,a0
9d009f90:	00828825 	or	s1,a0,v0
9d009f94:	00402021 	move	a0,v0
9d009f98:	0f40314f 	jal	9d00c53c <__lshrdi3>
9d009f9c:	00602821 	move	a1,v1
9d009fa0:	0011882b 	sltu	s1,zero,s1
9d009fa4:	02221025 	or	v0,s1,v0
9d009fa8:	0b4027b6 	j	9d009ed8 <.LCFI0+0x5c>
9d009fac:	24040001 	li	a0,1
9d009fb0:	54e00005 	bnezl	a3,9d009fc8 <.LCFI0+0x14c>
9d009fb4:	00801021 	move	v0,a0
9d009fb8:	01043025 	or	a2,t0,a0
9d009fbc:	14c0000c 	bnez	a2,9d009ff0 <.LCFI0+0x174>
9d009fc0:	00000000 	nop
9d009fc4:	00801021 	move	v0,a0
9d009fc8:	0b4027c7 	j	9d009f1c <.LCFI0+0xa0>
9d009fcc:	00a01821 	move	v1,a1
9d009fd0:	00101ac0 	sll	v1,s0,0xb
9d009fd4:	346307ff 	ori	v1,v1,0x7ff
9d009fd8:	00031d00 	sll	v1,v1,0x14
9d009fdc:	0b4027c7 	j	9d009f1c <.LCFI0+0xa0>
9d009fe0:	00001021 	move	v0,zero
9d009fe4:	00001821 	move	v1,zero
9d009fe8:	0b4027c3 	j	9d009f0c <.LCFI0+0x90>
9d009fec:	00002021 	move	a0,zero
9d009ff0:	15000003 	bnez	t0,9d00a000 <.LCFI0+0x184>
9d009ff4:	71129020 	clz	s2,t0
9d009ff8:	70929020 	clz	s2,a0
9d009ffc:	26520020 	addiu	s2,s2,32
9d00a000:	2646fff5 	addiu	a2,s2,-11
9d00a004:	10c0ffad 	beqz	a2,9d009ebc <.LCFI0+0x40>
9d00a008:	2407fc02 	li	a3,-1022
9d00a00c:	0f40315f 	jal	9d00c57c <__ashldi3>
9d00a010:	01002821 	move	a1,t0
9d00a014:	2407fc0d 	li	a3,-1011
9d00a018:	0b4027af 	j	9d009ebc <.LCFI0+0x40>
9d00a01c:	00f23823 	subu	a3,a3,s2

Disassembly of section .text._sbrk_init:

9d00a020 <_sbrk_init>:
9d00a020:	27bdffd8 	addiu	sp,sp,-40

9d00a024 <.LCFI0>:
9d00a024:	afbf0024 	sw	ra,36(sp)
9d00a028:	afb40020 	sw	s4,32(sp)
9d00a02c:	afb3001c 	sw	s3,28(sp)
9d00a030:	afb20018 	sw	s2,24(sp)
9d00a034:	afb10014 	sw	s1,20(sp)
9d00a038:	afb00010 	sw	s0,16(sp)
9d00a03c:	3c10a001 	lui	s0,0xa001
9d00a040:	8e02aedc 	lw	v0,-20772(s0)
9d00a044:	10400009 	beqz	v0,9d00a06c <.LCFI0+0x48>
9d00a048:	3c12a001 	lui	s2,0xa001
9d00a04c:	8fbf0024 	lw	ra,36(sp)
9d00a050:	8fb40020 	lw	s4,32(sp)
9d00a054:	8fb3001c 	lw	s3,28(sp)
9d00a058:	8fb20018 	lw	s2,24(sp)
9d00a05c:	8fb10014 	lw	s1,20(sp)
9d00a060:	8fb00010 	lw	s0,16(sp)
9d00a064:	03e00008 	jr	ra
9d00a068:	27bd0028 	addiu	sp,sp,40
9d00a06c:	8e43aee4 	lw	v1,-20764(s2)
9d00a070:	5060003d 	beqzl	v1,9d00a168 <.LCFI0+0x144>
9d00a074:	3c03a001 	lui	v1,0xa001
9d00a078:	3c13a001 	lui	s3,0xa001
9d00a07c:	8e62aee0 	lw	v0,-20768(s3)
9d00a080:	5040003b 	beqzl	v0,9d00a170 <.LCFI0+0x14c>
9d00a084:	3c040000 	lui	a0,0x0
9d00a088:	00038f82 	srl	s1,v1,0x1e
9d00a08c:	0002a782 	srl	s4,v0,0x1e
9d00a090:	7c65e000 	ext	a1,v1,0x0,0x1d
9d00a094:	3a310002 	xori	s1,s1,0x2
9d00a098:	7c44e000 	ext	a0,v0,0x0,0x1d
9d00a09c:	3a940002 	xori	s4,s4,0x2
9d00a0a0:	00b1180a 	movz	v1,a1,s1
9d00a0a4:	00608821 	move	s1,v1
9d00a0a8:	0094100a 	movz	v0,a0,s4
9d00a0ac:	0f4031b9 	jal	9d00c6e4 <_stub_sbd_memlayout>
9d00a0b0:	0040a021 	move	s4,v0
9d00a0b4:	8c430000 	lw	v1,0(v0)
9d00a0b8:	8c440004 	lw	a0,4(v0)
9d00a0bc:	0223102b 	sltu	v0,s1,v1
9d00a0c0:	10400024 	beqz	v0,9d00a154 <.LCFI0+0x130>
9d00a0c4:	00642021 	addu	a0,v1,a0
9d00a0c8:	3c02a000 	lui	v0,0xa000
9d00a0cc:	2442006c 	addiu	v0,v0,108
9d00a0d0:	7c42e000 	ext	v0,v0,0x0,0x1d
9d00a0d4:	0062102b 	sltu	v0,v1,v0
9d00a0d8:	1440ffdd 	bnez	v0,9d00a050 <.LCFI0+0x2c>
9d00a0dc:	8fbf0024 	lw	ra,36(sp)
9d00a0e0:	0283102b 	sltu	v0,s4,v1
9d00a0e4:	14400005 	bnez	v0,9d00a0fc <.LCFI0+0xd8>
9d00a0e8:	0064102b 	sltu	v0,v1,a0
9d00a0ec:	0284102b 	sltu	v0,s4,a0
9d00a0f0:	54400004 	bnezl	v0,9d00a104 <.LCFI0+0xe0>
9d00a0f4:	02802021 	move	a0,s4
9d00a0f8:	0064102b 	sltu	v0,v1,a0
9d00a0fc:	1040ffd4 	beqz	v0,9d00a050 <.LCFI0+0x2c>
9d00a100:	8fbf0024 	lw	ra,36(sp)
9d00a104:	3c02a000 	lui	v0,0xa000
9d00a108:	2442006c 	addiu	v0,v0,108
9d00a10c:	00021742 	srl	v0,v0,0x1d
9d00a110:	24050005 	li	a1,5
9d00a114:	1445001b 	bne	v0,a1,9d00a184 <.LCFI0+0x160>
9d00a118:	24050004 	li	a1,4
9d00a11c:	3c02a000 	lui	v0,0xa000
9d00a120:	00621825 	or	v1,v1,v0
9d00a124:	00822025 	or	a0,a0,v0
9d00a128:	ae43aee4 	sw	v1,-20764(s2)
9d00a12c:	ae64aee0 	sw	a0,-20768(s3)
9d00a130:	ae03aedc 	sw	v1,-20772(s0)
9d00a134:	8fbf0024 	lw	ra,36(sp)
9d00a138:	8fb40020 	lw	s4,32(sp)
9d00a13c:	8fb3001c 	lw	s3,28(sp)
9d00a140:	8fb20018 	lw	s2,24(sp)
9d00a144:	8fb10014 	lw	s1,20(sp)
9d00a148:	8fb00010 	lw	s0,16(sp)
9d00a14c:	03e00008 	jr	ra
9d00a150:	27bd0028 	addiu	sp,sp,40
9d00a154:	0224102b 	sltu	v0,s1,a0
9d00a158:	1040ffdc 	beqz	v0,9d00a0cc <.LCFI0+0xa8>
9d00a15c:	3c02a000 	lui	v0,0xa000
9d00a160:	0b402838 	j	9d00a0e0 <.LCFI0+0xbc>
9d00a164:	02201821 	move	v1,s1
9d00a168:	0b40281e 	j	9d00a078 <.LCFI0+0x54>
9d00a16c:	2463af18 	addiu	v1,v1,-20712
9d00a170:	24840000 	addiu	a0,a0,0
9d00a174:	3c02a001 	lui	v0,0xa001
9d00a178:	2442af18 	addiu	v0,v0,-20712
9d00a17c:	0b402822 	j	9d00a088 <.LCFI0+0x64>
9d00a180:	00441021 	addu	v0,v0,a0
9d00a184:	14450007 	bne	v0,a1,9d00a1a4 <.LCFI0+0x180>
9d00a188:	3c028000 	lui	v0,0x8000
9d00a18c:	00621825 	or	v1,v1,v0
9d00a190:	00821025 	or	v0,a0,v0
9d00a194:	ae43aee4 	sw	v1,-20764(s2)
9d00a198:	ae62aee0 	sw	v0,-20768(s3)
9d00a19c:	0b40284d 	j	9d00a134 <.LCFI0+0x110>
9d00a1a0:	ae03aedc 	sw	v1,-20772(s0)
9d00a1a4:	ae44aee4 	sw	a0,-20764(s2)
9d00a1a8:	00801821 	move	v1,a0
9d00a1ac:	0b40284d 	j	9d00a134 <.LCFI0+0x110>
9d00a1b0:	ae03aedc 	sw	v1,-20772(s0)

Disassembly of section .text:

9d00a1b4 <ADC_init>:
#include <stdio.h>
#include <xc.h>


void ADC_init(void) {
  AD1CON1bits.SSRC = 0x7;                   //Set the conversion process to be automatic
9d00a1b4:	3c02bf81 	lui	v0,0xbf81
9d00a1b8:	94439000 	lhu	v1,-28672(v0)
9d00a1bc:	24040007 	li	a0,7
9d00a1c0:	7c833944 	ins	v1,a0,0x5,0x3
9d00a1c4:	a4439000 	sh	v1,-28672(v0)
  AD1CON1bits.ASAM = 0;                     //Set the sampling process to be manual
9d00a1c8:	94439000 	lhu	v1,-28672(v0)
9d00a1cc:	7c031084 	ins	v1,zero,0x2,0x1
9d00a1d0:	a4439000 	sh	v1,-28672(v0)
  AD1CON3bits.ADCS = 2;                     //Set Tad to be 2*(ADCS+1)*Tpb = 75ns
9d00a1d4:	3c03bf81 	lui	v1,0xbf81
9d00a1d8:	24040002 	li	a0,2
9d00a1dc:	a0649020 	sb	a0,-28640(v1)
  AD1CON3bits.SAMC = 2;                     //Set sampling time to be 2*Tad = 150ns
9d00a1e0:	94649020 	lhu	a0,-28640(v1)
9d00a1e4:	24050002 	li	a1,2
9d00a1e8:	7ca46204 	ins	a0,a1,0x8,0x5
9d00a1ec:	a4649020 	sh	a0,-28640(v1)
  AD1CON1bits.ADON = 1;                     // turn on A/D converter
9d00a1f0:	94439000 	lhu	v1,-28672(v0)
9d00a1f4:	24040001 	li	a0,1
9d00a1f8:	7c837bc4 	ins	v1,a0,0xf,0x1
9d00a1fc:	a4439000 	sh	v1,-28672(v0)
9d00a200:	03e00008 	jr	ra
9d00a204:	00000000 	nop

9d00a208 <convert_adc>:
}

unsigned int convert_adc(int pin) {         // sample & convert the value on the given
9d00a208:	27bdfff8 	addiu	sp,sp,-8
9d00a20c:	afbf0004 	sw	ra,4(sp)

  unsigned int elapsed_time = 0;
  unsigned int finish_time = 0;

  AD1CHSbits.CH0SA = pin;                   // connect chosen pin to MUXA for sampling
9d00a210:	3c02bf81 	lui	v0,0xbf81
9d00a214:	8c439040 	lw	v1,-28608(v0)
9d00a218:	7c839c04 	ins	v1,a0,0x10,0x4
9d00a21c:	ac439040 	sw	v1,-28608(v0)
  AD1CON1bits.SAMP = 1;                     // start sampling
9d00a220:	3c02bf81 	lui	v0,0xbf81
9d00a224:	94439000 	lhu	v1,-28672(v0)
9d00a228:	24040001 	li	a0,1
9d00a22c:	7c830844 	ins	v1,a0,0x1,0x1
9d00a230:	a4439000 	sh	v1,-28672(v0)
  elapsed_time = _CP0_GET_COUNT();
9d00a234:	40034800 	mfc0	v1,c0_count
  finish_time = elapsed_time + 10;
9d00a238:	2463000a 	addiu	v1,v1,10

  while (_CP0_GET_COUNT() < finish_time) {;}  // sample for more than 250 ns
9d00a23c:	40024800 	mfc0	v0,c0_count
9d00a240:	0043102b 	sltu	v0,v0,v1
9d00a244:	1440fffd 	bnez	v0,9d00a23c <convert_adc+0x34>
9d00a248:	3c02bf81 	lui	v0,0xbf81

  AD1CON1bits.SAMP = 0;                     // stop sampling and start converting
9d00a24c:	94439000 	lhu	v1,-28672(v0)
9d00a250:	7c030844 	ins	v1,zero,0x1,0x1
9d00a254:	a4439000 	sh	v1,-28672(v0)

  while (!AD1CON1bits.DONE) {;}             // wait for the conversion process to finish
9d00a258:	00401821 	move	v1,v0
9d00a25c:	8c629000 	lw	v0,-28672(v1)
9d00a260:	30420001 	andi	v0,v0,0x1
9d00a264:	1040fffd 	beqz	v0,9d00a25c <convert_adc+0x54>
9d00a268:	3c02bf81 	lui	v0,0xbf81

  return ADC1BUF0;                          // read the buffer with the result
9d00a26c:	8c429070 	lw	v0,-28560(v0)
}
9d00a270:	8fbf0004 	lw	ra,4(sp)
9d00a274:	03e00008 	jr	ra
9d00a278:	27bd0008 	addiu	sp,sp,8

9d00a27c <read_adc>:

unsigned int read_adc() {
9d00a27c:	27bdffe0 	addiu	sp,sp,-32
9d00a280:	afbf001c 	sw	ra,28(sp)
9d00a284:	afb10018 	sw	s1,24(sp)
9d00a288:	afb00014 	sw	s0,20(sp)
9d00a28c:	2410000b 	li	s0,11
  int i = 0;
  int sum = 0;
9d00a290:	00008821 	move	s1,zero

  while (i<=10) {
    sum += convert_adc(16);
9d00a294:	0f402882 	jal	9d00a208 <convert_adc>
9d00a298:	24040010 	li	a0,16

9d00a29c <.LVL9>:
9d00a29c:	2610ffff 	addiu	s0,s0,-1

unsigned int read_adc() {
  int i = 0;
  int sum = 0;

  while (i<=10) {
9d00a2a0:	1600fffc 	bnez	s0,9d00a294 <read_adc+0x18>
9d00a2a4:	00518821 	addu	s1,v0,s1
    sum += convert_adc(16);
    i++;
  }
  return (sum/10);
9d00a2a8:	3c026666 	lui	v0,0x6666
9d00a2ac:	24426667 	addiu	v0,v0,26215
9d00a2b0:	02220018 	mult	s1,v0
9d00a2b4:	00001010 	mfhi	v0
9d00a2b8:	00021083 	sra	v0,v0,0x2
9d00a2bc:	00118fc3 	sra	s1,s1,0x1f
}
9d00a2c0:	00511023 	subu	v0,v0,s1
9d00a2c4:	8fbf001c 	lw	ra,28(sp)
9d00a2c8:	8fb10018 	lw	s1,24(sp)
9d00a2cc:	8fb00014 	lw	s0,20(sp)
9d00a2d0:	03e00008 	jr	ra
9d00a2d4:	27bd0020 	addiu	sp,sp,32

9d00a2d8 <read_current>:

int read_current(void) {
9d00a2d8:	27bdffe8 	addiu	sp,sp,-24
9d00a2dc:	afbf0014 	sw	ra,20(sp)
  int adc_count = read_adc();
9d00a2e0:	0f40289f 	jal	9d00a27c <read_adc>
9d00a2e4:	00000000 	nop

9d00a2e8 <.LVL13>:
  float adc_mA = 5.702 * adc_count - 3199;
9d00a2e8:	0f402f92 	jal	9d00be48 <__floatsidf>
9d00a2ec:	00402021 	move	a0,v0
9d00a2f0:	00402021 	move	a0,v0
9d00a2f4:	00602821 	move	a1,v1
9d00a2f8:	3c029d01 	lui	v0,0x9d01
9d00a2fc:	8c46c8e8 	lw	a2,-14104(v0)
9d00a300:	0f40206b 	jal	9d0081ac <.LFE23>
9d00a304:	8c47c8ec 	lw	a3,-14100(v0)
9d00a308:	00402021 	move	a0,v0
9d00a30c:	00602821 	move	a1,v1
9d00a310:	3c029d01 	lui	v0,0x9d01
9d00a314:	8c46c8f0 	lw	a2,-14096(v0)
9d00a318:	0f401cb3 	jal	9d0072cc <.LFE9>
9d00a31c:	8c47c8f4 	lw	a3,-14092(v0)
9d00a320:	00402021 	move	a0,v0
9d00a324:	0f402bb6 	jal	9d00aed8 <.LFE23>
9d00a328:	00602821 	move	a1,v1
  return adc_mA;
9d00a32c:	0f402f36 	jal	9d00bcd8 <__fixsfsi>
9d00a330:	00402021 	move	a0,v0
9d00a334:	8fbf0014 	lw	ra,20(sp)
9d00a338:	03e00008 	jr	ra
9d00a33c:	27bd0018 	addiu	sp,sp,24

9d00a340 <position_init>:
#include <xc.h>


void position_init(void) {
  //Configure Timer 4 for 200Hz interrupt:
  T4CONbits.TCKPS = 0b110;      // Timer4 prescaler N=64 (1:64)
9d00a340:	3c02bf80 	lui	v0,0xbf80
9d00a344:	94430c00 	lhu	v1,3072(v0)
9d00a348:	24040006 	li	a0,6
9d00a34c:	7c833104 	ins	v1,a0,0x4,0x3
9d00a350:	a4430c00 	sh	v1,3072(v0)
  PR4 = 6249;                   // period = (PR2+1) * N * 12.5 ns = 5ms, 200Hz
9d00a354:	24041869 	li	a0,6249
9d00a358:	3c03bf80 	lui	v1,0xbf80
9d00a35c:	ac640c20 	sw	a0,3104(v1)
  TMR4 = 0;                     // initial TMR4 count is 0
9d00a360:	3c03bf80 	lui	v1,0xbf80
9d00a364:	ac600c10 	sw	zero,3088(v1)
  T4CONbits.ON = 1;             // turn on Timer4
9d00a368:	94440c00 	lhu	a0,3072(v0)
9d00a36c:	24030001 	li	v1,1
9d00a370:	7c647bc4 	ins	a0,v1,0xf,0x1
9d00a374:	a4440c00 	sh	a0,3072(v0)
  IPC4bits.T4IP = 5;            //priority
9d00a378:	3c02bf88 	lui	v0,0xbf88
9d00a37c:	8c4410d0 	lw	a0,4304(v0)
9d00a380:	24050005 	li	a1,5
9d00a384:	7ca42084 	ins	a0,a1,0x2,0x3
9d00a388:	ac4410d0 	sw	a0,4304(v0)
  IPC4bits.T4IS = 1;            //sub-priority       
9d00a38c:	8c4410d0 	lw	a0,4304(v0)
9d00a390:	7c640804 	ins	a0,v1,0x0,0x2
9d00a394:	ac4410d0 	sw	a0,4304(v0)
  IFS0bits.T4IF = 0;            //int flag
9d00a398:	3c02bf88 	lui	v0,0xbf88
9d00a39c:	8c441030 	lw	a0,4144(v0)
9d00a3a0:	7c048404 	ins	a0,zero,0x10,0x1
9d00a3a4:	ac441030 	sw	a0,4144(v0)
  IEC0bits.T4IE = 1;            //enable int
9d00a3a8:	3c02bf88 	lui	v0,0xbf88
9d00a3ac:	8c441060 	lw	a0,4192(v0)
9d00a3b0:	7c648404 	ins	a0,v1,0x10,0x1
9d00a3b4:	ac441060 	sw	a0,4192(v0)
9d00a3b8:	03e00008 	jr	ra
9d00a3bc:	00000000 	nop

9d00a3c0 <position_PID>:
}

int position_PID(float pos_kp, float pos_ki, float pos_kd, int ref_pos, int actual_pos) {
9d00a3c0:	27bdffd0 	addiu	sp,sp,-48
9d00a3c4:	afbf002c 	sw	ra,44(sp)
9d00a3c8:	afb50028 	sw	s5,40(sp)
9d00a3cc:	afb40024 	sw	s4,36(sp)
9d00a3d0:	afb30020 	sw	s3,32(sp)
9d00a3d4:	afb2001c 	sw	s2,28(sp)
9d00a3d8:	afb10018 	sw	s1,24(sp)
9d00a3dc:	afb00014 	sw	s0,20(sp)
9d00a3e0:	00808821 	move	s1,a0
9d00a3e4:	00a0a021 	move	s4,a1
9d00a3e8:	00c09021 	move	s2,a2
  int error = ref_pos-actual_pos;
9d00a3ec:	8fb00040 	lw	s0,64(sp)
9d00a3f0:	00f08023 	subu	s0,a3,s0
  pos_E_int = pos_E_int + error;
9d00a3f4:	8f82806c 	lw	v0,-32660(gp)
9d00a3f8:	00501021 	addu	v0,v0,s0
9d00a3fc:	af82806c 	sw	v0,-32660(gp)
  int pos_E_dot = error - pos_E_prev;
9d00a400:	8f938068 	lw	s3,-32664(gp)
  pos_E_prev = error;
9d00a404:	af908068 	sw	s0,-32664(gp)

  int u = (pos_kp*error) + (pos_ki*pos_E_int) + (pos_kd*pos_E_dot);
9d00a408:	8f95806c 	lw	s5,-32660(gp)
9d00a40c:	0f403080 	jal	9d00c200 <__floatsisf>
9d00a410:	02002021 	move	a0,s0
9d00a414:	00402021 	move	a0,v0
9d00a418:	0f40272f 	jal	9d009cbc <.LFE9>
9d00a41c:	02202821 	move	a1,s1
9d00a420:	00408821 	move	s1,v0
9d00a424:	0f403080 	jal	9d00c200 <__floatsisf>
9d00a428:	02a02021 	move	a0,s5
9d00a42c:	00402021 	move	a0,v0
9d00a430:	0f40272f 	jal	9d009cbc <.LFE9>
9d00a434:	02802821 	move	a1,s4
9d00a438:	02202021 	move	a0,s1
9d00a43c:	0f402525 	jal	9d009494 <__addsf3>
9d00a440:	00402821 	move	a1,v0
9d00a444:	00408821 	move	s1,v0
9d00a448:	0f403080 	jal	9d00c200 <__floatsisf>
9d00a44c:	02132023 	subu	a0,s0,s3
9d00a450:	00402021 	move	a0,v0
9d00a454:	0f40272f 	jal	9d009cbc <.LFE9>
9d00a458:	02402821 	move	a1,s2
9d00a45c:	02202021 	move	a0,s1
9d00a460:	0f402525 	jal	9d009494 <__addsf3>
9d00a464:	00402821 	move	a1,v0
9d00a468:	0f402f36 	jal	9d00bcd8 <__fixsfsi>
9d00a46c:	00402021 	move	a0,v0
9d00a470:	2844fed4 	slti	a0,v0,-300
9d00a474:	2403fed4 	li	v1,-300
9d00a478:	0044180a 	movz	v1,v0,a0
9d00a47c:	2864012d 	slti	a0,v1,301
    u = -300;
  }
  else {;}
   
  return u;
9d00a480:	2402012c 	li	v0,300
9d00a484:	0064100b 	movn	v0,v1,a0
9d00a488:	8fbf002c 	lw	ra,44(sp)
9d00a48c:	8fb50028 	lw	s5,40(sp)
9d00a490:	8fb40024 	lw	s4,36(sp)
9d00a494:	8fb30020 	lw	s3,32(sp)
9d00a498:	8fb2001c 	lw	s2,28(sp)
9d00a49c:	8fb10018 	lw	s1,24(sp)
9d00a4a0:	8fb00014 	lw	s0,20(sp)
9d00a4a4:	03e00008 	jr	ra
9d00a4a8:	27bd0030 	addiu	sp,sp,48

Disassembly of section .text:

9d00a4ac <encoder_command>:
#define BUF_SIZE 200


static int encoder_command(int read) {  // send a command to the encoder chip
                                        // 0 = reset count to 32,768, 1 = return the count
    SPI4BUF = read;                     // send the command
9d00a4ac:	3c02bf80 	lui	v0,0xbf80
9d00a4b0:	ac445c20 	sw	a0,23584(v0)
    while (!SPI4STATbits.SPIRBF) { ; }  // wait for the response
9d00a4b4:	3c03bf80 	lui	v1,0xbf80
9d00a4b8:	8c625c10 	lw	v0,23568(v1)
9d00a4bc:	30420001 	andi	v0,v0,0x1
9d00a4c0:	1040fffd 	beqz	v0,9d00a4b8 <encoder_command+0xc>
9d00a4c4:	3c02bf80 	lui	v0,0xbf80
    SPI4BUF;                            // garbage was transferred, ignore it
9d00a4c8:	8c435c20 	lw	v1,23584(v0)
    SPI4BUF = 5;                        // write garbage, but the read will have the data
9d00a4cc:	24030005 	li	v1,5
9d00a4d0:	ac435c20 	sw	v1,23584(v0)
    while (!SPI4STATbits.SPIRBF) { ; }
9d00a4d4:	3c03bf80 	lui	v1,0xbf80
9d00a4d8:	8c625c10 	lw	v0,23568(v1)
9d00a4dc:	30420001 	andi	v0,v0,0x1
9d00a4e0:	1040fffd 	beqz	v0,9d00a4d8 <encoder_command+0x2c>
9d00a4e4:	3c02bf80 	lui	v0,0xbf80
    return SPI4BUF;
9d00a4e8:	8c425c20 	lw	v0,23584(v0)
}
9d00a4ec:	03e00008 	jr	ra
9d00a4f0:	00000000 	nop

9d00a4f4 <encoder_reset>:

int encoder_reset(void) {
9d00a4f4:	27bdffe8 	addiu	sp,sp,-24
9d00a4f8:	afbf0014 	sw	ra,20(sp)
    return encoder_command(0);
9d00a4fc:	0f40292b 	jal	9d00a4ac <encoder_command>
9d00a500:	00002021 	move	a0,zero

9d00a504 <.LVL1>:
}
9d00a504:	8fbf0014 	lw	ra,20(sp)
9d00a508:	03e00008 	jr	ra
9d00a50c:	27bd0018 	addiu	sp,sp,24

9d00a510 <encoder_counts>:

int encoder_counts(void) {
9d00a510:	27bdffe8 	addiu	sp,sp,-24
9d00a514:	afbf0014 	sw	ra,20(sp)
    return encoder_command(1);
9d00a518:	0f40292b 	jal	9d00a4ac <encoder_command>
9d00a51c:	24040001 	li	a0,1

9d00a520 <.LVL2>:
}
9d00a520:	8fbf0014 	lw	ra,20(sp)
9d00a524:	03e00008 	jr	ra
9d00a528:	27bd0018 	addiu	sp,sp,24

9d00a52c <encoder_init>:

void encoder_init(void) {
    // SPI initialization for reading from the decoder chip
    SPI4CON = 0;                    // stop and reset SPI4
9d00a52c:	3c02bf80 	lui	v0,0xbf80
9d00a530:	ac405c00 	sw	zero,23552(v0)
    SPI4BUF;                        // read to clear the rx receive buffer
9d00a534:	3c02bf80 	lui	v0,0xbf80
9d00a538:	8c425c20 	lw	v0,23584(v0)
    SPI4BRG = 0x4;                  // bit rate to 8 MHz, SPI4BRG = 80000000/(2*desired)-1
9d00a53c:	24030004 	li	v1,4
9d00a540:	3c02bf80 	lui	v0,0xbf80
9d00a544:	ac435c30 	sw	v1,23600(v0)
    SPI4STATbits.SPIROV = 0;        // clear the overflow
9d00a548:	3c02bf80 	lui	v0,0xbf80
9d00a54c:	8c435c10 	lw	v1,23568(v0)
9d00a550:	7c033184 	ins	v1,zero,0x6,0x1
9d00a554:	ac435c10 	sw	v1,23568(v0)
    SPI4CONbits.MSTEN = 1;          // master mode
9d00a558:	3c02bf80 	lui	v0,0xbf80
9d00a55c:	8c445c00 	lw	a0,23552(v0)
9d00a560:	24030001 	li	v1,1
9d00a564:	7c642944 	ins	a0,v1,0x5,0x1
9d00a568:	ac445c00 	sw	a0,23552(v0)
    SPI4CONbits.MSSEN = 1;          // slave select enable
9d00a56c:	8c445c00 	lw	a0,23552(v0)
9d00a570:	7c64e704 	ins	a0,v1,0x1c,0x1
9d00a574:	ac445c00 	sw	a0,23552(v0)
    SPI4CONbits.MODE16 = 1;         // 16 bit mode
9d00a578:	8c445c00 	lw	a0,23552(v0)
9d00a57c:	7c645284 	ins	a0,v1,0xa,0x1
9d00a580:	ac445c00 	sw	a0,23552(v0)
    SPI4CONbits.MODE32 = 0;
9d00a584:	8c445c00 	lw	a0,23552(v0)
9d00a588:	7c045ac4 	ins	a0,zero,0xb,0x1
9d00a58c:	ac445c00 	sw	a0,23552(v0)
    SPI4CONbits.SMP = 1;            // sample at the end of the clock
9d00a590:	8c445c00 	lw	a0,23552(v0)
9d00a594:	7c644a44 	ins	a0,v1,0x9,0x1
9d00a598:	ac445c00 	sw	a0,23552(v0)
    SPI4CONbits.ON = 1;             // turn SPI on
9d00a59c:	8c445c00 	lw	a0,23552(v0)
9d00a5a0:	7c647bc4 	ins	a0,v1,0xf,0x1
9d00a5a4:	ac445c00 	sw	a0,23552(v0)
9d00a5a8:	03e00008 	jr	ra
9d00a5ac:	00000000 	nop

9d00a5b0 <encoder_angle>:
}

int encoder_angle(void){
9d00a5b0:	27bdffe8 	addiu	sp,sp,-24
9d00a5b4:	afbf0014 	sw	ra,20(sp)
    int dec_deg = (360*(encoder_counts() - 32768))/1334;
9d00a5b8:	0f402944 	jal	9d00a510 <encoder_counts>
9d00a5bc:	00000000 	nop

9d00a5c0 <.LVL3>:
9d00a5c0:	24428000 	addiu	v0,v0,-32768
9d00a5c4:	000220c0 	sll	a0,v0,0x3
9d00a5c8:	00021940 	sll	v1,v0,0x5
9d00a5cc:	00641823 	subu	v1,v1,a0
9d00a5d0:	00031100 	sll	v0,v1,0x4
9d00a5d4:	00431823 	subu	v1,v0,v1
9d00a5d8:	3c02c482 	lui	v0,0xc482
9d00a5dc:	24427ea9 	addiu	v0,v0,32425
9d00a5e0:	00620018 	mult	v1,v0
9d00a5e4:	00001010 	mfhi	v0
9d00a5e8:	00431021 	addu	v0,v0,v1
9d00a5ec:	00021283 	sra	v0,v0,0xa
9d00a5f0:	00031fc3 	sra	v1,v1,0x1f
    return dec_deg;
9d00a5f4:	00431023 	subu	v0,v0,v1
9d00a5f8:	8fbf0014 	lw	ra,20(sp)
9d00a5fc:	03e00008 	jr	ra
9d00a600:	27bd0018 	addiu	sp,sp,24

Disassembly of section .text._outcnvrt:

9d00a604 <_outcnvrt>:
9d00a604:	27bdffd8 	addiu	sp,sp,-40
9d00a608:	afbf0024 	sw	ra,36(sp)
9d00a60c:	afb40020 	sw	s4,32(sp)
9d00a610:	afb3001c 	sw	s3,28(sp)
9d00a614:	afb20018 	sw	s2,24(sp)
9d00a618:	afb10014 	sw	s1,20(sp)
9d00a61c:	afb00010 	sw	s0,16(sp)
9d00a620:	00809821 	move	s3,a0
9d00a624:	00a0a021 	move	s4,a1
9d00a628:	97a20038 	lhu	v0,56(sp)
9d00a62c:	30420008 	andi	v0,v0,0x8
9d00a630:	00c08021 	move	s0,a2
9d00a634:	10400014 	beqz	v0,9d00a688 <_outcnvrt+0x84>
9d00a638:	00e08821 	move	s1,a3
9d00a63c:	00a02021 	move	a0,a1
9d00a640:	00c02821 	move	a1,a2
9d00a644:	0f402fe8 	jal	9d00bfa0 <__sputn>
9d00a648:	02603021 	move	a2,s3
9d00a64c:	2403ffff 	li	v1,-1
9d00a650:	10430003 	beq	v0,v1,9d00a660 <_outcnvrt+0x5c>
9d00a654:	0211902a 	slt	s2,s0,s1
9d00a658:	1640001c 	bnez	s2,9d00a6cc <_outcnvrt+0xc8>
9d00a65c:	02602021 	move	a0,s3
9d00a660:	02201021 	move	v0,s1
9d00a664:	0212100a 	movz	v0,s0,s2
9d00a668:	8fbf0024 	lw	ra,36(sp)
9d00a66c:	8fb40020 	lw	s4,32(sp)
9d00a670:	8fb3001c 	lw	s3,28(sp)
9d00a674:	8fb20018 	lw	s2,24(sp)
9d00a678:	8fb10014 	lw	s1,20(sp)
9d00a67c:	8fb00010 	lw	s0,16(sp)
9d00a680:	03e00008 	jr	ra
9d00a684:	27bd0028 	addiu	sp,sp,40
9d00a688:	00c7902a 	slt	s2,a2,a3
9d00a68c:	1640001d 	bnez	s2,9d00a704 <_outcnvrt+0x100>
9d00a690:	00e62823 	subu	a1,a3,a2
9d00a694:	02802021 	move	a0,s4
9d00a698:	02002821 	move	a1,s0
9d00a69c:	0f402fe8 	jal	9d00bfa0 <__sputn>
9d00a6a0:	02603021 	move	a2,s3
9d00a6a4:	02201021 	move	v0,s1
9d00a6a8:	0212100a 	movz	v0,s0,s2
9d00a6ac:	8fbf0024 	lw	ra,36(sp)
9d00a6b0:	8fb40020 	lw	s4,32(sp)
9d00a6b4:	8fb3001c 	lw	s3,28(sp)
9d00a6b8:	8fb20018 	lw	s2,24(sp)
9d00a6bc:	8fb10014 	lw	s1,20(sp)
9d00a6c0:	8fb00010 	lw	s0,16(sp)
9d00a6c4:	03e00008 	jr	ra
9d00a6c8:	27bd0028 	addiu	sp,sp,40
9d00a6cc:	02302823 	subu	a1,s1,s0
9d00a6d0:	3c069d01 	lui	a2,0x9d01
9d00a6d4:	0f402df5 	jal	9d00b7d4 <repl>
9d00a6d8:	24c6bd94 	addiu	a2,a2,-17004
9d00a6dc:	02201021 	move	v0,s1
9d00a6e0:	0212100a 	movz	v0,s0,s2
9d00a6e4:	8fbf0024 	lw	ra,36(sp)
9d00a6e8:	8fb40020 	lw	s4,32(sp)
9d00a6ec:	8fb3001c 	lw	s3,28(sp)
9d00a6f0:	8fb20018 	lw	s2,24(sp)
9d00a6f4:	8fb10014 	lw	s1,20(sp)
9d00a6f8:	8fb00010 	lw	s0,16(sp)
9d00a6fc:	03e00008 	jr	ra
9d00a700:	27bd0028 	addiu	sp,sp,40
9d00a704:	3c069d01 	lui	a2,0x9d01
9d00a708:	0f402df5 	jal	9d00b7d4 <repl>
9d00a70c:	24c6bd94 	addiu	a2,a2,-17004
9d00a710:	2403ffff 	li	v1,-1
9d00a714:	1443ffdf 	bne	v0,v1,9d00a694 <_outcnvrt+0x90>
9d00a718:	02201021 	move	v0,s1
9d00a71c:	0212100a 	movz	v0,s0,s2
9d00a720:	8fbf0024 	lw	ra,36(sp)
9d00a724:	8fb40020 	lw	s4,32(sp)
9d00a728:	8fb3001c 	lw	s3,28(sp)
9d00a72c:	8fb20018 	lw	s2,24(sp)
9d00a730:	8fb10014 	lw	s1,20(sp)
9d00a734:	8fb00010 	lw	s0,16(sp)
9d00a738:	03e00008 	jr	ra
9d00a73c:	27bd0028 	addiu	sp,sp,40

Disassembly of section .text.ungetc:

9d00a740 <ungetc>:
9d00a740:	27bdffe0 	addiu	sp,sp,-32
9d00a744:	afbf001c 	sw	ra,28(sp)
9d00a748:	afb20018 	sw	s2,24(sp)
9d00a74c:	afb10014 	sw	s1,20(sp)
9d00a750:	afb00010 	sw	s0,16(sp)
9d00a754:	2412ffff 	li	s2,-1
9d00a758:	10920028 	beq	a0,s2,9d00a7fc <ungetc+0xbc>
9d00a75c:	00808821 	move	s1,a0
9d00a760:	00a08021 	move	s0,a1
9d00a764:	8ca20018 	lw	v0,24(a1)
9d00a768:	00a02021 	move	a0,a1
9d00a76c:	8c420010 	lw	v0,16(v0)
9d00a770:	0040f809 	jalr	v0
9d00a774:	24050002 	li	a1,2
9d00a778:	10400021 	beqz	v0,9d00a800 <ungetc+0xc0>
9d00a77c:	2402ffff 	li	v0,-1
9d00a780:	8e020000 	lw	v0,0(s0)
9d00a784:	10520037 	beq	v0,s2,9d00a864 <ungetc+0x124>
9d00a788:	00000000 	nop
9d00a78c:	8e02000c 	lw	v0,12(s0)
9d00a790:	50400017 	beqzl	v0,9d00a7f0 <ungetc+0xb0>
9d00a794:	8e030004 	lw	v1,4(s0)
9d00a798:	8e020004 	lw	v0,4(s0)
9d00a79c:	8e030008 	lw	v1,8(s0)
9d00a7a0:	0062182b 	sltu	v1,v1,v0
9d00a7a4:	1060001c 	beqz	v1,9d00a818 <ungetc+0xd8>
9d00a7a8:	8e030000 	lw	v1,0(s0)
9d00a7ac:	2442ffff 	addiu	v0,v0,-1
9d00a7b0:	ae020004 	sw	v0,4(s0)
9d00a7b4:	24630001 	addiu	v1,v1,1
9d00a7b8:	ae030000 	sw	v1,0(s0)
9d00a7bc:	90430000 	lbu	v1,0(v0)
9d00a7c0:	54710001 	bnel	v1,s1,9d00a7c8 <ungetc+0x88>
9d00a7c4:	a0510000 	sb	s1,0(v0)
9d00a7c8:	96030010 	lhu	v1,16(s0)
9d00a7cc:	02201021 	move	v0,s1
9d00a7d0:	7c032944 	ins	v1,zero,0x5,0x1
9d00a7d4:	a6030010 	sh	v1,16(s0)
9d00a7d8:	8fbf001c 	lw	ra,28(sp)
9d00a7dc:	8fb20018 	lw	s2,24(sp)
9d00a7e0:	8fb10014 	lw	s1,20(sp)
9d00a7e4:	8fb00010 	lw	s0,16(sp)
9d00a7e8:	03e00008 	jr	ra
9d00a7ec:	27bd0020 	addiu	sp,sp,32
9d00a7f0:	2402ffff 	li	v0,-1
9d00a7f4:	50620011 	beql	v1,v0,9d00a83c <ungetc+0xfc>
9d00a7f8:	96030010 	lhu	v1,16(s0)
9d00a7fc:	2402ffff 	li	v0,-1
9d00a800:	8fbf001c 	lw	ra,28(sp)
9d00a804:	8fb20018 	lw	s2,24(sp)
9d00a808:	8fb10014 	lw	s1,20(sp)
9d00a80c:	8fb00010 	lw	s0,16(sp)
9d00a810:	03e00008 	jr	ra
9d00a814:	27bd0020 	addiu	sp,sp,32
9d00a818:	5060ffe7 	beqzl	v1,9d00a7b8 <ungetc+0x78>
9d00a81c:	24630001 	addiu	v1,v1,1
9d00a820:	02201021 	move	v0,s1
9d00a824:	8fbf001c 	lw	ra,28(sp)
9d00a828:	8fb20018 	lw	s2,24(sp)
9d00a82c:	8fb10014 	lw	s1,20(sp)
9d00a830:	8fb00010 	lw	s0,16(sp)
9d00a834:	03e00008 	jr	ra
9d00a838:	27bd0020 	addiu	sp,sp,32
9d00a83c:	ae110004 	sw	s1,4(s0)
9d00a840:	02201021 	move	v0,s1
9d00a844:	7c032944 	ins	v1,zero,0x5,0x1
9d00a848:	a6030010 	sh	v1,16(s0)
9d00a84c:	8fbf001c 	lw	ra,28(sp)
9d00a850:	8fb20018 	lw	s2,24(sp)
9d00a854:	8fb10014 	lw	s1,20(sp)
9d00a858:	8fb00010 	lw	s0,16(sp)
9d00a85c:	03e00008 	jr	ra
9d00a860:	27bd0020 	addiu	sp,sp,32
9d00a864:	0f402e43 	jal	9d00b90c <_i_init>
9d00a868:	02002021 	move	a0,s0
9d00a86c:	0b4029e4 	j	9d00a790 <ungetc+0x50>
9d00a870:	8e02000c 	lw	v0,12(s0)

Disassembly of section .text.dpcmp:

9d00a874 <__eqdf2>:
9d00a874:	2409fffe 00055040 00075840 01645825     ...$@P..@X..%Xd.
9d00a884:	01665825 014b5025 15400003 00000000     %Xf.%PK...@.....
9d00a894:	1000003c 24020000                       <......$

9d00a89c <i56>:
9d00a89c:	10800002 	beqz	a0,9d00a8a8 <i57>
9d00a8a0:	00054040 	sll	t0,a1,0x1
9d00a8a4:	25080001 	addiu	t0,t0,1

9d00a8a8 <i57>:
9d00a8a8:	3c01ffe0 	lui	at,0xffe0
9d00a8ac:	34210001 	ori	at,at,0x1
9d00a8b0:	0101082b 	sltu	at,t0,at
9d00a8b4:	10200037 	beqz	at,9d00a994 <Lnan>
9d00a8b8:	00000000 	nop
9d00a8bc:	10c00002 	beqz	a2,9d00a8c8 <i58>
9d00a8c0:	00074040 	sll	t0,a3,0x1
9d00a8c4:	25080001 	addiu	t0,t0,1

9d00a8c8 <i58>:
9d00a8c8:	3c01ffe0 	lui	at,0xffe0
9d00a8cc:	34210001 	ori	at,at,0x1
9d00a8d0:	0101082b 	sltu	at,t0,at
9d00a8d4:	1020002f 	beqz	at,9d00a994 <Lnan>
9d00a8d8:	00000000 	nop
9d00a8dc:	04a10016 	bgez	a1,9d00a938 <i59>
9d00a8e0:	00000000 	nop
9d00a8e4:	04e00003 	bltz	a3,9d00a8f4 <i60>
9d00a8e8:	00000000 	nop
9d00a8ec:	10000026 	b	9d00a988 <L999>
9d00a8f0:	2402ffff 	li	v0,-1

9d00a8f4 <i60>:
9d00a8f4:	0086502b 	sltu	t2,a0,a2
9d00a8f8:	00862023 	subu	a0,a0,a2
9d00a8fc:	00aa582b 	sltu	t3,a1,t2
9d00a900:	00aa2823 	subu	a1,a1,t2
9d00a904:	00a7502b 	sltu	t2,a1,a3
9d00a908:	014b5025 	or	t2,t2,t3
9d00a90c:	11400003 	beqz	t2,9d00a91c <i61>
9d00a910:	00a72823 	subu	a1,a1,a3
9d00a914:	1000001c 	b	9d00a988 <L999>
9d00a918:	24020001 	li	v0,1

9d00a91c <i61>:
9d00a91c:	00a45025 	or	t2,a1,a0
9d00a920:	11400003 	beqz	t2,9d00a930 <i62>
9d00a924:	00000000 	nop
9d00a928:	10000017 	b	9d00a988 <L999>
9d00a92c:	2402ffff 	li	v0,-1

9d00a930 <i62>:
9d00a930:	10000015 	b	9d00a988 <L999>
9d00a934:	24020000 	li	v0,0

9d00a938 <i59>:
9d00a938:	04e10003 	bgez	a3,9d00a948 <i63>
9d00a93c:	00000000 	nop
9d00a940:	10000011 	b	9d00a988 <L999>
9d00a944:	24020001 	li	v0,1

9d00a948 <i63>:
9d00a948:	0086502b 	sltu	t2,a0,a2
9d00a94c:	00862023 	subu	a0,a0,a2
9d00a950:	00aa582b 	sltu	t3,a1,t2
9d00a954:	00aa2823 	subu	a1,a1,t2
9d00a958:	00a7502b 	sltu	t2,a1,a3
9d00a95c:	014b5025 	or	t2,t2,t3
9d00a960:	11400003 	beqz	t2,9d00a970 <i64>
9d00a964:	00a72823 	subu	a1,a1,a3
9d00a968:	10000007 	b	9d00a988 <L999>
9d00a96c:	2402ffff 	li	v0,-1

9d00a970 <i64>:
9d00a970:	00a45025 	or	t2,a1,a0
9d00a974:	11400003 	beqz	t2,9d00a984 <i65>
9d00a978:	00000000 	nop
9d00a97c:	10000002 	b	9d00a988 <L999>
9d00a980:	24020001 	li	v0,1

9d00a984 <i65>:
9d00a984:	24020000 	li	v0,0

9d00a988 <L999>:
9d00a988:	03e00008 	jr	ra
9d00a98c:	00000000 	nop
9d00a990:	00000000 	nop

9d00a994 <Lnan>:
9d00a994:	1000fffc 	b	9d00a988 <L999>
9d00a998:	00091025 	or	v0,zero,t1
9d00a99c:	00000000 	nop

Disassembly of section .text.libm:

9d00a9a0 <dpmodf>:
9d00a9a0:	00043825 00054025 3c018000 00a15824     %8..%@.....<$X..
9d00a9b0:	00054840 00094d42 252cffff 2d8107fe     @H..BM....,%...-
9d00a9c0:	10200037 00000000 240a0433 01495023     7. .....3..$#PI.
9d00a9d0:	29410035 1020002f 00000000 29410020     5.A)/. ..... .A)
9d00a9e0:	14200006 00000000 254affe0 24040000     .. .......J%...$
9d00a9f0:	01452806 10000005 01452804              .(E......(E.

9d00a9fc <i12>:
9d00a9fc:	19400003 	blez	t2,9d00aa0c <e12>
9d00aa00:	00000000 	nop
9d00aa04:	01442006 	srlv	a0,a0,t2
9d00aa08:	01442004 	sllv	a0,a0,t2

9d00aa0c <e12>:
9d00aa0c:	01054023 	subu	t0,t0,a1
9d00aa10:	00e43823 	subu	a3,a3,a0
9d00aa14:	acc40000 	sw	a0,0(a2)
9d00aa18:	acc50004 	sw	a1,4(a2)
9d00aa1c:	15000008 	bnez	t0,9d00aa40 <L16>
9d00aa20:	2529000b 	addiu	t1,t1,11
9d00aa24:	14e00003 	bnez	a3,9d00aa34 <L17>
9d00aa28:	00000000 	nop
9d00aa2c:	1000000d 	b	9d00aa64 <L18>
9d00aa30:	24090000 	li	t1,0

9d00aa34 <L17>:
9d00aa34:	00e04025 	move	t0,a3
9d00aa38:	24070000 	li	a3,0
9d00aa3c:	2529ffe0 	addiu	t1,t1,-32

9d00aa40 <L16>:
9d00aa40:	71042020 	clz	a0,t0
9d00aa44:	10800007 	beqz	a0,9d00aa64 <L18>
9d00aa48:	00000000 	nop
9d00aa4c:	01244823 	subu	t1,t1,a0
9d00aa50:	00045022 	neg	t2,a0
9d00aa54:	01475006 	srlv	t2,a3,t2
9d00aa58:	00873804 	sllv	a3,a3,a0
9d00aa5c:	00884004 	sllv	t0,t0,a0
9d00aa60:	010a4025 	or	t0,t0,t2

9d00aa64 <L18>:
9d00aa64:	000722c2 	srl	a0,a3,0xb
9d00aa68:	00086540 	sll	t4,t0,0x15
9d00aa6c:	008c2025 	or	a0,a0,t4
9d00aa70:	00082840 	sll	a1,t0,0x1
9d00aa74:	00052b02 	srl	a1,a1,0xc
9d00aa78:	00096500 	sll	t4,t1,0x14
9d00aa7c:	00ac2825 	or	a1,a1,t4
9d00aa80:	00ab2825 	or	a1,a1,t3

9d00aa84 <Dret2>:
9d00aa84:	00041025 	or	v0,zero,a0
9d00aa88:	00051825 	or	v1,zero,a1

9d00aa8c <D999>:
9d00aa8c:	03e00008 	jr	ra
9d00aa90:	00000000 	nop

9d00aa94 <Dzer>:
9d00aa94:	accb0004 	sw	t3,4(a2)
9d00aa98:	1000fffa 	b	9d00aa84 <Dret2>
9d00aa9c:	acc00000 	sw	zero,0(a2)

9d00aaa0 <Dspec>:
9d00aaa0:	1120fffc 	beqz	t1,9d00aa94 <Dzer>
9d00aaa4:	00000000 	nop
9d00aaa8:	3c05fff8 	lui	a1,0xfff8
9d00aaac:	24040000 	li	a0,0
9d00aab0:	acc40000 	sw	a0,0(a2)
9d00aab4:	1000fff3 	b	9d00aa84 <Dret2>
9d00aab8:	acc50004 	sw	a1,4(a2)
9d00aabc:	00000000 	nop

Disassembly of section .text.putget.2782:

9d00aac0 <putget.2782>:
9d00aac0:	27bdffe0 	addiu	sp,sp,-32
9d00aac4:	afbf001c 	sw	ra,28(sp)
9d00aac8:	afb10018 	sw	s1,24(sp)
9d00aacc:	afb00014 	sw	s0,20(sp)
9d00aad0:	01e08021 	move	s0,t7
9d00aad4:	8de50014 	lw	a1,20(t7)
9d00aad8:	8de20010 	lw	v0,16(t7)
9d00aadc:	10a20019 	beq	a1,v0,9d00ab44 <putget.2782+0x84>
9d00aae0:	00808821 	move	s1,a0
9d00aae4:	8de20008 	lw	v0,8(t7)
9d00aae8:	24a30001 	addiu	v1,a1,1
9d00aaec:	00452821 	addu	a1,v0,a1
9d00aaf0:	ae030014 	sw	v1,20(s0)
9d00aaf4:	1220000d 	beqz	s1,9d00ab2c <putget.2782+0x6c>
9d00aaf8:	a0b10000 	sb	s1,0(a1)
9d00aafc:	8e020004 	lw	v0,4(s0)
9d00ab00:	1040000a 	beqz	v0,9d00ab2c <putget.2782+0x6c>
9d00ab04:	2411ffff 	li	s1,-1
9d00ab08:	0f403036 	jal	9d00c0d8 <gsgetc>
9d00ab0c:	8e040000 	lw	a0,0(s0)
9d00ab10:	00408821 	move	s1,v0
9d00ab14:	2402ffff 	li	v0,-1
9d00ab18:	12220005 	beq	s1,v0,9d00ab30 <putget.2782+0x70>
9d00ab1c:	02201021 	move	v0,s1
9d00ab20:	8e020004 	lw	v0,4(s0)
9d00ab24:	2442ffff 	addiu	v0,v0,-1
9d00ab28:	ae020004 	sw	v0,4(s0)
9d00ab2c:	02201021 	move	v0,s1
9d00ab30:	8fbf001c 	lw	ra,28(sp)
9d00ab34:	8fb10018 	lw	s1,24(sp)
9d00ab38:	8fb00014 	lw	s0,20(sp)
9d00ab3c:	03e00008 	jr	ra
9d00ab40:	27bd0020 	addiu	sp,sp,32
9d00ab44:	8de4000c 	lw	a0,12(t7)
9d00ab48:	24a50080 	addiu	a1,a1,128
9d00ab4c:	10800007 	beqz	a0,9d00ab6c <putget.2782+0xac>
9d00ab50:	ade50010 	sw	a1,16(t7)
9d00ab54:	0f4015b3 	jal	9d0056cc <realloc>
9d00ab58:	00000000 	nop
9d00ab5c:	ae02000c 	sw	v0,12(s0)
9d00ab60:	8e050014 	lw	a1,20(s0)
9d00ab64:	0b402aba 	j	9d00aae8 <putget.2782+0x28>
9d00ab68:	ae020008 	sw	v0,8(s0)
9d00ab6c:	0f40108f 	jal	9d00423c <malloc>
9d00ab70:	00a02021 	move	a0,a1
9d00ab74:	8e030008 	lw	v1,8(s0)
9d00ab78:	ae02000c 	sw	v0,12(s0)
9d00ab7c:	24680080 	addiu	t0,v1,128
9d00ab80:	88670003 	lwl	a3,3(v1)
9d00ab84:	88660007 	lwl	a2,7(v1)
9d00ab88:	8865000b 	lwl	a1,11(v1)
9d00ab8c:	8864000f 	lwl	a0,15(v1)
9d00ab90:	98670000 	lwr	a3,0(v1)
9d00ab94:	98660004 	lwr	a2,4(v1)
9d00ab98:	98650008 	lwr	a1,8(v1)
9d00ab9c:	9864000c 	lwr	a0,12(v1)
9d00aba0:	24630010 	addiu	v1,v1,16
9d00aba4:	ac470000 	sw	a3,0(v0)
9d00aba8:	ac460004 	sw	a2,4(v0)
9d00abac:	ac450008 	sw	a1,8(v0)
9d00abb0:	ac44000c 	sw	a0,12(v0)
9d00abb4:	1468fff2 	bne	v1,t0,9d00ab80 <putget.2782+0xc0>
9d00abb8:	24420010 	addiu	v0,v0,16
9d00abbc:	8e02000c 	lw	v0,12(s0)
9d00abc0:	8e050014 	lw	a1,20(s0)
9d00abc4:	0b402aba 	j	9d00aae8 <putget.2782+0x28>
9d00abc8:	ae020008 	sw	v0,8(s0)

Disassembly of section .rodata:

9d00abcc <_ctype>:
9d00abcc:	20202000 20202020 28282020 20282828     .         ((((( 
9d00abdc:	20202020 20202020 20202020 20202020                     
9d00abec:	10108020 10101010 10101010 10101010      ...............
9d00abfc:	04040410 04040404 10040404 10101010     ................
9d00ac0c:	41411010 41414141 01010101 01010101     ..AAAAAA........
9d00ac1c:	01010101 01010101 01010101 10101010     ................
9d00ac2c:	42421010 42424242 02020202 02020202     ..BBBBBB........
9d00ac3c:	02020202 02020202 02020202 10101010     ................
9d00ac4c:	00000020 00000000 00000000 00000000      ...............
	...

Disassembly of section .text.malloc_trim:

9d00acd0 <malloc_trim>:
9d00acd0:	27bdffe0 	addiu	sp,sp,-32
9d00acd4:	afbf001c 	sw	ra,28(sp)
9d00acd8:	afb20018 	sw	s2,24(sp)
9d00acdc:	afb10014 	sw	s1,20(sp)
9d00ace0:	afb00010 	sw	s0,16(sp)
9d00ace4:	0f403276 	jal	9d00c9d8 <getpagesize>
9d00ace8:	00809021 	move	s2,a0
9d00acec:	3c10a001 	lui	s0,0xa001
9d00acf0:	2610a92c 	addiu	s0,s0,-22228
9d00acf4:	8e030008 	lw	v1,8(s0)
9d00acf8:	8c710004 	lw	s1,4(v1)
9d00acfc:	7c110804 	ins	s1,zero,0x0,0x2
9d00ad00:	02322023 	subu	a0,s1,s2
9d00ad04:	2484ffef 	addiu	a0,a0,-17
9d00ad08:	00822021 	addu	a0,a0,v0
9d00ad0c:	0082001b 	divu	zero,a0,v0
9d00ad10:	004001f4 	teq	v0,zero,0x7
9d00ad14:	00009012 	mflo	s2
9d00ad18:	2652ffff 	addiu	s2,s2,-1
9d00ad1c:	72429002 	mul	s2,s2,v0
9d00ad20:	0242102a 	slt	v0,s2,v0
9d00ad24:	10400008 	beqz	v0,9d00ad48 <malloc_trim+0x78>
9d00ad28:	00000000 	nop
9d00ad2c:	00001021 	move	v0,zero
9d00ad30:	8fbf001c 	lw	ra,28(sp)
9d00ad34:	8fb20018 	lw	s2,24(sp)
9d00ad38:	8fb10014 	lw	s1,20(sp)
9d00ad3c:	8fb00010 	lw	s0,16(sp)
9d00ad40:	03e00008 	jr	ra
9d00ad44:	27bd0020 	addiu	sp,sp,32
9d00ad48:	0f4030ad 	jal	9d00c2b4 <sbrk>
9d00ad4c:	00002021 	move	a0,zero
9d00ad50:	8e030008 	lw	v1,8(s0)
9d00ad54:	00711821 	addu	v1,v1,s1
9d00ad58:	1443fff5 	bne	v0,v1,9d00ad30 <malloc_trim+0x60>
9d00ad5c:	00001021 	move	v0,zero
9d00ad60:	0f4030ad 	jal	9d00c2b4 <sbrk>
9d00ad64:	00122023 	negu	a0,s2
9d00ad68:	2403ffff 	li	v1,-1
9d00ad6c:	1043000a 	beq	v0,v1,9d00ad98 <malloc_trim+0xc8>
9d00ad70:	3c02a001 	lui	v0,0xa001
9d00ad74:	8c44ae90 	lw	a0,-20848(v0)
9d00ad78:	8e030008 	lw	v1,8(s0)
9d00ad7c:	02328823 	subu	s1,s1,s2
9d00ad80:	36310001 	ori	s1,s1,0x1
9d00ad84:	00929023 	subu	s2,a0,s2
9d00ad88:	ac710004 	sw	s1,4(v1)
9d00ad8c:	ac52ae90 	sw	s2,-20848(v0)
9d00ad90:	0b402b4c 	j	9d00ad30 <malloc_trim+0x60>
9d00ad94:	24020001 	li	v0,1
9d00ad98:	0f4030ad 	jal	9d00c2b4 <sbrk>
9d00ad9c:	00002021 	move	a0,zero
9d00ada0:	8e030008 	lw	v1,8(s0)
9d00ada4:	00432023 	subu	a0,v0,v1
9d00ada8:	28850010 	slti	a1,a0,16
9d00adac:	54a0ffe0 	bnezl	a1,9d00ad30 <malloc_trim+0x60>
9d00adb0:	00001021 	move	v0,zero
9d00adb4:	3c05a001 	lui	a1,0xa001
9d00adb8:	8ca5a924 	lw	a1,-22236(a1)
9d00adbc:	34840001 	ori	a0,a0,0x1
9d00adc0:	00451023 	subu	v0,v0,a1
9d00adc4:	3c05a001 	lui	a1,0xa001
9d00adc8:	aca2ae90 	sw	v0,-20848(a1)
9d00adcc:	0b402b4b 	j	9d00ad2c <malloc_trim+0x5c>
9d00add0:	ac640004 	sw	a0,4(v1)

Disassembly of section .text.__ldexpf:

9d00add4 <__ldexpf>:
9d00add4:	7c863dc0 	ext	a2,a0,0x17,0x8
9d00add8:	24c8ffff 	addiu	t0,a2,-1
9d00addc:	2d0800fe 	sltiu	t0,t0,254
9d00ade0:	00044fc2 	srl	t1,a0,0x1f
9d00ade4:	1100002b 	beqz	t0,9d00ae94 <__ldexpf+0xc0>
9d00ade8:	7c87b000 	ext	a3,a0,0x0,0x17
9d00adec:	24c6ff81 	addiu	a2,a2,-127
9d00adf0:	3c020080 	lui	v0,0x80
9d00adf4:	00e21025 	or	v0,a3,v0
9d00adf8:	00c53021 	addu	a2,a2,a1
9d00adfc:	24c3007f 	addiu	v1,a2,127
9d00ae00:	18600018 	blez	v1,9d00ae64 <__ldexpf+0x90>
9d00ae04:	000210c0 	sll	v0,v0,0x3
9d00ae08:	30440007 	andi	a0,v0,0x7
9d00ae0c:	1480000d 	bnez	a0,9d00ae44 <__ldexpf+0x70>
9d00ae10:	7c4400c0 	ext	a0,v0,0x3,0x1
9d00ae14:	286400ff 	slti	a0,v1,255
9d00ae18:	10800024 	beqz	a0,9d00aeac <__ldexpf+0xd8>
9d00ae1c:	000210c2 	srl	v0,v0,0x3
9d00ae20:	7c4405c0 	ext	a0,v0,0x17,0x1
9d00ae24:	50800002 	beqzl	a0,9d00ae30 <__ldexpf+0x5c>
9d00ae28:	00001821 	move	v1,zero
9d00ae2c:	7c42b000 	ext	v0,v0,0x0,0x17
9d00ae30:	00094a00 	sll	t1,t1,0x8
9d00ae34:	00691825 	or	v1,v1,t1
9d00ae38:	00031dc0 	sll	v1,v1,0x17
9d00ae3c:	03e00008 	jr	ra
9d00ae40:	00621025 	or	v0,v1,v0
9d00ae44:	24420003 	addiu	v0,v0,3
9d00ae48:	00441021 	addu	v0,v0,a0
9d00ae4c:	000226c2 	srl	a0,v0,0x1b
9d00ae50:	1080fff1 	beqz	a0,9d00ae18 <__ldexpf+0x44>
9d00ae54:	286400ff 	slti	a0,v1,255
9d00ae58:	00021042 	srl	v0,v0,0x1
9d00ae5c:	0b402b85 	j	9d00ae14 <__ldexpf+0x40>
9d00ae60:	24630001 	addiu	v1,v1,1
9d00ae64:	2403ff82 	li	v1,-126
9d00ae68:	00661823 	subu	v1,v1,a2
9d00ae6c:	2864001b 	slti	a0,v1,27
9d00ae70:	50800012 	beqzl	a0,9d00aebc <__ldexpf+0xe8>
9d00ae74:	00001021 	move	v0,zero
9d00ae78:	24c4009e 	addiu	a0,a2,158
9d00ae7c:	00822004 	sllv	a0,v0,a0
9d00ae80:	00621006 	srlv	v0,v0,v1
9d00ae84:	0004182b 	sltu	v1,zero,a0
9d00ae88:	00621025 	or	v0,v1,v0
9d00ae8c:	0b402b82 	j	9d00ae08 <__ldexpf+0x34>
9d00ae90:	24030001 	li	v1,1
9d00ae94:	14c00003 	bnez	a2,9d00aea4 <__ldexpf+0xd0>
9d00ae98:	00000000 	nop
9d00ae9c:	14e00009 	bnez	a3,9d00aec4 <__ldexpf+0xf0>
9d00aea0:	70e31820 	clz	v1,a3
9d00aea4:	03e00008 	jr	ra
9d00aea8:	00801021 	move	v0,a0
9d00aeac:	00091200 	sll	v0,t1,0x8
9d00aeb0:	344200ff 	ori	v0,v0,0xff
9d00aeb4:	03e00008 	jr	ra
9d00aeb8:	000215c0 	sll	v0,v0,0x17
9d00aebc:	0b402b8c 	j	9d00ae30 <__ldexpf+0x5c>
9d00aec0:	00001821 	move	v1,zero
9d00aec4:	2462fff8 	addiu	v0,v1,-8
9d00aec8:	00471004 	sllv	v0,a3,v0
9d00aecc:	2406ff8a 	li	a2,-118
9d00aed0:	0b402b7e 	j	9d00adf8 <__ldexpf+0x24>
9d00aed4:	00c33023 	subu	a2,a2,v1

Disassembly of section .text.dptofp:

9d00aed8 <__truncdfsf2>:
9d00aed8:	00053ac0 00045d42 00eb3825 000432c0     .:..B]..%8...2..
9d00aee8:	3c018000 00e13825 3c018000 00a14824     ...<%8.....<$H..
9d00aef8:	00054040 00084542 2508fc80 250bffff     @@..BE.....%...%
9d00af08:	2d6100fe 10200012 00000000              ..a-.. .....

9d00af14 <Hlab1>:
9d00af14:	10c00002 	beqz	a2,9d00af20 <i45>
9d00af18:	00000000 	nop
9d00af1c:	34e70001 	ori	a3,a3,0x1

9d00af20 <i45>:
9d00af20:	24e70080 	addiu	a3,a3,128
9d00af24:	2ceb0080 	sltiu	t3,a3,128
9d00af28:	010b4021 	addu	t0,t0,t3
9d00af2c:	00075a02 	srl	t3,a3,0x8
9d00af30:	316b0001 	andi	t3,t3,0x1
9d00af34:	00eb3823 	subu	a3,a3,t3
9d00af38:	00073840 	sll	a3,a3,0x1
9d00af3c:	00073a42 	srl	a3,a3,0x9
9d00af40:	00085dc0 	sll	t3,t0,0x17
9d00af44:	00eb3825 	or	a3,a3,t3
9d00af48:	00e91025 	or	v0,a3,t1

9d00af4c <H999>:
9d00af4c:	03e00008 	jr	ra
9d00af50:	00000000 	nop
9d00af54:	00000000 	nop

9d00af58 <Hspec>:
9d00af58:	2401047f 	li	at,1151
9d00af5c:	15010007 	bne	t0,at,9d00af7c <i46>
9d00af60:	00000000 	nop
9d00af64:	00075840 	sll	t3,a3,0x1
9d00af68:	01665825 	or	t3,t3,a2
9d00af6c:	11600003 	beqz	t3,9d00af7c <i46>
9d00af70:	00000000 	nop
9d00af74:	1000fff5 	b	9d00af4c <H999>
9d00af78:	3c02ffc0 	lui	v0,0xffc0

9d00af7c <i46>:
9d00af7c:	290100ff 	slti	at,t0,255
9d00af80:	14200004 	bnez	at,9d00af94 <i48>
9d00af84:	00000000 	nop
9d00af88:	3c017f80 	lui	at,0x7f80
9d00af8c:	1000ffef 	b	9d00af4c <H999>
9d00af90:	01211025 	or	v0,t1,at

9d00af94 <i48>:
9d00af94:	240a0001 	li	t2,1
9d00af98:	01485023 	subu	t2,t2,t0
9d00af9c:	2d410020 	sltiu	at,t2,32
9d00afa0:	14200003 	bnez	at,9d00afb0 <i49>
9d00afa4:	00000000 	nop
9d00afa8:	1000ffe8 	b	9d00af4c <H999>
9d00afac:	00091025 	or	v0,zero,t1

9d00afb0 <i49>:
9d00afb0:	240c0020 	li	t4,32
9d00afb4:	018a6023 	subu	t4,t4,t2
9d00afb8:	01875804 	sllv	t3,a3,t4
9d00afbc:	00cb3025 	or	a2,a2,t3
9d00afc0:	01473806 	srlv	a3,a3,t2
9d00afc4:	24080000 	li	t0,0
9d00afc8:	3c018000 	lui	at,0x8000
9d00afcc:	1000ffd1 	b	9d00af14 <Hlab1>
9d00afd0:	00e13825 	or	a3,a3,at
9d00afd4:	00000000 	nop

Disassembly of section .text._flsbuf_simple:

9d00afd8 <_flsbuf_simple>:
9d00afd8:	27bdffd8 	addiu	sp,sp,-40
9d00afdc:	afbf0024 	sw	ra,36(sp)
9d00afe0:	afb10020 	sw	s1,32(sp)
9d00afe4:	afb0001c 	sw	s0,28(sp)
9d00afe8:	00a08021 	move	s0,a1
9d00afec:	8ca2000c 	lw	v0,12(a1)
9d00aff0:	1040002d 	beqz	v0,9d00b0a8 <_flsbuf_simple+0xd0>
9d00aff4:	00808821 	move	s1,a0
9d00aff8:	8ca20000 	lw	v0,0(a1)
9d00affc:	24420001 	addiu	v0,v0,1
9d00b000:	2403ffff 	li	v1,-1
9d00b004:	1043001e 	beq	v0,v1,9d00b080 <_flsbuf_simple+0xa8>
9d00b008:	aca20000 	sw	v0,0(a1)
9d00b00c:	0f402ef6 	jal	9d00bbd8 <_fflush_simple>
9d00b010:	02002021 	move	a0,s0
9d00b014:	8e040000 	lw	a0,0(s0)
9d00b018:	8e020004 	lw	v0,4(s0)
9d00b01c:	2484ffff 	addiu	a0,a0,-1
9d00b020:	24430001 	addiu	v1,v0,1
9d00b024:	ae040000 	sw	a0,0(s0)
9d00b028:	ae030004 	sw	v1,4(s0)
9d00b02c:	a0510000 	sb	s1,0(v0)
9d00b030:	2402000a 	li	v0,10
9d00b034:	52220007 	beql	s1,v0,9d00b054 <_flsbuf_simple+0x7c>
9d00b038:	96020010 	lhu	v0,16(s0)
9d00b03c:	02201021 	move	v0,s1
9d00b040:	8fbf0024 	lw	ra,36(sp)
9d00b044:	8fb10020 	lw	s1,32(sp)
9d00b048:	8fb0001c 	lw	s0,28(sp)
9d00b04c:	03e00008 	jr	ra
9d00b050:	27bd0028 	addiu	sp,sp,40
9d00b054:	30420008 	andi	v0,v0,0x8
9d00b058:	1040fff9 	beqz	v0,9d00b040 <_flsbuf_simple+0x68>
9d00b05c:	02201021 	move	v0,s1
9d00b060:	0f402ef6 	jal	9d00bbd8 <_fflush_simple>
9d00b064:	02002021 	move	a0,s0
9d00b068:	02201021 	move	v0,s1
9d00b06c:	8fbf0024 	lw	ra,36(sp)
9d00b070:	8fb10020 	lw	s1,32(sp)
9d00b074:	8fb0001c 	lw	s0,28(sp)
9d00b078:	03e00008 	jr	ra
9d00b07c:	27bd0028 	addiu	sp,sp,40
9d00b080:	8ca20008 	lw	v0,8(a1)
9d00b084:	1440ffe1 	bnez	v0,9d00b00c <_flsbuf_simple+0x34>
9d00b088:	00000000 	nop
9d00b08c:	94a20010 	lhu	v0,16(a1)
9d00b090:	aca00004 	sw	zero,4(a1)
9d00b094:	aca0000c 	sw	zero,12(a1)
9d00b098:	34420010 	ori	v0,v0,0x10
9d00b09c:	aca00000 	sw	zero,0(a1)
9d00b0a0:	0b402c03 	j	9d00b00c <_flsbuf_simple+0x34>
9d00b0a4:	a4a20010 	sh	v0,16(a1)
9d00b0a8:	27a40010 	addiu	a0,sp,16
9d00b0ac:	24050001 	li	a1,1
9d00b0b0:	0f4030c1 	jal	9d00c304 <.LCFI11>
9d00b0b4:	a3b10010 	sb	s1,16(sp)
9d00b0b8:	ae000000 	sw	zero,0(s0)
9d00b0bc:	02201021 	move	v0,s1
9d00b0c0:	8fbf0024 	lw	ra,36(sp)
9d00b0c4:	8fb10020 	lw	s1,32(sp)
9d00b0c8:	8fb0001c 	lw	s0,28(sp)
9d00b0cc:	03e00008 	jr	ra
9d00b0d0:	27bd0028 	addiu	sp,sp,40

Disassembly of section .text.strchr:

9d00b0d4 <strchr>:
9d00b0d4:	30820003 	andi	v0,a0,0x3
9d00b0d8:	14400034 	bnez	v0,9d00b1ac <strchr+0xd8>
9d00b0dc:	30a600ff 	andi	a2,a1,0xff
9d00b0e0:	30a500ff 	andi	a1,a1,0xff
9d00b0e4:	00054a00 	sll	t1,a1,0x8
9d00b0e8:	8c820000 	lw	v0,0(a0)
9d00b0ec:	01252825 	or	a1,t1,a1
9d00b0f0:	00054c00 	sll	t1,a1,0x10
9d00b0f4:	01254825 	or	t1,t1,a1
9d00b0f8:	01221826 	xor	v1,t1,v0
9d00b0fc:	3c05fefe 	lui	a1,0xfefe
9d00b100:	34a5feff 	ori	a1,a1,0xfeff
9d00b104:	00034027 	nor	t0,zero,v1
9d00b108:	00651821 	addu	v1,v1,a1
9d00b10c:	00023827 	nor	a3,zero,v0
9d00b110:	00451021 	addu	v0,v0,a1
9d00b114:	01031824 	and	v1,t0,v1
9d00b118:	00e21024 	and	v0,a3,v0
9d00b11c:	00621025 	or	v0,v1,v0
9d00b120:	3c0a8080 	lui	t2,0x8080
9d00b124:	354a8080 	ori	t2,t2,0x8080
9d00b128:	004a1024 	and	v0,v0,t2
9d00b12c:	54400020 	bnezl	v0,9d00b1b0 <strchr+0xdc>
9d00b130:	90820000 	lbu	v0,0(a0)
9d00b134:	24840004 	addiu	a0,a0,4
9d00b138:	8c820000 	lw	v0,0(a0)
9d00b13c:	01221826 	xor	v1,t1,v0
9d00b140:	00034027 	nor	t0,zero,v1
9d00b144:	00651821 	addu	v1,v1,a1
9d00b148:	00023827 	nor	a3,zero,v0
9d00b14c:	00451021 	addu	v0,v0,a1
9d00b150:	01031824 	and	v1,t0,v1
9d00b154:	00e21024 	and	v0,a3,v0
9d00b158:	00621025 	or	v0,v1,v0
9d00b15c:	004a1024 	and	v0,v0,t2
9d00b160:	54400013 	bnezl	v0,9d00b1b0 <strchr+0xdc>
9d00b164:	90820000 	lbu	v0,0(a0)
9d00b168:	24840004 	addiu	a0,a0,4
9d00b16c:	8c820000 	lw	v0,0(a0)
9d00b170:	01221826 	xor	v1,t1,v0
9d00b174:	00034027 	nor	t0,zero,v1
9d00b178:	00651821 	addu	v1,v1,a1
9d00b17c:	00023827 	nor	a3,zero,v0
9d00b180:	00451021 	addu	v0,v0,a1
9d00b184:	01031824 	and	v1,t0,v1
9d00b188:	00e21024 	and	v0,a3,v0
9d00b18c:	00621025 	or	v0,v1,v0
9d00b190:	004a1024 	and	v0,v0,t2
9d00b194:	5040ffe8 	beqzl	v0,9d00b138 <strchr+0x64>
9d00b198:	24840004 	addiu	a0,a0,4
9d00b19c:	0b402c6c 	j	9d00b1b0 <strchr+0xdc>
9d00b1a0:	90820000 	lbu	v0,0(a0)
9d00b1a4:	10400006 	beqz	v0,9d00b1c0 <strchr+0xec>
9d00b1a8:	24840001 	addiu	a0,a0,1
9d00b1ac:	90820000 	lbu	v0,0(a0)
9d00b1b0:	1446fffc 	bne	v0,a2,9d00b1a4 <strchr+0xd0>
9d00b1b4:	00000000 	nop
9d00b1b8:	03e00008 	jr	ra
9d00b1bc:	00801021 	move	v0,a0
9d00b1c0:	03e00008 	jr	ra
9d00b1c4:	00001021 	move	v0,zero

Disassembly of section .text._mon_getc:

9d00b1c8 <_mon_getc>:
9d00b1c8:	27bdffe8 	addiu	sp,sp,-24

9d00b1cc <.LCFI0>:
9d00b1cc:	afbf0014 	sw	ra,20(sp)
9d00b1d0:	3c02a000 	lui	v0,0xa000
9d00b1d4:	8c430014 	lw	v1,20(v0)
9d00b1d8:	5460000a 	bnezl	v1,9d00b204 <.LCFI0+0x38>
9d00b1dc:	3c04bf80 	lui	a0,0xbf80
9d00b1e0:	3c020000 	lui	v0,0x0
9d00b1e4:	24420000 	addiu	v0,v0,0
9d00b1e8:	10400024 	beqz	v0,9d00b27c <.LCFI0+0xb0>
9d00b1ec:	3c020000 	lui	v0,0x0
9d00b1f0:	0c000000 	jal	90000000 <_bmxdudba_address+0x8ffe0000>
9d00b1f4:	00000000 	nop
9d00b1f8:	8fbf0014 	lw	ra,20(sp)
9d00b1fc:	03e00008 	jr	ra
9d00b200:	27bd0018 	addiu	sp,sp,24
9d00b204:	24846010 	addiu	a0,a0,24592
9d00b208:	1080fffb 	beqz	a0,9d00b1f8 <.LCFI0+0x2c>
9d00b20c:	2402ffff 	li	v0,-1
9d00b210:	24020002 	li	v0,2
9d00b214:	10620020 	beq	v1,v0,9d00b298 <.LCFI0+0xcc>
9d00b218:	3c02bf80 	lui	v0,0xbf80
9d00b21c:	3c02bf80 	lui	v0,0xbf80
9d00b220:	8c426000 	lw	v0,24576(v0)
9d00b224:	3c05bf80 	lui	a1,0xbf80
9d00b228:	24a56030 	addiu	a1,a1,24624
9d00b22c:	30428000 	andi	v0,v0,0x8000
9d00b230:	14400003 	bnez	v0,9d00b240 <.LCFI0+0x74>
9d00b234:	34038000 	li	v1,0x8000
9d00b238:	3c02bf80 	lui	v0,0xbf80
9d00b23c:	ac436008 	sw	v1,24584(v0)
9d00b240:	8c820000 	lw	v0,0(a0)
9d00b244:	30420001 	andi	v0,v0,0x1
9d00b248:	14400009 	bnez	v0,9d00b270 <.LCFI0+0xa4>
9d00b24c:	00000000 	nop
9d00b250:	0b402c98 	j	9d00b260 <.LCFI0+0x94>
9d00b254:	240200a0 	li	v0,160
9d00b258:	10400005 	beqz	v0,9d00b270 <.LCFI0+0xa4>
9d00b25c:	00000000 	nop
9d00b260:	8c830000 	lw	v1,0(a0)
9d00b264:	30630001 	andi	v1,v1,0x1
9d00b268:	1060fffb 	beqz	v1,9d00b258 <.LCFI0+0x8c>
9d00b26c:	2442ffff 	addiu	v0,v0,-1
9d00b270:	8ca20000 	lw	v0,0(a1)
9d00b274:	0b402c7f 	j	9d00b1fc <.LCFI0+0x30>
9d00b278:	8fbf0014 	lw	ra,20(sp)
9d00b27c:	24420000 	addiu	v0,v0,0
9d00b280:	5040000b 	beqzl	v0,9d00b2b0 <.LCFI0+0xe4>
9d00b284:	3c04bf80 	lui	a0,0xbf80
9d00b288:	0c000000 	jal	90000000 <_bmxdudba_address+0x8ffe0000>
9d00b28c:	00000000 	nop
9d00b290:	0b402c7f 	j	9d00b1fc <.LCFI0+0x30>
9d00b294:	8fbf0014 	lw	ra,20(sp)
9d00b298:	8c426800 	lw	v0,26624(v0)
9d00b29c:	3c05bf80 	lui	a1,0xbf80
9d00b2a0:	24a56830 	addiu	a1,a1,26672
9d00b2a4:	3c04bf80 	lui	a0,0xbf80
9d00b2a8:	0b402c8b 	j	9d00b22c <.LCFI0+0x60>
9d00b2ac:	24846810 	addiu	a0,a0,26640
9d00b2b0:	0b402c87 	j	9d00b21c <.LCFI0+0x50>
9d00b2b4:	24846010 	addiu	a0,a0,24592

Disassembly of section .text.general_exception:

9d00b2b8 <_general_exception_context>:
9d00b2b8:	27bdffa8 	addiu	sp,sp,-88
9d00b2bc:	afa10004 	sw	at,4(sp)
9d00b2c0:	afa20008 	sw	v0,8(sp)
9d00b2c4:	afa3000c 	sw	v1,12(sp)
9d00b2c8:	afa40010 	sw	a0,16(sp)
9d00b2cc:	afa50014 	sw	a1,20(sp)
9d00b2d0:	afa60018 	sw	a2,24(sp)
9d00b2d4:	afa7001c 	sw	a3,28(sp)
9d00b2d8:	afa80020 	sw	t0,32(sp)
9d00b2dc:	afa90024 	sw	t1,36(sp)
9d00b2e0:	afaa0028 	sw	t2,40(sp)
9d00b2e4:	afab002c 	sw	t3,44(sp)
9d00b2e8:	afac0030 	sw	t4,48(sp)
9d00b2ec:	afad0034 	sw	t5,52(sp)
9d00b2f0:	afae0038 	sw	t6,56(sp)
9d00b2f4:	afaf003c 	sw	t7,60(sp)
9d00b2f8:	afb80040 	sw	t8,64(sp)
9d00b2fc:	afb90044 	sw	t9,68(sp)
9d00b300:	afbf0048 	sw	ra,72(sp)
9d00b304:	00004012 	mflo	t0
9d00b308:	afa8004c 	sw	t0,76(sp)
9d00b30c:	00004010 	mfhi	t0
9d00b310:	afa80050 	sw	t0,80(sp)
9d00b314:	3c1a9d01 	lui	k0,0x9d01
9d00b318:	275ac3e0 	addiu	k0,k0,-15392
9d00b31c:	00000000 	nop
9d00b320:	40046800 	mfc0	a0,c0_cause
9d00b324:	40056000 	mfc0	a1,c0_status
9d00b328:	0340f809 	jalr	k0
9d00b32c:	00000000 	nop
9d00b330:	8fa80050 	lw	t0,80(sp)
9d00b334:	01000011 	mthi	t0
9d00b338:	8fa8004c 	lw	t0,76(sp)
9d00b33c:	01000013 	mtlo	t0
9d00b340:	8fa10004 	lw	at,4(sp)
9d00b344:	8fa20008 	lw	v0,8(sp)
9d00b348:	8fa3000c 	lw	v1,12(sp)
9d00b34c:	8fa40010 	lw	a0,16(sp)
9d00b350:	8fa50014 	lw	a1,20(sp)
9d00b354:	8fa60018 	lw	a2,24(sp)
9d00b358:	8fa7001c 	lw	a3,28(sp)
9d00b35c:	8fa80020 	lw	t0,32(sp)
9d00b360:	8fa90024 	lw	t1,36(sp)
9d00b364:	8faa0028 	lw	t2,40(sp)
9d00b368:	8fab002c 	lw	t3,44(sp)
9d00b36c:	8fac0030 	lw	t4,48(sp)
9d00b370:	8fad0034 	lw	t5,52(sp)
9d00b374:	8fae0038 	lw	t6,56(sp)
9d00b378:	8faf003c 	lw	t7,60(sp)
9d00b37c:	8fb80040 	lw	t8,64(sp)
9d00b380:	8fb90044 	lw	t9,68(sp)
9d00b384:	8fbf0048 	lw	ra,72(sp)
9d00b388:	27bd0058 	addiu	sp,sp,88
9d00b38c:	000000c0 	ehb
9d00b390:	42000018 	eret

Disassembly of section .text._mon_putc:

9d00b394 <_mon_putc>:
9d00b394:	27bdffe8 	addiu	sp,sp,-24

9d00b398 <.LCFI0>:
9d00b398:	afbf0014 	sw	ra,20(sp)
9d00b39c:	3c02a000 	lui	v0,0xa000
9d00b3a0:	8c420014 	lw	v0,20(v0)
9d00b3a4:	1440000a 	bnez	v0,9d00b3d0 <.LCFI0+0x38>
9d00b3a8:	00801821 	move	v1,a0
9d00b3ac:	3c020000 	lui	v0,0x0
9d00b3b0:	24420000 	addiu	v0,v0,0
9d00b3b4:	10400020 	beqz	v0,9d00b438 <.LCFI0+0xa0>
9d00b3b8:	3c020000 	lui	v0,0x0
9d00b3bc:	0c000000 	jal	90000000 <_bmxdudba_address+0x8ffe0000>
9d00b3c0:	00000000 	nop
9d00b3c4:	8fbf0014 	lw	ra,20(sp)
9d00b3c8:	03e00008 	jr	ra
9d00b3cc:	27bd0018 	addiu	sp,sp,24
9d00b3d0:	3c04bf80 	lui	a0,0xbf80
9d00b3d4:	24846010 	addiu	a0,a0,24592
9d00b3d8:	1080fffb 	beqz	a0,9d00b3c8 <.LCFI0+0x30>
9d00b3dc:	8fbf0014 	lw	ra,20(sp)
9d00b3e0:	24050001 	li	a1,1
9d00b3e4:	1045001b 	beq	v0,a1,9d00b454 <.LCFI0+0xbc>
9d00b3e8:	3c02bf80 	lui	v0,0xbf80
9d00b3ec:	3c02bf80 	lui	v0,0xbf80
9d00b3f0:	24426820 	addiu	v0,v0,26656
9d00b3f4:	3c05bf80 	lui	a1,0xbf80
9d00b3f8:	24a56818 	addiu	a1,a1,26648
9d00b3fc:	3c06bf80 	lui	a2,0xbf80
9d00b400:	24c66808 	addiu	a2,a2,26632
9d00b404:	3c04bf80 	lui	a0,0xbf80
9d00b408:	24846810 	addiu	a0,a0,26640
9d00b40c:	34078000 	li	a3,0x8000
9d00b410:	acc70000 	sw	a3,0(a2)
9d00b414:	24060400 	li	a2,1024
9d00b418:	aca60000 	sw	a2,0(a1)
9d00b41c:	8c850000 	lw	a1,0(a0)
9d00b420:	30a50100 	andi	a1,a1,0x100
9d00b424:	10a0fffd 	beqz	a1,9d00b41c <.LCFI0+0x84>
9d00b428:	00000000 	nop
9d00b42c:	ac430000 	sw	v1,0(v0)
9d00b430:	0b402cf2 	j	9d00b3c8 <.LCFI0+0x30>
9d00b434:	8fbf0014 	lw	ra,20(sp)
9d00b438:	24420000 	addiu	v0,v0,0
9d00b43c:	1040ffec 	beqz	v0,9d00b3f0 <.LCFI0+0x58>
9d00b440:	3c02bf80 	lui	v0,0xbf80
9d00b444:	0c000000 	jal	90000000 <_bmxdudba_address+0x8ffe0000>
9d00b448:	00000000 	nop
9d00b44c:	0b402cf2 	j	9d00b3c8 <.LCFI0+0x30>
9d00b450:	8fbf0014 	lw	ra,20(sp)
9d00b454:	24426020 	addiu	v0,v0,24608
9d00b458:	3c05bf80 	lui	a1,0xbf80
9d00b45c:	24a56018 	addiu	a1,a1,24600
9d00b460:	3c06bf80 	lui	a2,0xbf80
9d00b464:	0b402d03 	j	9d00b40c <.LCFI0+0x74>
9d00b468:	24c66008 	addiu	a2,a2,24584

Disassembly of section .text._sbrk:

9d00b46c <_sbrk>:
9d00b46c:	27bdffe0 	addiu	sp,sp,-32

9d00b470 <.LCFI4>:
9d00b470:	afbf001c 	sw	ra,28(sp)
9d00b474:	afb00018 	sw	s0,24(sp)
9d00b478:	3c10a001 	lui	s0,0xa001
9d00b47c:	8e02aedc 	lw	v0,-20772(s0)
9d00b480:	10400010 	beqz	v0,9d00b4c4 <.LCFI4+0x54>
9d00b484:	00000000 	nop
9d00b488:	1880001b 	blez	a0,9d00b4f8 <.LCFI4+0x88>
9d00b48c:	00441821 	addu	v1,v0,a0
9d00b490:	0062202b 	sltu	a0,v1,v0
9d00b494:	54800011 	bnezl	a0,9d00b4dc <.LCFI4+0x6c>
9d00b498:	2403000c 	li	v1,12
9d00b49c:	3c04a001 	lui	a0,0xa001
9d00b4a0:	8c84aee0 	lw	a0,-20768(a0)
9d00b4a4:	0083202b 	sltu	a0,a0,v1
9d00b4a8:	5480000c 	bnezl	a0,9d00b4dc <.LCFI4+0x6c>
9d00b4ac:	2403000c 	li	v1,12
9d00b4b0:	ae03aedc 	sw	v1,-20772(s0)
9d00b4b4:	8fbf001c 	lw	ra,28(sp)
9d00b4b8:	8fb00018 	lw	s0,24(sp)
9d00b4bc:	03e00008 	jr	ra
9d00b4c0:	27bd0020 	addiu	sp,sp,32
9d00b4c4:	0f402808 	jal	9d00a020 <.LFE23>
9d00b4c8:	afa40010 	sw	a0,16(sp)
9d00b4cc:	8e02aedc 	lw	v0,-20772(s0)
9d00b4d0:	1440ffed 	bnez	v0,9d00b488 <.LCFI4+0x18>
9d00b4d4:	8fa40010 	lw	a0,16(sp)
9d00b4d8:	2403000c 	li	v1,12
9d00b4dc:	3c02a000 	lui	v0,0xa000
9d00b4e0:	ac430054 	sw	v1,84(v0)
9d00b4e4:	2402ffff 	li	v0,-1
9d00b4e8:	8fbf001c 	lw	ra,28(sp)
9d00b4ec:	8fb00018 	lw	s0,24(sp)
9d00b4f0:	03e00008 	jr	ra
9d00b4f4:	27bd0020 	addiu	sp,sp,32
9d00b4f8:	0043202b 	sltu	a0,v0,v1
9d00b4fc:	14800005 	bnez	a0,9d00b514 <.LCFI4+0xa4>
9d00b500:	3c04a001 	lui	a0,0xa001
9d00b504:	8c84aee4 	lw	a0,-20764(a0)
9d00b508:	0064202b 	sltu	a0,v1,a0
9d00b50c:	5080ffe9 	beqzl	a0,9d00b4b4 <.LCFI4+0x44>
9d00b510:	ae03aedc 	sw	v1,-20772(s0)
9d00b514:	24030016 	li	v1,22
9d00b518:	3c02a000 	lui	v0,0xa000
9d00b51c:	ac430054 	sw	v1,84(v0)
9d00b520:	2402ffff 	li	v0,-1
9d00b524:	8fbf001c 	lw	ra,28(sp)
9d00b528:	8fb00018 	lw	s0,24(sp)
9d00b52c:	03e00008 	jr	ra
9d00b530:	27bd0020 	addiu	sp,sp,32

Disassembly of section .text.fputc:

9d00b534 <fputc>:
9d00b534:	27bdffe0 	addiu	sp,sp,-32
9d00b538:	afbf001c 	sw	ra,28(sp)
9d00b53c:	afb10018 	sw	s1,24(sp)
9d00b540:	afb00014 	sw	s0,20(sp)
9d00b544:	00a08021 	move	s0,a1
9d00b548:	8ca20018 	lw	v0,24(a1)
9d00b54c:	00808821 	move	s1,a0
9d00b550:	24050001 	li	a1,1
9d00b554:	8c420010 	lw	v0,16(v0)
9d00b558:	0040f809 	jalr	v0
9d00b55c:	02002021 	move	a0,s0
9d00b560:	1040000e 	beqz	v0,9d00b59c <fputc+0x68>
9d00b564:	2402ffff 	li	v0,-1
9d00b568:	8e020000 	lw	v0,0(s0)
9d00b56c:	2442ffff 	addiu	v0,v0,-1
9d00b570:	04400011 	bltz	v0,9d00b5b8 <fputc+0x84>
9d00b574:	ae020000 	sw	v0,0(s0)
9d00b578:	96020010 	lhu	v0,16(s0)
9d00b57c:	30420008 	andi	v0,v0,0x8
9d00b580:	1440000b 	bnez	v0,9d00b5b0 <fputc+0x7c>
9d00b584:	2402000a 	li	v0,10
9d00b588:	8e030004 	lw	v1,4(s0)
9d00b58c:	02201021 	move	v0,s1
9d00b590:	24640001 	addiu	a0,v1,1
9d00b594:	ae040004 	sw	a0,4(s0)
9d00b598:	a0710000 	sb	s1,0(v1)
9d00b59c:	8fbf001c 	lw	ra,28(sp)
9d00b5a0:	8fb10018 	lw	s1,24(sp)
9d00b5a4:	8fb00014 	lw	s0,20(sp)
9d00b5a8:	03e00008 	jr	ra
9d00b5ac:	27bd0020 	addiu	sp,sp,32
9d00b5b0:	5622fff6 	bnel	s1,v0,9d00b58c <fputc+0x58>
9d00b5b4:	8e030004 	lw	v1,4(s0)
9d00b5b8:	8e020018 	lw	v0,24(s0)
9d00b5bc:	02202021 	move	a0,s1
9d00b5c0:	8c420004 	lw	v0,4(v0)
9d00b5c4:	0040f809 	jalr	v0
9d00b5c8:	02002821 	move	a1,s0
9d00b5cc:	8fbf001c 	lw	ra,28(sp)
9d00b5d0:	8fb10018 	lw	s1,24(sp)
9d00b5d4:	8fb00014 	lw	s0,20(sp)
9d00b5d8:	03e00008 	jr	ra
9d00b5dc:	27bd0020 	addiu	sp,sp,32

Disassembly of section .text.fptodp:

9d00b5e0 <__extendsfdf2>:
9d00b5e0:	00043dc2 30e700ff 3c018000 00813024     .=.....0...<$0..
9d00b5f0:	24e9ffff 2d2100fe 1020000d 00000000     ...$..!-.. .....

9d00b600 <Glab1>:
9d00b600:	24e70380 	addiu	a3,a3,896
9d00b604:	00044a40 	sll	t1,a0,0x9
9d00b608:	00094b02 	srl	t1,t1,0xc
9d00b60c:	00c93025 	or	a2,a2,t1
9d00b610:	00042f40 	sll	a1,a0,0x1d

9d00b614 <Gret>:
9d00b614:	00074d00 	sll	t1,a3,0x14
9d00b618:	00c93025 	or	a2,a2,t1
9d00b61c:	00051025 	or	v0,zero,a1
9d00b620:	00061825 	or	v1,zero,a2

9d00b624 <G999>:
9d00b624:	03e00008 	jr	ra
9d00b628:	00000000 	nop
9d00b62c:	00000000 	nop

9d00b630 <Gspec>:
9d00b630:	24050000 	li	a1,0
9d00b634:	00842021 	addu	a0,a0,a0
9d00b638:	1080fff6 	beqz	a0,9d00b614 <Gret>
9d00b63c:	00000000 	nop
9d00b640:	14e00009 	bnez	a3,9d00b668 <i42>
9d00b644:	00000000 	nop

9d00b648 <b43>:
9d00b648:	24e7ffff 	addiu	a3,a3,-1
9d00b64c:	00842021 	addu	a0,a0,a0
9d00b650:	3c010080 	lui	at,0x80
9d00b654:	0081082b 	sltu	at,a0,at
9d00b658:	1420fffb 	bnez	at,9d00b648 <b43>
9d00b65c:	00000000 	nop
9d00b660:	1000ffe7 	b	9d00b600 <Glab1>
9d00b664:	00000000 	nop

9d00b668 <i42>:
9d00b668:	240707ff 	li	a3,2047
9d00b66c:	3c01ff00 	lui	at,0xff00
9d00b670:	34210001 	ori	at,at,0x1
9d00b674:	0081082b 	sltu	at,a0,at
9d00b678:	1420ffe6 	bnez	at,9d00b614 <Gret>
9d00b67c:	00000000 	nop
9d00b680:	1000ffe4 	b	9d00b614 <Gret>
9d00b684:	3c06fff8 	lui	a2,0xfff8
9d00b688:	00000000 	nop

Disassembly of section .text._fullexit:

9d00b68c <_fullexit>:
9d00b68c:	27bdffe0 	addiu	sp,sp,-32
9d00b690:	afbf001c 	sw	ra,28(sp)
9d00b694:	afb20018 	sw	s2,24(sp)
9d00b698:	afb10014 	sw	s1,20(sp)
9d00b69c:	afb00010 	sw	s0,16(sp)
9d00b6a0:	3c10a001 	lui	s0,0xa001
9d00b6a4:	3c11a000 	lui	s1,0xa000
9d00b6a8:	00809021 	move	s2,a0
9d00b6ac:	0f403250 	jal	9d00c940 <_weak_pthread_mutex_lock>
9d00b6b0:	2604aee8 	addiu	a0,s0,-20760
9d00b6b4:	8e220010 	lw	v0,16(s1)
9d00b6b8:	2604aee8 	addiu	a0,s0,-20760
9d00b6bc:	24030001 	li	v1,1
9d00b6c0:	0f403254 	jal	9d00c950 <_weak_pthread_mutex_unlock>
9d00b6c4:	ac430038 	sw	v1,56(v0)
9d00b6c8:	8e220010 	lw	v0,16(s1)
9d00b6cc:	8c500010 	lw	s0,16(v0)
9d00b6d0:	5600000a 	bnezl	s0,9d00b6fc <_fullexit+0x70>
9d00b6d4:	8e020004 	lw	v0,4(s0)
9d00b6d8:	0b402dc6 	j	9d00b718 <_fullexit+0x8c>
9d00b6dc:	8c420034 	lw	v0,52(v0)
9d00b6e0:	00031880 	sll	v1,v1,0x2
9d00b6e4:	02031821 	addu	v1,s0,v1
9d00b6e8:	8c630000 	lw	v1,0(v1)
9d00b6ec:	2442ffff 	addiu	v0,v0,-1
9d00b6f0:	0060f809 	jalr	v1
9d00b6f4:	ae020004 	sw	v0,4(s0)
9d00b6f8:	8e020004 	lw	v0,4(s0)
9d00b6fc:	1c40fff8 	bgtz	v0,9d00b6e0 <_fullexit+0x54>
9d00b700:	24430001 	addiu	v1,v0,1
9d00b704:	8e100000 	lw	s0,0(s0)
9d00b708:	5600fffc 	bnezl	s0,9d00b6fc <_fullexit+0x70>
9d00b70c:	8e020004 	lw	v0,4(s0)
9d00b710:	8e220010 	lw	v0,16(s1)
9d00b714:	8c420034 	lw	v0,52(v0)
9d00b718:	10400003 	beqz	v0,9d00b728 <_fullexit+0x9c>
9d00b71c:	00000000 	nop
9d00b720:	0040f809 	jalr	v0
9d00b724:	00000000 	nop
9d00b728:	0f403278 	jal	9d00c9e0 <.LFE0>
9d00b72c:	02402021 	move	a0,s2

Disassembly of section .text._o_init:

9d00b730 <_o_init>:
9d00b730:	27bdffe8 	addiu	sp,sp,-24
9d00b734:	afbf0014 	sw	ra,20(sp)
9d00b738:	afb00010 	sw	s0,16(sp)
9d00b73c:	00808021 	move	s0,a0
9d00b740:	3c02a000 	lui	v0,0xa000
9d00b744:	8c430010 	lw	v1,16(v0)
9d00b748:	8c820008 	lw	v0,8(a0)
9d00b74c:	3c059d01 	lui	a1,0x9d01
9d00b750:	24a5c688 	addiu	a1,a1,-14712
9d00b754:	1040001b 	beqz	v0,9d00b7c4 <_o_init+0x94>
9d00b758:	ac650034 	sw	a1,52(v1)
9d00b75c:	8e03000c 	lw	v1,12(s0)
9d00b760:	50600004 	beqzl	v1,9d00b774 <_o_init+0x44>
9d00b764:	96020010 	lhu	v0,16(s0)
9d00b768:	8e020008 	lw	v0,8(s0)
9d00b76c:	ae020004 	sw	v0,4(s0)
9d00b770:	96020010 	lhu	v0,16(s0)
9d00b774:	ae030000 	sw	v1,0(s0)
9d00b778:	34430002 	ori	v1,v0,0x2
9d00b77c:	30441000 	andi	a0,v0,0x1000
9d00b780:	10800006 	beqz	a0,9d00b79c <_o_init+0x6c>
9d00b784:	a6030010 	sh	v1,16(s0)
9d00b788:	30420008 	andi	v0,v0,0x8
9d00b78c:	14400007 	bnez	v0,9d00b7ac <_o_init+0x7c>
9d00b790:	00000000 	nop
9d00b794:	7c036304 	ins	v1,zero,0xc,0x1
9d00b798:	a6030010 	sh	v1,16(s0)
9d00b79c:	8fbf0014 	lw	ra,20(sp)
9d00b7a0:	8fb00010 	lw	s0,16(sp)
9d00b7a4:	03e00008 	jr	ra
9d00b7a8:	27bd0018 	addiu	sp,sp,24
9d00b7ac:	0f40327a 	jal	9d00c9e8 <.LFE0>
9d00b7b0:	86040012 	lh	a0,18(s0)
9d00b7b4:	1440fff7 	bnez	v0,9d00b794 <_o_init+0x64>
9d00b7b8:	96030010 	lhu	v1,16(s0)
9d00b7bc:	0b402de5 	j	9d00b794 <_o_init+0x64>
9d00b7c0:	3063fff7 	andi	v1,v1,0xfff7
9d00b7c4:	0f40301c 	jal	9d00c070 <_bufalloc>
9d00b7c8:	00000000 	nop
9d00b7cc:	0b402dd8 	j	9d00b760 <_o_init+0x30>
9d00b7d0:	8e03000c 	lw	v1,12(s0)

Disassembly of section .text.repl:

9d00b7d4 <repl>:
9d00b7d4:	27bdffd8 	addiu	sp,sp,-40
9d00b7d8:	afbf0024 	sw	ra,36(sp)
9d00b7dc:	afb40020 	sw	s4,32(sp)
9d00b7e0:	afb3001c 	sw	s3,28(sp)
9d00b7e4:	afb20018 	sw	s2,24(sp)
9d00b7e8:	afb10014 	sw	s1,20(sp)
9d00b7ec:	afb00010 	sw	s0,16(sp)
9d00b7f0:	00a08021 	move	s0,a1
9d00b7f4:	0080a021 	move	s4,a0
9d00b7f8:	00c09821 	move	s3,a2
9d00b7fc:	24120020 	li	s2,32
9d00b800:	2411ffff 	li	s1,-1
9d00b804:	12000011 	beqz	s0,9d00b84c <repl+0x78>
9d00b808:	2e020021 	sltiu	v0,s0,33
9d00b80c:	02401821 	move	v1,s2
9d00b810:	0202180b 	movn	v1,s0,v0
9d00b814:	02602021 	move	a0,s3
9d00b818:	00602821 	move	a1,v1
9d00b81c:	02803021 	move	a2,s4
9d00b820:	0f402fe8 	jal	9d00bfa0 <__sputn>
9d00b824:	02038023 	subu	s0,s0,v1
9d00b828:	1451fff6 	bne	v0,s1,9d00b804 <repl+0x30>
9d00b82c:	8fbf0024 	lw	ra,36(sp)
9d00b830:	8fb40020 	lw	s4,32(sp)
9d00b834:	8fb3001c 	lw	s3,28(sp)
9d00b838:	8fb20018 	lw	s2,24(sp)
9d00b83c:	8fb10014 	lw	s1,20(sp)
9d00b840:	8fb00010 	lw	s0,16(sp)
9d00b844:	03e00008 	jr	ra
9d00b848:	27bd0028 	addiu	sp,sp,40
9d00b84c:	00001021 	move	v0,zero
9d00b850:	8fbf0024 	lw	ra,36(sp)
9d00b854:	8fb40020 	lw	s4,32(sp)
9d00b858:	8fb3001c 	lw	s3,28(sp)
9d00b85c:	8fb20018 	lw	s2,24(sp)
9d00b860:	8fb10014 	lw	s1,20(sp)
9d00b864:	8fb00010 	lw	s0,16(sp)
9d00b868:	03e00008 	jr	ra
9d00b86c:	27bd0028 	addiu	sp,sp,40

Disassembly of section .text._eat_white:

9d00b870 <_eat_white>:
9d00b870:	27bdffe0 	addiu	sp,sp,-32
9d00b874:	afbf001c 	sw	ra,28(sp)
9d00b878:	afb20018 	sw	s2,24(sp)
9d00b87c:	afb10014 	sw	s1,20(sp)
9d00b880:	afb00010 	sw	s0,16(sp)
9d00b884:	00808021 	move	s0,a0
9d00b888:	2411ffff 	li	s1,-1
9d00b88c:	3c129d01 	lui	s2,0x9d01
9d00b890:	0b402e2a 	j	9d00b8a8 <_eat_white+0x38>
9d00b894:	2652abcd 	addiu	s2,s2,-21555
9d00b898:	80630000 	lb	v1,0(v1)
9d00b89c:	30630088 	andi	v1,v1,0x88
9d00b8a0:	50600010 	beqzl	v1,9d00b8e4 <_eat_white+0x74>
9d00b8a4:	8e030010 	lw	v1,16(s0)
9d00b8a8:	0f403036 	jal	9d00c0d8 <gsgetc>
9d00b8ac:	02002021 	move	a0,s0
9d00b8b0:	1451fff9 	bne	v0,s1,9d00b898 <_eat_white+0x28>
9d00b8b4:	00521821 	addu	v1,v0,s2
9d00b8b8:	8e030010 	lw	v1,16(s0)
9d00b8bc:	ae110004 	sw	s1,4(s0)
9d00b8c0:	2402ffff 	li	v0,-1
9d00b8c4:	2463ffff 	addiu	v1,v1,-1
9d00b8c8:	ae030010 	sw	v1,16(s0)
9d00b8cc:	8fbf001c 	lw	ra,28(sp)
9d00b8d0:	8fb20018 	lw	s2,24(sp)
9d00b8d4:	8fb10014 	lw	s1,20(sp)
9d00b8d8:	8fb00010 	lw	s0,16(sp)
9d00b8dc:	03e00008 	jr	ra
9d00b8e0:	27bd0020 	addiu	sp,sp,32
9d00b8e4:	ae020004 	sw	v0,4(s0)
9d00b8e8:	00001021 	move	v0,zero
9d00b8ec:	2463ffff 	addiu	v1,v1,-1
9d00b8f0:	ae030010 	sw	v1,16(s0)
9d00b8f4:	8fbf001c 	lw	ra,28(sp)
9d00b8f8:	8fb20018 	lw	s2,24(sp)
9d00b8fc:	8fb10014 	lw	s1,20(sp)
9d00b900:	8fb00010 	lw	s0,16(sp)
9d00b904:	03e00008 	jr	ra
9d00b908:	27bd0020 	addiu	sp,sp,32

Disassembly of section .text._i_init:

9d00b90c <_i_init>:
9d00b90c:	27bdffe8 	addiu	sp,sp,-24
9d00b910:	afbf0014 	sw	ra,20(sp)
9d00b914:	afb00010 	sw	s0,16(sp)
9d00b918:	8c820008 	lw	v0,8(a0)
9d00b91c:	1040001d 	beqz	v0,9d00b994 <_i_init+0x88>
9d00b920:	00808021 	move	s0,a0
9d00b924:	8e02000c 	lw	v0,12(s0)
9d00b928:	54400012 	bnezl	v0,9d00b974 <_i_init+0x68>
9d00b92c:	8e020008 	lw	v0,8(s0)
9d00b930:	2402ffff 	li	v0,-1
9d00b934:	ae020004 	sw	v0,4(s0)
9d00b938:	96020010 	lhu	v0,16(s0)
9d00b93c:	ae000000 	sw	zero,0(s0)
9d00b940:	34430001 	ori	v1,v0,0x1
9d00b944:	30441000 	andi	a0,v0,0x1000
9d00b948:	10800006 	beqz	a0,9d00b964 <_i_init+0x58>
9d00b94c:	a6030010 	sh	v1,16(s0)
9d00b950:	30420008 	andi	v0,v0,0x8
9d00b954:	14400009 	bnez	v0,9d00b97c <_i_init+0x70>
9d00b958:	00000000 	nop
9d00b95c:	7c036304 	ins	v1,zero,0xc,0x1
9d00b960:	a6030010 	sh	v1,16(s0)
9d00b964:	8fbf0014 	lw	ra,20(sp)
9d00b968:	8fb00010 	lw	s0,16(sp)
9d00b96c:	03e00008 	jr	ra
9d00b970:	27bd0018 	addiu	sp,sp,24
9d00b974:	0b402e4e 	j	9d00b938 <_i_init+0x2c>
9d00b978:	ae020004 	sw	v0,4(s0)
9d00b97c:	0f40327a 	jal	9d00c9e8 <.LFE0>
9d00b980:	86040012 	lh	a0,18(s0)
9d00b984:	1440fff5 	bnez	v0,9d00b95c <_i_init+0x50>
9d00b988:	96030010 	lhu	v1,16(s0)
9d00b98c:	0b402e57 	j	9d00b95c <_i_init+0x50>
9d00b990:	3063fff7 	andi	v1,v1,0xfff7
9d00b994:	0f40301c 	jal	9d00c070 <_bufalloc>
9d00b998:	00000000 	nop
9d00b99c:	0b402e4a 	j	9d00b928 <_i_init+0x1c>
9d00b9a0:	8e02000c 	lw	v0,12(s0)

Disassembly of section .text.strlen:

9d00b9a4 <strlen>:
9d00b9a4:	30830003 	andi	v1,a0,0x3
9d00b9a8:	1460001e 	bnez	v1,9d00ba24 <strlen+0x80>
9d00b9ac:	00801021 	move	v0,a0
9d00b9b0:	8c820000 	lw	v0,0(a0)
9d00b9b4:	3c07fefe 	lui	a3,0xfefe
9d00b9b8:	34e7feff 	ori	a3,a3,0xfeff
9d00b9bc:	00471821 	addu	v1,v0,a3
9d00b9c0:	00021027 	nor	v0,zero,v0
9d00b9c4:	3c068080 	lui	a2,0x8080
9d00b9c8:	34c68080 	ori	a2,a2,0x8080
9d00b9cc:	00621824 	and	v1,v1,v0
9d00b9d0:	00661824 	and	v1,v1,a2
9d00b9d4:	14600013 	bnez	v1,9d00ba24 <strlen+0x80>
9d00b9d8:	00801021 	move	v0,a0
9d00b9dc:	24420004 	addiu	v0,v0,4
9d00b9e0:	8c430000 	lw	v1,0(v0)
9d00b9e4:	00672821 	addu	a1,v1,a3
9d00b9e8:	00031827 	nor	v1,zero,v1
9d00b9ec:	00a31824 	and	v1,a1,v1
9d00b9f0:	00661824 	and	v1,v1,a2
9d00b9f4:	5460000c 	bnezl	v1,9d00ba28 <strlen+0x84>
9d00b9f8:	80430000 	lb	v1,0(v0)
9d00b9fc:	24420004 	addiu	v0,v0,4
9d00ba00:	8c430000 	lw	v1,0(v0)
9d00ba04:	00672821 	addu	a1,v1,a3
9d00ba08:	00031827 	nor	v1,zero,v1
9d00ba0c:	00a31824 	and	v1,a1,v1
9d00ba10:	00661824 	and	v1,v1,a2
9d00ba14:	5060fff2 	beqzl	v1,9d00b9e0 <strlen+0x3c>
9d00ba18:	24420004 	addiu	v0,v0,4
9d00ba1c:	0b402e8a 	j	9d00ba28 <strlen+0x84>
9d00ba20:	80430000 	lb	v1,0(v0)
9d00ba24:	80430000 	lb	v1,0(v0)
9d00ba28:	5460fffe 	bnezl	v1,9d00ba24 <strlen+0x80>
9d00ba2c:	24420001 	addiu	v0,v0,1
9d00ba30:	03e00008 	jr	ra
9d00ba34:	00441023 	subu	v0,v0,a0

Disassembly of section .text.dptoli:

9d00ba38 <__fixdfsi>:
9d00ba38:	00053ac0 00045542 00ea3825 3c018000     .:..BU..%8.....<
9d00ba48:	00e13825 00055040 000a5542 2406041e     %8..@P..BU.....$
9d00ba58:	00ca3023 18c0000c 00000000 2cc10020     #0.......... ..,
9d00ba68:	14200002 00000000 34070000              .. ........4

9d00ba74 <L42>:
9d00ba74:	04a10002 	bgez	a1,9d00ba80 <i50>
9d00ba78:	00c73806 	srlv	a3,a3,a2
9d00ba7c:	00073823 	negu	a3,a3

9d00ba80 <i50>:
9d00ba80:	00071025 	or	v0,zero,a3

9d00ba84 <I999>:
9d00ba84:	03e00008 	jr	ra
9d00ba88:	00000000 	nop
9d00ba8c:	00000000 	nop

9d00ba90 <Inaninf>:
9d00ba90:	10800002 	beqz	a0,9d00ba9c <i51>
9d00ba94:	00000000 	nop
9d00ba98:	34a50001 	ori	a1,a1,0x1

9d00ba9c <i51>:
9d00ba9c:	3c017ff0 	lui	at,0x7ff0
9d00baa0:	34210001 	ori	at,at,0x1
9d00baa4:	00a1082b 	sltu	at,a1,at
9d00baa8:	14200003 	bnez	at,9d00bab8 <i52>
9d00baac:	00000000 	nop
9d00bab0:	1000fff4 	b	9d00ba84 <I999>
9d00bab4:	3c028000 	lui	v0,0x8000

9d00bab8 <i52>:
9d00bab8:	3c027fff 	lui	v0,0x7fff
9d00babc:	1000fff1 	b	9d00ba84 <I999>
9d00bac0:	3442ffff 	ori	v0,v0,0xffff
9d00bac4:	00000000 	nop

Disassembly of section .text.dptoul:

9d00bac8 <__fixunsdfsi>:
9d00bac8:	00053ac0 00045542 00ea3825 3c018000     .:..BU..%8.....<
9d00bad8:	00e13825 00055040 000a5542 2406041e     %8..@P..BU.....$
9d00bae8:	00ca3023 04c0000c 00000000 2cc10020     #0.......... ..,
9d00baf8:	14200002 00000000 34070000              .. ........4

9d00bb04 <L43>:
9d00bb04:	04a10002 	bgez	a1,9d00bb10 <i53>
9d00bb08:	00c73806 	srlv	a3,a3,a2
9d00bb0c:	00073823 	negu	a3,a3

9d00bb10 <i53>:
9d00bb10:	00071025 	or	v0,zero,a3

9d00bb14 <K999>:
9d00bb14:	03e00008 	jr	ra
9d00bb18:	00000000 	nop
9d00bb1c:	00000000 	nop

9d00bb20 <Knaninf>:
9d00bb20:	10800002 	beqz	a0,9d00bb2c <i54>
9d00bb24:	00000000 	nop
9d00bb28:	34a50001 	ori	a1,a1,0x1

9d00bb2c <i54>:
9d00bb2c:	3c017ff0 	lui	at,0x7ff0
9d00bb30:	34210001 	ori	at,at,0x1
9d00bb34:	00a1082b 	sltu	at,a1,at
9d00bb38:	14200003 	bnez	at,9d00bb48 <i55>
9d00bb3c:	00000000 	nop
9d00bb40:	1000fff4 	b	9d00bb14 <K999>
9d00bb44:	3c028000 	lui	v0,0x8000

9d00bb48 <i55>:
9d00bb48:	1000fff2 	b	9d00bb14 <K999>
9d00bb4c:	2402ffff 	li	v0,-1
9d00bb50:	00000000 	nop

Disassembly of section .text:

9d00bb54 <__pic32_data_init>:
9d00bb54:	03e01821 	move	v1,ra

9d00bb58 <_dinit_init>:
9d00bb58:	3c089d00 	lui	t0,0x9d00
9d00bb5c:	250850ec 	addiu	t0,t0,20716
9d00bb60:	8d090000 	lw	t1,0(t0)
9d00bb64:	11200018 	beqz	t1,9d00bbc8 <_dinit_end+0x18>
9d00bb68:	25080004 	addiu	t0,t0,4
9d00bb6c:	8d0a0000 	lw	t2,0(t0)
9d00bb70:	25080004 	addiu	t0,t0,4
9d00bb74:	8d0b0000 	lw	t3,0(t0)
9d00bb78:	11600009 	beqz	t3,9d00bba0 <_dinit_clear>
9d00bb7c:	25080004 	addiu	t0,t0,4

9d00bb80 <_dinit_copy>:
9d00bb80:	910c0000 	lbu	t4,0(t0)
9d00bb84:	254affff 	addiu	t2,t2,-1
9d00bb88:	25080001 	addiu	t0,t0,1
9d00bb8c:	a12c0000 	sb	t4,0(t1)
9d00bb90:	1540fffb 	bnez	t2,9d00bb80 <_dinit_copy>
9d00bb94:	25290001 	addiu	t1,t1,1
9d00bb98:	10000005 	b	9d00bbb0 <_dinit_end>
9d00bb9c:	00000000 	nop

9d00bba0 <_dinit_clear>:
9d00bba0:	a1200000 	sb	zero,0(t1)
9d00bba4:	254affff 	addiu	t2,t2,-1
9d00bba8:	1540fffd 	bnez	t2,9d00bba0 <_dinit_clear>
9d00bbac:	25290001 	addiu	t1,t1,1

9d00bbb0 <_dinit_end>:
9d00bbb0:	25080003 	addiu	t0,t0,3
9d00bbb4:	240afffc 	li	t2,-4
9d00bbb8:	01484024 	and	t0,t2,t0
9d00bbbc:	8d090000 	lw	t1,0(t0)
9d00bbc0:	1520ffe7 	bnez	t1,9d00bb60 <_dinit_init+0x8>
9d00bbc4:	00000000 	nop
9d00bbc8:	0060f821 	move	ra,v1
9d00bbcc:	03e00008 	jr	ra
9d00bbd0:	00000000 	nop
9d00bbd4:	00000000 	nop

Disassembly of section .text._fflush_simple:

9d00bbd8 <_fflush_simple>:
9d00bbd8:	27bdffe8 	addiu	sp,sp,-24
9d00bbdc:	afbf0014 	sw	ra,20(sp)
9d00bbe0:	afb00010 	sw	s0,16(sp)
9d00bbe4:	94820010 	lhu	v0,16(a0)
9d00bbe8:	30420002 	andi	v0,v0,0x2
9d00bbec:	10400013 	beqz	v0,9d00bc3c <_fflush_simple+0x64>
9d00bbf0:	00808021 	move	s0,a0
9d00bbf4:	8c850000 	lw	a1,0(a0)
9d00bbf8:	04a0000c 	bltz	a1,9d00bc2c <_fflush_simple+0x54>
9d00bbfc:	00001021 	move	v0,zero
9d00bc00:	8c82000c 	lw	v0,12(a0)
9d00bc04:	50a20006 	beql	a1,v0,9d00bc20 <_fflush_simple+0x48>
9d00bc08:	8e030008 	lw	v1,8(s0)
9d00bc0c:	8c840008 	lw	a0,8(a0)
9d00bc10:	0f4030c1 	jal	9d00c304 <.LCFI11>
9d00bc14:	00452823 	subu	a1,v0,a1
9d00bc18:	8e02000c 	lw	v0,12(s0)
9d00bc1c:	8e030008 	lw	v1,8(s0)
9d00bc20:	ae020000 	sw	v0,0(s0)
9d00bc24:	ae030004 	sw	v1,4(s0)
9d00bc28:	00001021 	move	v0,zero
9d00bc2c:	8fbf0014 	lw	ra,20(sp)
9d00bc30:	8fb00010 	lw	s0,16(sp)
9d00bc34:	03e00008 	jr	ra
9d00bc38:	27bd0018 	addiu	sp,sp,24
9d00bc3c:	2402ffff 	li	v0,-1
9d00bc40:	ac820004 	sw	v0,4(a0)
9d00bc44:	00001021 	move	v0,zero
9d00bc48:	8fbf0014 	lw	ra,20(sp)
9d00bc4c:	8fb00010 	lw	s0,16(sp)
9d00bc50:	03e00008 	jr	ra
9d00bc54:	27bd0018 	addiu	sp,sp,24

Disassembly of section .text._fwrite_simple:

9d00bc58 <_fwrite_simple>:
9d00bc58:	27bdffd8 	addiu	sp,sp,-40
9d00bc5c:	afbf0024 	sw	ra,36(sp)
9d00bc60:	afb10020 	sw	s1,32(sp)
9d00bc64:	afb0001c 	sw	s0,28(sp)
9d00bc68:	70c58002 	mul	s0,a2,a1
9d00bc6c:	12000007 	beqz	s0,9d00bc8c <_fwrite_simple+0x34>
9d00bc70:	00001021 	move	v0,zero
9d00bc74:	94e30010 	lhu	v1,16(a3)
9d00bc78:	30630001 	andi	v1,v1,0x1
9d00bc7c:	10600008 	beqz	v1,9d00bca0 <_fwrite_simple+0x48>
9d00bc80:	3c03a000 	lui	v1,0xa000
9d00bc84:	24040009 	li	a0,9
9d00bc88:	ac640054 	sw	a0,84(v1)
9d00bc8c:	8fbf0024 	lw	ra,36(sp)
9d00bc90:	8fb10020 	lw	s1,32(sp)
9d00bc94:	8fb0001c 	lw	s0,28(sp)
9d00bc98:	03e00008 	jr	ra
9d00bc9c:	27bd0028 	addiu	sp,sp,40
9d00bca0:	00808821 	move	s1,a0
9d00bca4:	00e02021 	move	a0,a3
9d00bca8:	0f402ef6 	jal	9d00bbd8 <_fflush_simple>
9d00bcac:	afa60010 	sw	a2,16(sp)
9d00bcb0:	02202021 	move	a0,s1
9d00bcb4:	0f4030c1 	jal	9d00c304 <.LCFI11>
9d00bcb8:	02002821 	move	a1,s0
9d00bcbc:	8fa60010 	lw	a2,16(sp)
9d00bcc0:	00c01021 	move	v0,a2
9d00bcc4:	8fbf0024 	lw	ra,36(sp)
9d00bcc8:	8fb10020 	lw	s1,32(sp)
9d00bccc:	8fb0001c 	lw	s0,28(sp)
9d00bcd0:	03e00008 	jr	ra
9d00bcd4:	27bd0028 	addiu	sp,sp,40

Disassembly of section .text.fptoli:

9d00bcd8 <__fixsfsi>:
9d00bcd8:	00042a00 3c018000 00a12825 00043dc2     .*.....<%(...=..
9d00bce8:	30e700ff 2406009e 00c73023 18c0000d     ...0...$#0......
9d00bcf8:	00000000 28c10020 14200003 00000000     .... ..(.. .....
9d00bd08:	10000005 24020000                       .......$

9d00bd10 <i42>:
9d00bd10:	04810002 	bgez	a0,9d00bd1c <i43>
9d00bd14:	00c52806 	srlv	a1,a1,a2
9d00bd18:	00052823 	negu	a1,a1

9d00bd1c <i43>:
9d00bd1c:	00051025 	or	v0,zero,a1

9d00bd20 <G999>:
9d00bd20:	03e00008 	jr	ra
9d00bd24:	00000000 	nop
9d00bd28:	00000000 	nop

9d00bd2c <Gspec>:
9d00bd2c:	3c017f80 	lui	at,0x7f80
9d00bd30:	34210001 	ori	at,at,0x1
9d00bd34:	0081082b 	sltu	at,a0,at
9d00bd38:	14200003 	bnez	at,9d00bd48 <i44>
9d00bd3c:	00000000 	nop
9d00bd40:	1000fff7 	b	9d00bd20 <G999>
9d00bd44:	3c028000 	lui	v0,0x8000

9d00bd48 <i44>:
9d00bd48:	3c027fff 	lui	v0,0x7fff
9d00bd4c:	1000fff4 	b	9d00bd20 <G999>
9d00bd50:	3442ffff 	ori	v0,v0,0xffff
9d00bd54:	00000000 	nop

Disassembly of section .rodata:

9d00bd58 <zeroData-0x1c>:
9d00bd58:	004e614e 	0x4e614e
9d00bd5c:	666e492d 	0x666e492d
9d00bd60:	00000000 	nop
9d00bd64:	666e492b 	0x666e492b
9d00bd68:	00000000 	nop
9d00bd6c:	6c756e28 	0x6c756e28
9d00bd70:	0000296c 	0x296c

9d00bd74 <zeroData>:
9d00bd74:	30303030 30303030 30303030 30303030     0000000000000000
9d00bd84:	30303030 30303030 30303030 30303030     0000000000000000

9d00bd94 <spaceData>:
9d00bd94:	20202020 20202020 20202020 20202020                     
9d00bda4:	20202020 20202020 20202020 20202020                     
	...
9d00bdbc:	40240000 47ae147b 3f847ae1 00000000     ..$@{..G.z.?....
9d00bdcc:	40100000                                ...@

Disassembly of section .text.fgetc:

9d00bdd0 <fgetc>:
9d00bdd0:	27bdffe8 	addiu	sp,sp,-24
9d00bdd4:	afbf0014 	sw	ra,20(sp)
9d00bdd8:	afb00010 	sw	s0,16(sp)
9d00bddc:	00808021 	move	s0,a0
9d00bde0:	8c820018 	lw	v0,24(a0)
9d00bde4:	8c420010 	lw	v0,16(v0)
9d00bde8:	0040f809 	jalr	v0
9d00bdec:	24050002 	li	a1,2
9d00bdf0:	10400009 	beqz	v0,9d00be18 <fgetc+0x48>
9d00bdf4:	2402ffff 	li	v0,-1
9d00bdf8:	8e020000 	lw	v0,0(s0)
9d00bdfc:	2442ffff 	addiu	v0,v0,-1
9d00be00:	04400009 	bltz	v0,9d00be28 <fgetc+0x58>
9d00be04:	ae020000 	sw	v0,0(s0)
9d00be08:	8e020004 	lw	v0,4(s0)
9d00be0c:	24430001 	addiu	v1,v0,1
9d00be10:	ae030004 	sw	v1,4(s0)
9d00be14:	90420000 	lbu	v0,0(v0)
9d00be18:	8fbf0014 	lw	ra,20(sp)
9d00be1c:	8fb00010 	lw	s0,16(sp)
9d00be20:	03e00008 	jr	ra
9d00be24:	27bd0018 	addiu	sp,sp,24
9d00be28:	8e020018 	lw	v0,24(s0)
9d00be2c:	8c420000 	lw	v0,0(v0)
9d00be30:	0040f809 	jalr	v0
9d00be34:	02002021 	move	a0,s0
9d00be38:	8fbf0014 	lw	ra,20(sp)
9d00be3c:	8fb00010 	lw	s0,16(sp)
9d00be40:	03e00008 	jr	ra
9d00be44:	27bd0018 	addiu	sp,sp,24

Disassembly of section .text.litodp:

9d00be48 <__floatsidf>:
9d00be48:	24050000 00054825 00053825 00043025     ...$%H..%8..%0..
9d00be58:	10c0000c 00000000 04c10006 00000000     ................
9d00be68:	3c098000 0005502b 00052823 00063023     ...<+P..#(..#0..
9d00be78:	00ca3023                                #0..

9d00be7c <i40>:
9d00be7c:	2407041e 	li	a3,1054
9d00be80:	70c84020 	clz	t0,a2
9d00be84:	00e83823 	subu	a3,a3,t0
9d00be88:	01063004 	sllv	a2,a2,t0

9d00be8c <i39>:
9d00be8c:	000542c2 	srl	t0,a1,0xb
9d00be90:	00065540 	sll	t2,a2,0x15
9d00be94:	010a4025 	or	t0,t0,t2
9d00be98:	00065040 	sll	t2,a2,0x1
9d00be9c:	000a5302 	srl	t2,t2,0xc
9d00bea0:	012a4825 	or	t1,t1,t2
9d00bea4:	00075500 	sll	t2,a3,0x14
9d00bea8:	012a4825 	or	t1,t1,t2
9d00beac:	00081025 	or	v0,zero,t0
9d00beb0:	00091825 	or	v1,zero,t1

9d00beb4 <E999>:
9d00beb4:	03e00008 	jr	ra
9d00beb8:	00000000 	nop
9d00bebc:	00000000 	nop

Disassembly of section .text._sscanf_cdfFnopuxX:

9d00bec0 <_sscanf_cdfFnopuxX>:
9d00bec0:	27bdffc0 	addiu	sp,sp,-64
9d00bec4:	afbf003c 	sw	ra,60(sp)
9d00bec8:	afb00038 	sw	s0,56(sp)
9d00becc:	00808021 	move	s0,a0
9d00bed0:	afa60048 	sw	a2,72(sp)
9d00bed4:	afa7004c 	sw	a3,76(sp)
9d00bed8:	2402ffff 	li	v0,-1
9d00bedc:	a7a20022 	sh	v0,34(sp)
9d00bee0:	24020081 	li	v0,129
9d00bee4:	a7a20020 	sh	v0,32(sp)
9d00bee8:	0f402e69 	jal	9d00b9a4 <strlen>
9d00beec:	afa50030 	sw	a1,48(sp)
9d00bef0:	27a30048 	addiu	v1,sp,72
9d00bef4:	27a40010 	addiu	a0,sp,16
9d00bef8:	8fa50030 	lw	a1,48(sp)
9d00befc:	00603021 	move	a2,v1
9d00bf00:	afa20010 	sw	v0,16(sp)
9d00bf04:	afa2001c 	sw	v0,28(sp)
9d00bf08:	afb00018 	sw	s0,24(sp)
9d00bf0c:	afb00014 	sw	s0,20(sp)
9d00bf10:	3c029d01 	lui	v0,0x9d01
9d00bf14:	2442c8b0 	addiu	v0,v0,-14160
9d00bf18:	afa20028 	sw	v0,40(sp)
9d00bf1c:	0f400ae0 	jal	9d002b80 <.LFE9>
9d00bf20:	afa3002c 	sw	v1,44(sp)
9d00bf24:	8fbf003c 	lw	ra,60(sp)
9d00bf28:	8fb00038 	lw	s0,56(sp)
9d00bf2c:	03e00008 	jr	ra
9d00bf30:	27bd0040 	addiu	sp,sp,64

Disassembly of section .text._sprintf_cdfFnopuxX:

9d00bf34 <_sprintf_cdfFnopuxX>:
9d00bf34:	27bdffc8 	addiu	sp,sp,-56
9d00bf38:	afbf0034 	sw	ra,52(sp)
9d00bf3c:	27a20040 	addiu	v0,sp,64
9d00bf40:	00801821 	move	v1,a0
9d00bf44:	afa60040 	sw	a2,64(sp)
9d00bf48:	27a40010 	addiu	a0,sp,16
9d00bf4c:	00403021 	move	a2,v0
9d00bf50:	afa70044 	sw	a3,68(sp)
9d00bf54:	2407ffff 	li	a3,-1
9d00bf58:	a7a70022 	sh	a3,34(sp)
9d00bf5c:	24070082 	li	a3,130
9d00bf60:	a7a70020 	sh	a3,32(sp)
9d00bf64:	3c077fff 	lui	a3,0x7fff
9d00bf68:	34e7fffe 	ori	a3,a3,0xfffe
9d00bf6c:	afa70010 	sw	a3,16(sp)
9d00bf70:	afa30018 	sw	v1,24(sp)
9d00bf74:	afa30014 	sw	v1,20(sp)
9d00bf78:	3c039d01 	lui	v1,0x9d01
9d00bf7c:	2463c8b0 	addiu	v1,v1,-14160
9d00bf80:	afa30028 	sw	v1,40(sp)
9d00bf84:	0f400de5 	jal	9d003794 <_do_print_cdfFnopuxX>
9d00bf88:	afa2002c 	sw	v0,44(sp)
9d00bf8c:	8fa30014 	lw	v1,20(sp)
9d00bf90:	a0600000 	sb	zero,0(v1)
9d00bf94:	8fbf0034 	lw	ra,52(sp)
9d00bf98:	03e00008 	jr	ra
9d00bf9c:	27bd0038 	addiu	sp,sp,56

Disassembly of section .text.__sputn:

9d00bfa0 <__sputn>:
9d00bfa0:	27bdffd8 	addiu	sp,sp,-40
9d00bfa4:	afbf0024 	sw	ra,36(sp)
9d00bfa8:	afb30020 	sw	s3,32(sp)
9d00bfac:	afb2001c 	sw	s2,28(sp)
9d00bfb0:	afb10018 	sw	s1,24(sp)
9d00bfb4:	afb00014 	sw	s0,20(sp)
9d00bfb8:	00808021 	move	s0,a0
9d00bfbc:	00c09021 	move	s2,a2
9d00bfc0:	00858821 	addu	s1,a0,a1
9d00bfc4:	0b402ff8 	j	9d00bfe0 <__sputn+0x40>
9d00bfc8:	2413ffff 	li	s3,-1
9d00bfcc:	26100001 	addiu	s0,s0,1
9d00bfd0:	0f402d4d 	jal	9d00b534 <.LCFI8>
9d00bfd4:	8204ffff 	lb	a0,-1(s0)
9d00bfd8:	10530005 	beq	v0,s3,9d00bff0 <__sputn+0x50>
9d00bfdc:	8fbf0024 	lw	ra,36(sp)
9d00bfe0:	1611fffa 	bne	s0,s1,9d00bfcc <__sputn+0x2c>
9d00bfe4:	02402821 	move	a1,s2
9d00bfe8:	00001021 	move	v0,zero
9d00bfec:	8fbf0024 	lw	ra,36(sp)
9d00bff0:	8fb30020 	lw	s3,32(sp)
9d00bff4:	8fb2001c 	lw	s2,28(sp)
9d00bff8:	8fb10018 	lw	s1,24(sp)
9d00bffc:	8fb00014 	lw	s0,20(sp)
9d00c000:	03e00008 	jr	ra
9d00c004:	27bd0028 	addiu	sp,sp,40

Disassembly of section .text.memmove:

9d00c008 <memmove>:
9d00c008:	27bdffe8 	addiu	sp,sp,-24
9d00c00c:	0085102b 	sltu	v0,a0,a1
9d00c010:	14400012 	bnez	v0,9d00c05c <memmove+0x54>
9d00c014:	afbf0014 	sw	ra,20(sp)
9d00c018:	00a61021 	addu	v0,a1,a2
9d00c01c:	0082102b 	sltu	v0,a0,v0
9d00c020:	1040000e 	beqz	v0,9d00c05c <memmove+0x54>
9d00c024:	24c2ffff 	addiu	v0,a2,-1
9d00c028:	00821821 	addu	v1,a0,v0
9d00c02c:	00a22821 	addu	a1,a1,v0
9d00c030:	10c00006 	beqz	a2,9d00c04c <memmove+0x44>
9d00c034:	00663823 	subu	a3,v1,a2
9d00c038:	24a5ffff 	addiu	a1,a1,-1
9d00c03c:	90a60001 	lbu	a2,1(a1)
9d00c040:	2463ffff 	addiu	v1,v1,-1
9d00c044:	1467fffc 	bne	v1,a3,9d00c038 <memmove+0x30>
9d00c048:	a0660001 	sb	a2,1(v1)
9d00c04c:	00801021 	move	v0,a0
9d00c050:	8fbf0014 	lw	ra,20(sp)
9d00c054:	03e00008 	jr	ra
9d00c058:	27bd0018 	addiu	sp,sp,24
9d00c05c:	0f4031ae 	jal	9d00c6b8 <memcpy>
9d00c060:	00000000 	nop
9d00c064:	8fbf0014 	lw	ra,20(sp)
9d00c068:	03e00008 	jr	ra
9d00c06c:	27bd0018 	addiu	sp,sp,24

Disassembly of section .text._bufalloc:

9d00c070 <_bufalloc>:
9d00c070:	27bdffe8 	addiu	sp,sp,-24
9d00c074:	afbf0014 	sw	ra,20(sp)
9d00c078:	afb00010 	sw	s0,16(sp)
9d00c07c:	00808021 	move	s0,a0
9d00c080:	8c84000c 	lw	a0,12(a0)
9d00c084:	5880000e 	blezl	a0,9d00c0c0 <_bufalloc+0x50>
9d00c088:	ae00000c 	sw	zero,12(s0)
9d00c08c:	0f40108f 	jal	9d00423c <malloc>
9d00c090:	00000000 	nop
9d00c094:	10400009 	beqz	v0,9d00c0bc <_bufalloc+0x4c>
9d00c098:	ae020008 	sw	v0,8(s0)
9d00c09c:	96030010 	lhu	v1,16(s0)
9d00c0a0:	ae020004 	sw	v0,4(s0)
9d00c0a4:	34620010 	ori	v0,v1,0x10
9d00c0a8:	a6020010 	sh	v0,16(s0)
9d00c0ac:	8fbf0014 	lw	ra,20(sp)
9d00c0b0:	8fb00010 	lw	s0,16(sp)
9d00c0b4:	03e00008 	jr	ra
9d00c0b8:	27bd0018 	addiu	sp,sp,24
9d00c0bc:	ae00000c 	sw	zero,12(s0)
9d00c0c0:	2402ffff 	li	v0,-1
9d00c0c4:	ae020004 	sw	v0,4(s0)
9d00c0c8:	8fbf0014 	lw	ra,20(sp)
9d00c0cc:	8fb00010 	lw	s0,16(sp)
9d00c0d0:	03e00008 	jr	ra
9d00c0d4:	27bd0018 	addiu	sp,sp,24

Disassembly of section .text.gsgetc:

9d00c0d8 <gsgetc>:
9d00c0d8:	27bdffe0 	addiu	sp,sp,-32
9d00c0dc:	afbf001c 	sw	ra,28(sp)
9d00c0e0:	afb10018 	sw	s1,24(sp)
9d00c0e4:	afb00014 	sw	s0,20(sp)
9d00c0e8:	8c820004 	lw	v0,4(a0)
9d00c0ec:	2411ffff 	li	s1,-1
9d00c0f0:	1051000a 	beq	v0,s1,9d00c11c <gsgetc+0x44>
9d00c0f4:	00808021 	move	s0,a0
9d00c0f8:	ac910004 	sw	s1,4(a0)
9d00c0fc:	8e030010 	lw	v1,16(s0)
9d00c100:	24630001 	addiu	v1,v1,1
9d00c104:	ae030010 	sw	v1,16(s0)
9d00c108:	8fbf001c 	lw	ra,28(sp)
9d00c10c:	8fb10018 	lw	s1,24(sp)
9d00c110:	8fb00014 	lw	s0,20(sp)
9d00c114:	03e00008 	jr	ra
9d00c118:	27bd0020 	addiu	sp,sp,32
9d00c11c:	0f402f74 	jal	9d00bdd0 <fgetc>
9d00c120:	8c840000 	lw	a0,0(a0)
9d00c124:	1451fff5 	bne	v0,s1,9d00c0fc <gsgetc+0x24>
9d00c128:	8fbf001c 	lw	ra,28(sp)
9d00c12c:	8fb10018 	lw	s1,24(sp)
9d00c130:	8fb00014 	lw	s0,20(sp)
9d00c134:	03e00008 	jr	ra
9d00c138:	27bd0020 	addiu	sp,sp,32

Disassembly of section .text._buffree:

9d00c13c <_buffree>:
9d00c13c:	27bdffe8 	addiu	sp,sp,-24
9d00c140:	afbf0014 	sw	ra,20(sp)
9d00c144:	afb00010 	sw	s0,16(sp)
9d00c148:	00808021 	move	s0,a0
9d00c14c:	8c840008 	lw	a0,8(a0)
9d00c150:	10800010 	beqz	a0,9d00c194 <_buffree+0x58>
9d00c154:	8fbf0014 	lw	ra,20(sp)
9d00c158:	96020010 	lhu	v0,16(s0)
9d00c15c:	30420010 	andi	v0,v0,0x10
9d00c160:	5040000d 	beqzl	v0,9d00c198 <_buffree+0x5c>
9d00c164:	8fb00010 	lw	s0,16(sp)
9d00c168:	0f4023e5 	jal	9d008f94 <free>
9d00c16c:	00000000 	nop
9d00c170:	96020010 	lhu	v0,16(s0)
9d00c174:	ae000008 	sw	zero,8(s0)
9d00c178:	7c0220c4 	ins	v0,zero,0x3,0x2
9d00c17c:	ae00000c 	sw	zero,12(s0)
9d00c180:	ae000000 	sw	zero,0(s0)
9d00c184:	2403ffff 	li	v1,-1
9d00c188:	ae030004 	sw	v1,4(s0)
9d00c18c:	a6020010 	sh	v0,16(s0)
9d00c190:	8fbf0014 	lw	ra,20(sp)
9d00c194:	8fb00010 	lw	s0,16(sp)
9d00c198:	03e00008 	jr	ra
9d00c19c:	27bd0018 	addiu	sp,sp,24

Disassembly of section .rodata:

9d00c1a0 <.rodata>:
9d00c1a0:	65646f4d 	0x65646f4d
9d00c1a4:	74657320 	jalx	9195cc80 <_bmxdudba_address+0x9193cc80>
9d00c1a8:	4449203a 	0x4449203a
9d00c1ac:	0a0d454c 	j	98351530 <_bmxdudba_address+0x98331530>
9d00c1b0:	00000000 	nop
9d00c1b4:	65646f4d 	0x65646f4d
9d00c1b8:	74657320 	jalx	9195cc80 <_bmxdudba_address+0x9193cc80>
9d00c1bc:	5750203a 	bnel	k0,s0,9d0142a8 <.LFE0+0x78b8>
9d00c1c0:	000a0d4d 	break	0xa,0x35
9d00c1c4:	65646f4d 	0x65646f4d
9d00c1c8:	74657320 	jalx	9195cc80 <_bmxdudba_address+0x9193cc80>
9d00c1cc:	5449203a 	bnel	v0,t1,9d0142b8 <.LFE0+0x78c8>
9d00c1d0:	0d545345 	jal	95514d14 <_bmxdudba_address+0x954f4d14>
9d00c1d4:	0000000a 	movz	zero,zero,zero
9d00c1d8:	65646f4d 	0x65646f4d
9d00c1dc:	74657320 	jalx	9195cc80 <_bmxdudba_address+0x9193cc80>
9d00c1e0:	4f48203a 	c3	0x148203a
9d00c1e4:	0a0d444c 	j	98351130 <_bmxdudba_address+0x98331130>
9d00c1e8:	00000000 	nop
9d00c1ec:	65646f4d 	0x65646f4d
9d00c1f0:	74657320 	jalx	9195cc80 <_bmxdudba_address+0x9193cc80>
9d00c1f4:	5254203a 	beql	s2,s4,9d0142e0 <.LFE0+0x78f0>
9d00c1f8:	0d4b4341 	jal	952d0d04 <_bmxdudba_address+0x952b0d04>
9d00c1fc:	0000000a 	movz	zero,zero,zero

Disassembly of section .text.sitofp:

9d00c200 <__floatsisf>:
9d00c200:	3c018000 10800012 00813024 04810002     ...<....$0......
9d00c210:	00000000 00042023                       ....# ..

9d00c218 <i40>:
9d00c218:	2405009e 	li	a1,158
9d00c21c:	70873820 	clz	a3,a0
9d00c220:	00a72823 	subu	a1,a1,a3
9d00c224:	00e42004 	sllv	a0,a0,a3
9d00c228:	24840080 	addiu	a0,a0,128
9d00c22c:	2c880080 	sltiu	t0,a0,128
9d00c230:	00a82821 	addu	a1,a1,t0
9d00c234:	00044203 	sra	t0,a0,0x8
9d00c238:	31080001 	andi	t0,t0,0x1
9d00c23c:	00882023 	subu	a0,a0,t0
9d00c240:	00042040 	sll	a0,a0,0x1
9d00c244:	00042242 	srl	a0,a0,0x9
9d00c248:	000545c0 	sll	t0,a1,0x17
9d00c24c:	00882025 	or	a0,a0,t0

9d00c250 <i39>:
9d00c250:	00861025 	or	v0,a0,a2

9d00c254 <E999>:
9d00c254:	03e00008 	jr	ra
9d00c258:	00000000 	nop
9d00c25c:	00000000 	nop

Disassembly of section .text.main_entry:

9d00c260 <_main_entry>:
9d00c260:	3c040000 	lui	a0,0x0
9d00c264:	27bdffe8 	addiu	sp,sp,-24
9d00c268:	24840000 	addiu	a0,a0,0
9d00c26c:	10800003 	beqz	a0,9d00c27c <_main_entry+0x1c>
9d00c270:	afbf0014 	sw	ra,20(sp)
9d00c274:	0080f809 	jalr	a0
9d00c278:	00000000 	nop
9d00c27c:	30840000 	andi	a0,a0,0x0
9d00c280:	30a50000 	andi	a1,a1,0x0
9d00c284:	3c089d00 	lui	t0,0x9d00
9d00c288:	25081e00 	addiu	t0,t0,7680
9d00c28c:	0100f809 	jalr	t0
9d00c290:	00000000 	nop

9d00c294 <__crt0_exit>:
9d00c294:	3c020000 24420000 10400003 00000000     ...<..B$..@.....
9d00c2a4:	0040f809 00000000 1000fff9 00000000     ..@.............

Disassembly of section .text.sbrk:

9d00c2b4 <sbrk>:
9d00c2b4:	27bdffe0 	addiu	sp,sp,-32

9d00c2b8 <.LCFI9>:
9d00c2b8:	afbf001c 	sw	ra,28(sp)
9d00c2bc:	afb10018 	sw	s1,24(sp)
9d00c2c0:	afb00014 	sw	s0,20(sp)
9d00c2c4:	0f402d1b 	jal	9d00b46c <.LFE0>
9d00c2c8:	00808821 	move	s1,a0
9d00c2cc:	1a200007 	blez	s1,9d00c2ec <.LCFI9+0x34>
9d00c2d0:	00408021 	move	s0,v0
9d00c2d4:	2402ffff 	li	v0,-1
9d00c2d8:	12020004 	beq	s0,v0,9d00c2ec <.LCFI9+0x34>
9d00c2dc:	02002021 	move	a0,s0
9d00c2e0:	00002821 	move	a1,zero
9d00c2e4:	0f4031c4 	jal	9d00c710 <.LFE1>
9d00c2e8:	02203021 	move	a2,s1
9d00c2ec:	02001021 	move	v0,s0
9d00c2f0:	8fbf001c 	lw	ra,28(sp)
9d00c2f4:	8fb10018 	lw	s1,24(sp)
9d00c2f8:	8fb00014 	lw	s0,20(sp)
9d00c2fc:	03e00008 	jr	ra
9d00c300:	27bd0020 	addiu	sp,sp,32

Disassembly of section .text._mon_write:

9d00c304 <_mon_write>:
9d00c304:	27bdffe0 	addiu	sp,sp,-32

9d00c308 <.LCFI0>:
9d00c308:	afbf001c 	sw	ra,28(sp)
9d00c30c:	afb10018 	sw	s1,24(sp)
9d00c310:	afb00014 	sw	s0,20(sp)
9d00c314:	10800009 	beqz	a0,9d00c33c <.LCFI0+0x34>
9d00c318:	00808021 	move	s0,a0
9d00c31c:	10a00007 	beqz	a1,9d00c33c <.LCFI0+0x34>
9d00c320:	00a08821 	move	s1,a1
9d00c324:	82040000 	lb	a0,0(s0)
9d00c328:	2631ffff 	addiu	s1,s1,-1
9d00c32c:	0f402ce5 	jal	9d00b394 <_mon_putc>
9d00c330:	26100001 	addiu	s0,s0,1
9d00c334:	5620fffc 	bnezl	s1,9d00c328 <.LCFI0+0x20>
9d00c338:	82040000 	lb	a0,0(s0)
9d00c33c:	8fbf001c 	lw	ra,28(sp)
9d00c340:	8fb10018 	lw	s1,24(sp)
9d00c344:	8fb00014 	lw	s0,20(sp)
9d00c348:	03e00008 	jr	ra
9d00c34c:	27bd0020 	addiu	sp,sp,32

Disassembly of section .rodata:

9d00c350 <.LC0>:
9d00c350:	0a0d6425 	j	98359094 <_bmxdudba_address+0x98339094>
9d00c354:	00000000 	nop

9d00c358 <.LC1>:
9d00c358:	00006425 	0x6425

9d00c35c <.LC2>:
9d00c35c:	25206625 	addiu	zero,t1,26149
9d00c360:	00000066 	0x66

9d00c364 <.LC3>:
9d00c364:	25206625 	addiu	zero,t1,26149
9d00c368:	000a0d66 	0xa0d66

9d00c36c <.LC4>:
9d00c36c:	25206625 	addiu	zero,t1,26149
9d00c370:	66252066 	0x66252066
9d00c374:	00000000 	nop

9d00c378 <.LC5>:
9d00c378:	25206625 	addiu	zero,t1,26149
9d00c37c:	66252066 	0x66252066
9d00c380:	00000a0d 	break	0x0,0x28
9d00c384:	25206425 	addiu	zero,t1,25637
9d00c388:	000a0d64 	0xa0d64
9d00c38c:	00006625 	0x6625
9d00c390:	25206625 	addiu	zero,t1,26149
9d00c394:	000a0d64 	0xa0d64

Disassembly of section .text._bootstrap_exception_handler:

9d00c398 <_bootstrap_exception_handler>:
9d00c398:	3c020000 	lui	v0,0x0
9d00c39c:	24420000 	addiu	v0,v0,0
9d00c3a0:	10400005 	beqz	v0,9d00c3b8 <_bootstrap_exception_handler+0x20>
9d00c3a4:	3c020000 	lui	v0,0x0
9d00c3a8:	24420000 	addiu	v0,v0,0
9d00c3ac:	10400003 	beqz	v0,9d00c3bc <_bootstrap_exception_handler+0x24>
9d00c3b0:	3c029d01 	lui	v0,0x9d01
9d00c3b4:	7000003f 	sdbbp
9d00c3b8:	3c029d01 	lui	v0,0x9d01
9d00c3bc:	2442c4b8 	addiu	v0,v0,-15176
9d00c3c0:	10400005 	beqz	v0,9d00c3d8 <.LCFI2>
9d00c3c4:	00000000 	nop
9d00c3c8:	27bdffe8 	addiu	sp,sp,-24

9d00c3cc <.LCFI0>:
9d00c3cc:	afbf0014 	sw	ra,20(sp)
9d00c3d0:	0040f809 	jalr	v0
9d00c3d4:	00000000 	nop

9d00c3d8 <.LCFI2>:
9d00c3d8:	0b4030f6 	j	9d00c3d8 <.LCFI2>
9d00c3dc:	00000000 	nop

Disassembly of section .text._general_exception_handler:

9d00c3e0 <_general_exception_handler>:
9d00c3e0:	3c020000 	lui	v0,0x0
9d00c3e4:	24420000 	addiu	v0,v0,0
9d00c3e8:	10400005 	beqz	v0,9d00c400 <_general_exception_handler+0x20>
9d00c3ec:	3c020000 	lui	v0,0x0
9d00c3f0:	24420000 	addiu	v0,v0,0
9d00c3f4:	10400003 	beqz	v0,9d00c404 <_general_exception_handler+0x24>
9d00c3f8:	3c029d01 	lui	v0,0x9d01
9d00c3fc:	7000003f 	sdbbp
9d00c400:	3c029d01 	lui	v0,0x9d01
9d00c404:	2442c4b8 	addiu	v0,v0,-15176
9d00c408:	10400005 	beqz	v0,9d00c420 <.LCFI2>
9d00c40c:	00000000 	nop
9d00c410:	27bdffe8 	addiu	sp,sp,-24

9d00c414 <.LCFI0>:
9d00c414:	afbf0014 	sw	ra,20(sp)
9d00c418:	0040f809 	jalr	v0
9d00c41c:	00000000 	nop

9d00c420 <.LCFI2>:
9d00c420:	0b403108 	j	9d00c420 <.LCFI2>
9d00c424:	00000000 	nop

Disassembly of section .vector_default:

9d00c428 <_DefaultInterrupt>:
9d00c428:	3c020000 	lui	v0,0x0
9d00c42c:	24420000 	addiu	v0,v0,0
9d00c430:	10400007 	beqz	v0,9d00c450 <_DefaultInterrupt+0x28>
9d00c434:	3c020000 	lui	v0,0x0
9d00c438:	24420000 	addiu	v0,v0,0
9d00c43c:	50400005 	beqzl	v0,9d00c454 <_DefaultInterrupt+0x2c>
9d00c440:	3c029d01 	lui	v0,0x9d01
9d00c444:	7000003f 	sdbbp
9d00c448:	03e00008 	jr	ra
9d00c44c:	00000000 	nop
9d00c450:	3c029d01 	lui	v0,0x9d01
9d00c454:	2442c4b8 	addiu	v0,v0,-15176
9d00c458:	10400003 	beqz	v0,9d00c468 <_DefaultInterrupt+0x40>
9d00c45c:	00000000 	nop
9d00c460:	0040f809 	jalr	v0
9d00c464:	00000000 	nop
9d00c468:	03e00008 	jr	ra
9d00c46c:	00000000 	nop

Disassembly of section .rodata:

9d00c470 <f5pow>:
9d00c470:	00000000 40140000 00000000 40390000     .......@......9@
9d00c480:	00000000 40838800 00000000 4117d784     .......@.......A
9d00c490:	37e08000 4241c379 b5056e17 4493b8b5     ...7y.AB.n.....D
9d00c4a0:	e93ff9f5 49384f03 f9301d32 52827748     ..?..O8I2.0.Hw.R
9d00c4b0:	7f73bf3c 65154fdd                       <.s..O.e

Disassembly of section .text:

9d00c4b8 <__pic32_software_reset>:
9d00c4b8:	41606000 	di
9d00c4bc:	000000c0 	ehb
9d00c4c0:	3c03aa99 	lui	v1,0xaa99
9d00c4c4:	3c02bf81 	lui	v0,0xbf81
9d00c4c8:	24636655 	addiu	v1,v1,26197
9d00c4cc:	ac40f230 	sw	zero,-3536(v0)
9d00c4d0:	ac43f230 	sw	v1,-3536(v0)
9d00c4d4:	3c035566 	lui	v1,0x5566
9d00c4d8:	346399aa 	ori	v1,v1,0x99aa
9d00c4dc:	ac43f230 	sw	v1,-3536(v0)
9d00c4e0:	3c02bf81 	lui	v0,0xbf81
9d00c4e4:	24030001 	li	v1,1
9d00c4e8:	ac43f618 	sw	v1,-2536(v0)
9d00c4ec:	3c02bf81 	lui	v0,0xbf81
9d00c4f0:	8c42f610 	lw	v0,-2544(v0)
9d00c4f4:	0b403130 	j	9d00c4c0 <__pic32_software_reset+0x8>
9d00c4f8:	00000000 	nop

Disassembly of section .text._io_exit:

9d00c4fc <.text._io_exit>:
9d00c4fc:	27bdffe8 	addiu	sp,sp,-24
9d00c500:	afbf0014 	sw	ra,20(sp)
9d00c504:	afb00010 	sw	s0,16(sp)
9d00c508:	3c10a001 	lui	s0,0xa001
9d00c50c:	0f403250 	jal	9d00c940 <_weak_pthread_mutex_lock>
9d00c510:	2604aee8 	addiu	a0,s0,-20760
9d00c514:	3c02a000 	lui	v0,0xa000
9d00c518:	8c420010 	lw	v0,16(v0)
9d00c51c:	2604aee8 	addiu	a0,s0,-20760
9d00c520:	24030001 	li	v1,1
9d00c524:	0f403254 	jal	9d00c950 <_weak_pthread_mutex_unlock>
9d00c528:	ac430038 	sw	v1,56(v0)
9d00c52c:	8fbf0014 	lw	ra,20(sp)
9d00c530:	8fb00010 	lw	s0,16(sp)
9d00c534:	03e00008 	jr	ra
9d00c538:	27bd0018 	addiu	sp,sp,24

Disassembly of section .text:

9d00c53c <__lshrdi3>:
9d00c53c:	10c00009 	beqz	a2,9d00c564 <.LBE2+0x8>
9d00c540:	00801021 	move	v0,a0
9d00c544:	24020020 	li	v0,32
9d00c548:	00461023 	subu	v0,v0,a2
9d00c54c:	18400007 	blez	v0,9d00c56c <.LBE2+0x10>
9d00c550:	00c42006 	srlv	a0,a0,a2

9d00c554 <.LBB2>:
9d00c554:	00451004 	sllv	v0,a1,v0
9d00c558:	00c51806 	srlv	v1,a1,a2

9d00c55c <.LBE2>:
9d00c55c:	03e00008 	jr	ra
9d00c560:	00441025 	or	v0,v0,a0
9d00c564:	03e00008 	jr	ra
9d00c568:	00a01821 	move	v1,a1
9d00c56c:	00021023 	negu	v0,v0
9d00c570:	00001821 	move	v1,zero
9d00c574:	03e00008 	jr	ra
9d00c578:	00451006 	srlv	v0,a1,v0

9d00c57c <__ashldi3>:
9d00c57c:	10c00009 	beqz	a2,9d00c5a4 <.LBE2+0x8>
9d00c580:	00801021 	move	v0,a0
9d00c584:	24030020 	li	v1,32
9d00c588:	00661823 	subu	v1,v1,a2
9d00c58c:	18600007 	blez	v1,9d00c5ac <.LBE2+0x10>
9d00c590:	00c52804 	sllv	a1,a1,a2

9d00c594 <.LBB2>:
9d00c594:	00641806 	srlv	v1,a0,v1
9d00c598:	00c41004 	sllv	v0,a0,a2

9d00c59c <.LBE2>:
9d00c59c:	03e00008 	jr	ra
9d00c5a0:	00651825 	or	v1,v1,a1
9d00c5a4:	03e00008 	jr	ra
9d00c5a8:	00a01821 	move	v1,a1
9d00c5ac:	00031823 	negu	v1,v1
9d00c5b0:	00001021 	move	v0,zero
9d00c5b4:	03e00008 	jr	ra
9d00c5b8:	00641804 	sllv	v1,a0,v1

Disassembly of section .text._weak_pthread_once:

9d00c5bc <_weak_pthread_once>:
9d00c5bc:	8c820000 	lw	v0,0(a0)
9d00c5c0:	10400003 	beqz	v0,9d00c5d0 <_weak_pthread_once+0x14>
9d00c5c4:	00001021 	move	v0,zero
9d00c5c8:	03e00008 	jr	ra
9d00c5cc:	00000000 	nop
9d00c5d0:	27bdffe8 	addiu	sp,sp,-24
9d00c5d4:	afbf0014 	sw	ra,20(sp)
9d00c5d8:	24020002 	li	v0,2
9d00c5dc:	00a0f809 	jalr	a1
9d00c5e0:	ac820000 	sw	v0,0(a0)
9d00c5e4:	00001021 	move	v0,zero
9d00c5e8:	8fbf0014 	lw	ra,20(sp)
9d00c5ec:	03e00008 	jr	ra
9d00c5f0:	27bd0018 	addiu	sp,sp,24

Disassembly of section .text._filbuf_simple:

9d00c5f4 <_filbuf_simple>:
9d00c5f4:	8c820004 	lw	v0,4(a0)
9d00c5f8:	2403ffff 	li	v1,-1
9d00c5fc:	10430003 	beq	v0,v1,9d00c60c <_filbuf_simple+0x18>
9d00c600:	ac800000 	sw	zero,0(a0)
9d00c604:	03e00008 	jr	ra
9d00c608:	ac830004 	sw	v1,4(a0)
9d00c60c:	27bdffe8 	addiu	sp,sp,-24
9d00c610:	afbf0014 	sw	ra,20(sp)
9d00c614:	0f402c72 	jal	9d00b1c8 <_mon_getc>
9d00c618:	24040001 	li	a0,1
9d00c61c:	8fbf0014 	lw	ra,20(sp)
9d00c620:	03e00008 	jr	ra
9d00c624:	27bd0018 	addiu	sp,sp,24

Disassembly of section .text._fsync_simple:

9d00c628 <_fsync_simple>:
9d00c628:	94830010 	lhu	v1,16(a0)
9d00c62c:	00a32824 	and	a1,a1,v1
9d00c630:	10a00007 	beqz	a1,9d00c650 <_fsync_simple+0x28>
9d00c634:	24020001 	li	v0,1
9d00c638:	34630040 	ori	v1,v1,0x40
9d00c63c:	a4830010 	sh	v1,16(a0)
9d00c640:	24030009 	li	v1,9
9d00c644:	3c02a000 	lui	v0,0xa000
9d00c648:	ac430054 	sw	v1,84(v0)
9d00c64c:	00001021 	move	v0,zero
9d00c650:	03e00008 	jr	ra
9d00c654:	00000000 	nop

Disassembly of section .rodata:

9d00c658 <.rodata>:
9d00c658:	33323130 	andi	s2,t9,0x3130
9d00c65c:	37363534 	ori	s6,t9,0x3534
9d00c660:	00000000 	nop
9d00c664:	33323130 	andi	s2,t9,0x3130
9d00c668:	37363534 	ori	s6,t9,0x3534
9d00c66c:	42413938 	c0	0x413938
9d00c670:	46454443 	c1	0x454443
9d00c674:	64636261 	0x64636261
9d00c678:	00006665 	0x6665
9d00c67c:	33323130 	andi	s2,t9,0x3130
9d00c680:	37363534 	ori	s6,t9,0x3534
9d00c684:	00003938 	0x3938

Disassembly of section .text._cleanup:

9d00c688 <_cleanup>:
9d00c688:	3c02a001 	lui	v0,0xa001
9d00c68c:	8c42af0c 	lw	v0,-20724(v0)
9d00c690:	10400007 	beqz	v0,9d00c6b0 <_cleanup+0x28>
9d00c694:	00000000 	nop
9d00c698:	27bdffe8 	addiu	sp,sp,-24
9d00c69c:	afbf0014 	sw	ra,20(sp)
9d00c6a0:	0040f809 	jalr	v0
9d00c6a4:	00000000 	nop
9d00c6a8:	8fbf0014 	lw	ra,20(sp)
9d00c6ac:	27bd0018 	addiu	sp,sp,24
9d00c6b0:	03e00008 	jr	ra
9d00c6b4:	00000000 	nop

Disassembly of section .text.memcpy:

9d00c6b8 <memcpy>:
9d00c6b8:	00801021 	move	v0,a0
9d00c6bc:	00863821 	addu	a3,a0,a2
9d00c6c0:	10c00006 	beqz	a2,9d00c6dc <memcpy+0x24>
9d00c6c4:	00801821 	move	v1,a0
9d00c6c8:	24a50001 	addiu	a1,a1,1
9d00c6cc:	90a6ffff 	lbu	a2,-1(a1)
9d00c6d0:	24630001 	addiu	v1,v1,1
9d00c6d4:	1467fffc 	bne	v1,a3,9d00c6c8 <memcpy+0x10>
9d00c6d8:	a066ffff 	sb	a2,-1(v1)
9d00c6dc:	03e00008 	jr	ra
9d00c6e0:	00000000 	nop

Disassembly of section .text._stub_sbd_memlayout:

9d00c6e4 <_stub_sbd_memlayout>:
9d00c6e4:	3c03a001 	lui	v1,0xa001
9d00c6e8:	2462aec4 	addiu	v0,v1,-20796
9d00c6ec:	24040001 	li	a0,1
9d00c6f0:	ac440008 	sw	a0,8(v0)
9d00c6f4:	3c04a001 	lui	a0,0xa001
9d00c6f8:	2484af18 	addiu	a0,a0,-20712
9d00c6fc:	ac64aec4 	sw	a0,-20796(v1)
9d00c700:	3c030000 	lui	v1,0x0
9d00c704:	24630000 	addiu	v1,v1,0
9d00c708:	03e00008 	jr	ra
9d00c70c:	ac430004 	sw	v1,4(v0)

Disassembly of section .text.memset:

9d00c710 <memset>:
9d00c710:	10c00007 	beqz	a2,9d00c730 <memset+0x20>
9d00c714:	00801021 	move	v0,a0
9d00c718:	30a500ff 	andi	a1,a1,0xff
9d00c71c:	00863021 	addu	a2,a0,a2
9d00c720:	00801821 	move	v1,a0
9d00c724:	24630001 	addiu	v1,v1,1
9d00c728:	1466fffe 	bne	v1,a2,9d00c724 <memset+0x14>
9d00c72c:	a065ffff 	sb	a1,-1(v1)
9d00c730:	03e00008 	jr	ra
9d00c734:	00000000 	nop

Disassembly of section .text.putchar:

9d00c738 <putchar>:
9d00c738:	27bdffe8 	addiu	sp,sp,-24
9d00c73c:	afbf0014 	sw	ra,20(sp)
9d00c740:	3c02a000 	lui	v0,0xa000
9d00c744:	8c420010 	lw	v0,16(v0)
9d00c748:	0f402d4d 	jal	9d00b534 <.LCFI8>
9d00c74c:	8c450004 	lw	a1,4(v0)
9d00c750:	8fbf0014 	lw	ra,20(sp)
9d00c754:	03e00008 	jr	ra
9d00c758:	27bd0018 	addiu	sp,sp,24

Disassembly of section .text.getchar:

9d00c75c <getchar>:
9d00c75c:	27bdffe8 	addiu	sp,sp,-24
9d00c760:	afbf0014 	sw	ra,20(sp)
9d00c764:	3c02a000 	lui	v0,0xa000
9d00c768:	8c420010 	lw	v0,16(v0)
9d00c76c:	0f402f74 	jal	9d00bdd0 <fgetc>
9d00c770:	8c440000 	lw	a0,0(v0)
9d00c774:	8fbf0014 	lw	ra,20(sp)
9d00c778:	03e00008 	jr	ra
9d00c77c:	27bd0018 	addiu	sp,sp,24

Disassembly of section .text._vfprintf_cdfFnopuxX:

9d00c780 <_vfprintf_cdfFnopuxX>:
9d00c780:	27bdffe8 	addiu	sp,sp,-24
9d00c784:	afbf0014 	sw	ra,20(sp)
9d00c788:	0f400de5 	jal	9d003794 <_do_print_cdfFnopuxX>
9d00c78c:	00000000 	nop
9d00c790:	8fbf0014 	lw	ra,20(sp)
9d00c794:	03e00008 	jr	ra
9d00c798:	27bd0018 	addiu	sp,sp,24

Disassembly of section .text.putc:

9d00c79c <putc>:
9d00c79c:	27bdffe8 	addiu	sp,sp,-24
9d00c7a0:	afbf0014 	sw	ra,20(sp)
9d00c7a4:	0f402d4d 	jal	9d00b534 <.LCFI8>
9d00c7a8:	00000000 	nop
9d00c7ac:	8fbf0014 	lw	ra,20(sp)
9d00c7b0:	03e00008 	jr	ra
9d00c7b4:	27bd0018 	addiu	sp,sp,24

Disassembly of section .text.vfscanf:

9d00c7b8 <vfscanf>:
9d00c7b8:	27bdffe8 	addiu	sp,sp,-24
9d00c7bc:	afbf0014 	sw	ra,20(sp)
9d00c7c0:	0f400ae0 	jal	9d002b80 <.LFE9>
9d00c7c4:	00000000 	nop
9d00c7c8:	8fbf0014 	lw	ra,20(sp)
9d00c7cc:	03e00008 	jr	ra
9d00c7d0:	27bd0018 	addiu	sp,sp,24

Disassembly of section .text.strtod:

9d00c7d4 <strtod>:
9d00c7d4:	27bdffe8 	addiu	sp,sp,-24
9d00c7d8:	afbf0014 	sw	ra,20(sp)
9d00c7dc:	0f401dbf 	jal	9d0076fc <__strtod>
9d00c7e0:	00000000 	nop
9d00c7e4:	8fbf0014 	lw	ra,20(sp)
9d00c7e8:	03e00008 	jr	ra
9d00c7ec:	27bd0018 	addiu	sp,sp,24

Disassembly of section .text.strtof:

9d00c7f0 <strtof>:
9d00c7f0:	27bdffe8 	addiu	sp,sp,-24
9d00c7f4:	afbf0014 	sw	ra,20(sp)
9d00c7f8:	0f401f95 	jal	9d007e54 <__strtof>
9d00c7fc:	00000000 	nop
9d00c800:	8fbf0014 	lw	ra,20(sp)
9d00c804:	03e00008 	jr	ra
9d00c808:	27bd0018 	addiu	sp,sp,24

Disassembly of section .text.getc:

9d00c80c <getc>:
9d00c80c:	27bdffe8 	addiu	sp,sp,-24
9d00c810:	afbf0014 	sw	ra,20(sp)
9d00c814:	0f402f74 	jal	9d00bdd0 <fgetc>
9d00c818:	00000000 	nop
9d00c81c:	8fbf0014 	lw	ra,20(sp)
9d00c820:	03e00008 	jr	ra
9d00c824:	27bd0018 	addiu	sp,sp,24

Disassembly of section .text.negdf2:

9d00c828 <__negdf2>:
9d00c828:	3c018000 00a12826 00041025 00051825     ...<&(..%...%...

9d00c838 <M999>:
9d00c838:	03e00008 	jr	ra
9d00c83c:	00000000 	nop
9d00c840:	00000000 	nop

Disassembly of section .text:

9d00c844 <_nmi_handler>:
9d00c844:	401a6000 	mfc0	k0,c0_status
9d00c848:	3c1bffbf 	lui	k1,0xffbf
9d00c84c:	377bffff 	ori	k1,k1,0xffff
9d00c850:	035bd024 	and	k0,k0,k1
9d00c854:	409a6000 	mtc0	k0,c0_status
9d00c858:	42000018 	eret

Disassembly of section .rodata:

9d00c85c <f5pow>:
9d00c85c:	40a00000 41c80000 441c4000 48bebc20     ...@...A.@.D ..H
9d00c86c:	520e1bca 649dc5ae                       ...R...d

Disassembly of section .text._io_exit:

9d00c874 <_io_exit>:
9d00c874:	3c02a000 	lui	v0,0xa000
9d00c878:	8c420010 	lw	v0,16(v0)
9d00c87c:	24030001 	li	v1,1
9d00c880:	03e00008 	jr	ra
9d00c884:	ac430038 	sw	v1,56(v0)

Disassembly of section .rodata:

9d00c888 <_io_funcs>:
9d00c888:	9d00c5f4 9d00afd8 9d00bbd8 9d00bc58     ............X...
9d00c898:	9d00c628                                (...

Disassembly of section .text._io_exit:

9d00c89c <.text._io_exit>:
9d00c89c:	3c02a000 	lui	v0,0xa000
9d00c8a0:	8c420010 	lw	v0,16(v0)
9d00c8a4:	24030001 	li	v1,1
9d00c8a8:	03e00008 	jr	ra
9d00c8ac:	ac430038 	sw	v1,56(v0)

Disassembly of section .rodata:

9d00c8b0 <_io_strfuncs>:
9d00c8b0:	9d00c908 9d00c910 9d00c918 9d00c920     ............ ...
9d00c8c0:	9d00c928                                (...

Disassembly of section .text.negsf2:

9d00c8c4 <__negsf2>:
9d00c8c4:	3c018000 00811026                       ...<&...

9d00c8cc <L999>:
9d00c8cc:	03e00008 	jr	ra
9d00c8d0:	00000000 	nop
9d00c8d4:	00000000 	nop

Disassembly of section .rodata:

9d00c8d8 <.rodata>:
9d00c8d8:	00000000 	nop
9d00c8dc:	40590000 	cfc0	t9,c0_index
9d00c8e0:	00000000 	nop
9d00c8e4:	40af4000 	0x40af4000
9d00c8e8:	16872b02 	bne	s4,a3,9d0174f4 <.LFE0+0xab04>
9d00c8ec:	4016ced9 	0x4016ced9
9d00c8f0:	00000000 	nop
9d00c8f4:	40a8fe00 	0x40a8fe00

Disassembly of section .text._on_reset:

9d00c8f8 <_on_reset>:
9d00c8f8:	03e00008 	jr	ra
9d00c8fc:	00000000 	nop

Disassembly of section .text._on_bootstrap:

9d00c900 <_on_bootstrap>:
9d00c900:	03e00008 	jr	ra
9d00c904:	00000000 	nop

Disassembly of section .text._filbuf_string:

9d00c908 <_filbuf_string>:
9d00c908:	03e00008 	jr	ra
9d00c90c:	2402ffff 	li	v0,-1

Disassembly of section .text._flsbuf_string:

9d00c910 <_flsbuf_string>:
9d00c910:	03e00008 	jr	ra
9d00c914:	00801021 	move	v0,a0

Disassembly of section .text._fflush_string:

9d00c918 <_fflush_string>:
9d00c918:	03e00008 	jr	ra
9d00c91c:	00001021 	move	v0,zero

Disassembly of section .text._fwrite_string:

9d00c920 <_fwrite_string>:
9d00c920:	03e00008 	jr	ra
9d00c924:	00001021 	move	v0,zero

Disassembly of section .text._fsync_string:

9d00c928 <_fsync_string>:
9d00c928:	03e00008 	jr	ra
9d00c92c:	24020001 	li	v0,1

Disassembly of section .text._weak_pthread_mutex_init:

9d00c930 <_weak_pthread_mutex_init>:
9d00c930:	03e00008 	jr	ra
9d00c934:	00001021 	move	v0,zero

Disassembly of section .text._weak_pthread_mutex_destroy:

9d00c938 <_weak_pthread_mutex_destroy>:
9d00c938:	03e00008 	jr	ra
9d00c93c:	00001021 	move	v0,zero

Disassembly of section .text._weak_pthread_mutex_lock:

9d00c940 <_weak_pthread_mutex_lock>:
9d00c940:	03e00008 	jr	ra
9d00c944:	00001021 	move	v0,zero

Disassembly of section .text._weak_pthread_mutex_trylock:

9d00c948 <_weak_pthread_mutex_trylock>:
9d00c948:	03e00008 	jr	ra
9d00c94c:	00001021 	move	v0,zero

Disassembly of section .text._weak_pthread_mutex_unlock:

9d00c950 <_weak_pthread_mutex_unlock>:
9d00c950:	03e00008 	jr	ra
9d00c954:	00001021 	move	v0,zero

Disassembly of section .text._weak_pthread_mutex_setname_np:

9d00c958 <_weak_pthread_mutex_setname_np>:
9d00c958:	03e00008 	jr	ra
9d00c95c:	00001021 	move	v0,zero

Disassembly of section .text._weak_pthread_mutexattr_init:

9d00c960 <_weak_pthread_mutexattr_init>:
9d00c960:	03e00008 	jr	ra
9d00c964:	00001021 	move	v0,zero

Disassembly of section .text._weak_pthread_mutexattr_destroy:

9d00c968 <_weak_pthread_mutexattr_destroy>:
9d00c968:	03e00008 	jr	ra
9d00c96c:	00001021 	move	v0,zero

Disassembly of section .text._weak_pthread_mutexattr_setname_np:

9d00c970 <_weak_pthread_mutexattr_setname_np>:
9d00c970:	03e00008 	jr	ra
9d00c974:	00001021 	move	v0,zero

Disassembly of section .text._weak_pthread_mutexattr_settype_np:

9d00c978 <_weak_pthread_mutexattr_settype_np>:
9d00c978:	03e00008 	jr	ra
9d00c97c:	00001021 	move	v0,zero

Disassembly of section .text._weak_pthread_sysconf_np:

9d00c980 <_weak_pthread_sysconf_np>:
9d00c980:	03e00008 	jr	ra
9d00c984:	2402ffff 	li	v0,-1

Disassembly of section .text._weak_pthread_sigdisable_np:

9d00c988 <_weak_pthread_sigdisable_np>:
9d00c988:	03e00008 	jr	ra
9d00c98c:	00000000 	nop

Disassembly of section .text._weak_pthread_sigrestore_np:

9d00c990 <_weak_pthread_sigrestore_np>:
9d00c990:	03e00008 	jr	ra
9d00c994:	00000000 	nop

Disassembly of section .text._weak__pthread_cleanup_push:

9d00c998 <_weak__pthread_cleanup_push>:
9d00c998:	03e00008 	jr	ra
9d00c99c:	00000000 	nop

Disassembly of section .text._weak__pthread_cleanup_pop:

9d00c9a0 <_weak__pthread_cleanup_pop>:
9d00c9a0:	03e00008 	jr	ra
9d00c9a4:	00000000 	nop

Disassembly of section .text._weak__pthread_cleanup_push_defer:

9d00c9a8 <_weak__pthread_cleanup_push_defer>:
9d00c9a8:	03e00008 	jr	ra
9d00c9ac:	00000000 	nop

Disassembly of section .text._weak__pthread_cleanup_pop_restore:

9d00c9b0 <_weak__pthread_cleanup_pop_restore>:
9d00c9b0:	03e00008 	jr	ra
9d00c9b4:	00000000 	nop

Disassembly of section .text._weak_pthread_key_create:

9d00c9b8 <_weak_pthread_key_create>:
9d00c9b8:	03e00008 	jr	ra
9d00c9bc:	2402ffff 	li	v0,-1

Disassembly of section .text._weak_pthread_setspecific:

9d00c9c0 <_weak_pthread_setspecific>:
9d00c9c0:	03e00008 	jr	ra
9d00c9c4:	2402ffff 	li	v0,-1

Disassembly of section .text._weak_pthread_getspecific:

9d00c9c8 <_weak_pthread_getspecific>:
9d00c9c8:	03e00008 	jr	ra
9d00c9cc:	00001021 	move	v0,zero

Disassembly of section .text._weak__libc_private_storage:

9d00c9d0 <_weak__libc_private_storage>:
9d00c9d0:	03e00008 	jr	ra
9d00c9d4:	00a01021 	move	v0,a1

Disassembly of section .text.getpagesize:

9d00c9d8 <getpagesize>:
9d00c9d8:	03e00008 	jr	ra
9d00c9dc:	24020080 	li	v0,128

Disassembly of section .text._exit:

9d00c9e0 <_exit>:
9d00c9e0:	0b403278 	j	9d00c9e0 <_exit>
9d00c9e4:	00000000 	nop

Disassembly of section .text.isatty:

9d00c9e8 <isatty>:
9d00c9e8:	03e00008 	jr	ra
9d00c9ec:	00001021 	move	v0,zero
